
LPC2478_Template.elf:     file format elf32-littlearm

Sections:
Idx Name          Size      VMA       LMA       File off  Algn
  0 startup       00000044  00000000  00000000  00008000  2**2
                  CONTENTS, ALLOC, LOAD, READONLY, CODE
  1 prog          0000ac54  00000048  00000048  00008048  2**3
                  CONTENTS, ALLOC, LOAD, READONLY, CODE
  2 .text.UART0Handler 00000020  0000ac9c  0000ac9c  00012c9c  2**2
                  CONTENTS, ALLOC, LOAD, READONLY, CODE
  3 .text.uart_enable_power 000000d8  0000acbc  0000acbc  00012cbc  2**2
                  CONTENTS, ALLOC, LOAD, READONLY, CODE
  4 .text.uart_set_clock 00000178  0000ad94  0000ad94  00012d94  2**2
                  CONTENTS, ALLOC, LOAD, READONLY, CODE
  5 .text.uart_set_divisors 00000268  0000af10  0000af10  00012f10  2**3
                  CONTENTS, ALLOC, LOAD, READONLY, CODE
  6 .text.uart_init 000002c8  0000b178  0000b178  00013178  2**2
                  CONTENTS, ALLOC, LOAD, READONLY, CODE
  7 .text.uart_enable 000000c8  0000b440  0000b440  00013440  2**2
                  CONTENTS, ALLOC, LOAD, READONLY, CODE
  8 .text.uart_disable 000000d8  0000b508  0000b508  00013508  2**2
                  CONTENTS, ALLOC, LOAD, READONLY, CODE
  9 .text.get_char 0000007c  0000b5e0  0000b5e0  000135e0  2**2
                  CONTENTS, ALLOC, LOAD, READONLY, CODE
 10 .text.put_char 0000001c  0000b65c  0000b65c  0001365c  2**2
                  CONTENTS, ALLOC, LOAD, READONLY, CODE
 11 .text.initSendCB 00000074  0000b678  0000b678  00013678  2**2
                  CONTENTS, ALLOC, LOAD, READONLY, CODE
 12 .text.initRecvCB 00000074  0000b6ec  0000b6ec  000136ec  2**2
                  CONTENTS, ALLOC, LOAD, READONLY, CODE
 13 .text.initCB  0000001c  0000b760  0000b760  00013760  2**2
                  CONTENTS, ALLOC, LOAD, READONLY, CODE
 14 .text.putSendCB 000000f8  0000b77c  0000b77c  0001377c  2**2
                  CONTENTS, ALLOC, LOAD, READONLY, CODE
 15 .text.getSendCB 000000f8  0000b874  0000b874  00013874  2**2
                  CONTENTS, ALLOC, LOAD, READONLY, CODE
 16 .text.putRecvCB 000000f8  0000b96c  0000b96c  0001396c  2**2
                  CONTENTS, ALLOC, LOAD, READONLY, CODE
 17 .text.getRecvCB 000000f8  0000ba64  0000ba64  00013a64  2**2
                  CONTENTS, ALLOC, LOAD, READONLY, CODE
 18 .text.SystemInit 00000288  0000bb5c  0000bb5c  00013b5c  2**2
                  CONTENTS, ALLOC, LOAD, READONLY, CODE
 19 .text.ISRDummyHandler 00000020  0000bde4  0000bde4  00013de4  2**2
                  CONTENTS, ALLOC, LOAD, READONLY, CODE
 20 .text.init_VIC 000000b0  0000be04  0000be04  00013e04  2**2
                  CONTENTS, ALLOC, LOAD, READONLY, CODE
 21 .text.install_irq 000000c0  0000beb4  0000beb4  00013eb4  2**2
                  CONTENTS, ALLOC, LOAD, READONLY, CODE
 22 .text._close  00000024  0000bf74  0000bf74  00013f74  2**2
                  CONTENTS, ALLOC, LOAD, READONLY, CODE
 23 .text._execve 0000003c  0000bf98  0000bf98  00013f98  2**2
                  CONTENTS, ALLOC, LOAD, READONLY, CODE
 24 .text._exit   0000001c  0000bfd4  0000bfd4  00013fd4  2**2
                  CONTENTS, ALLOC, LOAD, READONLY, CODE
 25 .text._fork   0000002c  0000bff0  0000bff0  00013ff0  2**2
                  CONTENTS, ALLOC, LOAD, READONLY, CODE
 26 .text._fstat  00000034  0000c01c  0000c01c  0001401c  2**2
                  CONTENTS, ALLOC, LOAD, READONLY, CODE
 27 .text._getpid 0000001c  0000c050  0000c050  00014050  2**2
                  CONTENTS, ALLOC, LOAD, READONLY, CODE
 28 .text._kill   00000038  0000c06c  0000c06c  0001406c  2**2
                  CONTENTS, ALLOC, LOAD, READONLY, CODE
 29 .text.isatty  00000024  0000c0a4  0000c0a4  000140a4  2**2
                  CONTENTS, ALLOC, LOAD, READONLY, CODE
 30 .text._isatty 00000024  0000c0c8  0000c0c8  000140c8  2**2
                  CONTENTS, ALLOC, LOAD, READONLY, CODE
 31 .text._link   00000038  0000c0ec  0000c0ec  000140ec  2**2
                  CONTENTS, ALLOC, LOAD, READONLY, CODE
 32 .text._lseek  0000002c  0000c124  0000c124  00014124  2**2
                  CONTENTS, ALLOC, LOAD, READONLY, CODE
 33 .text._open   0000002c  0000c150  0000c150  00014150  2**2
                  CONTENTS, ALLOC, LOAD, READONLY, CODE
 34 .text._read   0000002c  0000c17c  0000c17c  0001417c  2**2
                  CONTENTS, ALLOC, LOAD, READONLY, CODE
 35 .text._sbrk   00000080  0000c1a8  0000c1a8  000141a8  2**2
                  CONTENTS, ALLOC, LOAD, READONLY, CODE
 36 .text._stat   00000034  0000c228  0000c228  00014228  2**2
                  CONTENTS, ALLOC, LOAD, READONLY, CODE
 37 .text._times  00000024  0000c25c  0000c25c  0001425c  2**2
                  CONTENTS, ALLOC, LOAD, READONLY, CODE
 38 .text._unlink 00000034  0000c280  0000c280  00014280  2**2
                  CONTENTS, ALLOC, LOAD, READONLY, CODE
 39 .text._wait   00000034  0000c2b4  0000c2b4  000142b4  2**2
                  CONTENTS, ALLOC, LOAD, READONLY, CODE
 40 .text._write  0000002c  0000c2e8  0000c2e8  000142e8  2**2
                  CONTENTS, ALLOC, LOAD, READONLY, CODE
 41 .text.setPortPinDir 00000080  0000c314  0000c314  00014314  2**2
                  CONTENTS, ALLOC, LOAD, READONLY, CODE
 42 .text.clrPortPin 00000080  0000c394  0000c394  00014394  2**2
                  CONTENTS, ALLOC, LOAD, READONLY, CODE
 43 .text.setPortPin 00000080  0000c414  0000c414  00014414  2**2
                  CONTENTS, ALLOC, LOAD, READONLY, CODE
 44 .text.delayMs 000000c8  0000c494  0000c494  00014494  2**2
                  CONTENTS, ALLOC, LOAD, READONLY, CODE
 45 .text.main    00000040  0000c55c  0000c55c  0001455c  2**2
                  CONTENTS, ALLOC, LOAD, READONLY, CODE
 46 .ARM.exidx    00000008  0000c59c  0000c59c  0001459c  2**2
                  CONTENTS, ALLOC, LOAD, READONLY, DATA
 47 .data         000008c0  40000000  0000c5a8  00018000  2**3
                  CONTENTS, ALLOC, LOAD, DATA
 48 .data.environ 00000004  400008c0  0000ce68  000188c0  2**2
                  CONTENTS, ALLOC, LOAD, DATA
 49 .bss          00000070  400008c4  0000ce6c  000188c4  2**2
                  ALLOC
 50 .bss.__env    00000004  40000934  0000ce6c  00018934  2**2
                  ALLOC
 51 .bss.heap_end.4311 00000004  40000938  0000ce6c  00018938  2**2
                  ALLOC
 52 .debug_info   0000121b  00000000  00000000  000188c4  2**0
                  CONTENTS, READONLY, DEBUGGING
 53 .debug_abbrev 0000058b  00000000  00000000  00019adf  2**0
                  CONTENTS, READONLY, DEBUGGING
 54 .debug_loc    00000790  00000000  00000000  0001a06a  2**0
                  CONTENTS, READONLY, DEBUGGING
 55 .debug_aranges 00000230  00000000  00000000  0001a800  2**3
                  CONTENTS, READONLY, DEBUGGING
 56 .debug_ranges 000001b8  00000000  00000000  0001aa30  2**3
                  CONTENTS, READONLY, DEBUGGING
 57 .debug_line   00000c99  00000000  00000000  0001abe8  2**0
                  CONTENTS, READONLY, DEBUGGING
 58 .debug_macinfo 0005c316  00000000  00000000  0001b881  2**0
                  CONTENTS, READONLY, DEBUGGING
 59 .debug_str    000006a1  00000000  00000000  00077b97  2**0
                  CONTENTS, READONLY, DEBUGGING
 60 .comment      00000030  00000000  00000000  00078238  2**0
                  CONTENTS, READONLY
 61 .ARM.attributes 00000032  00000000  00000000  00078268  2**0
                  CONTENTS, READONLY
 62 .debug_frame  000012bc  00000000  00000000  0007829c  2**2
                  CONTENTS, READONLY, DEBUGGING

Disassembly of section startup:

00000000 <_undf-0x20>:

.section .startup,"ax"
         .code 32
         .align 0

	b     _start						/* reset - _start			*/
   0:	ea000010 	b	48 <start>
	ldr   pc, _undf						/* undefined - _undf		*/
   4:	e59ff014 	ldr	pc, [pc, #20]	; 20 <_undf>
	ldr   pc, _swi						/* SWI - _swi				*/
   8:	e59ff014 	ldr	pc, [pc, #20]	; 24 <_swi>
	ldr   pc, _pabt						/* program abort - _pabt	*/
   c:	e59ff014 	ldr	pc, [pc, #20]	; 28 <_pabt>
	ldr   pc, _dabt						/* data abort - _dabt		*/
  10:	e59ff014 	ldr	pc, [pc, #20]	; 2c <_dabt>
	nop									/* reserved					*/
  14:	e1a00000 	nop			; (mov r0, r0)
	ldr   pc, [pc,#-0x120]				/* IRQ - read the VIC		*/
  18:	e51ff120 	ldr	pc, [pc, #-288]	; ffffff00 <_end+0x801fff00>
	ldr   pc, _fiq						/* FIQ - _fiq				*/
  1c:	e59ff00c 	ldr	pc, [pc, #12]	; 30 <_fiq>

00000020 <_undf>:
  20:	00000034 	.word	0x00000034

00000024 <_swi>:
  24:	00000024 	.word	0x00000024

00000028 <_pabt>:
  28:	00000038 	.word	0x00000038

0000002c <_dabt>:
  2c:	0000003c 	.word	0x0000003c

00000030 <_fiq>:
  30:	00000040 	.word	0x00000040

00000034 <__undf>:
_swi:   .word _swi	//vPortYieldProcessor       /* SWI						*/
_pabt:  .word __pabt                    /* program abort			*/
_dabt:  .word __dabt                    /* data abort				*/
_fiq:   .word __fiq                     /* FIQ						*/

__undf: b     .                         /* undefined				*/
  34:	eafffffe 	b	34 <__undf>

00000038 <__pabt>:
__pabt: b     .                         /* program abort			*/
  38:	eafffffe 	b	38 <__pabt>

0000003c <__dabt>:
__dabt: b     .                         /* data abort				*/
  3c:	eafffffe 	b	3c <__dabt>

00000040 <__fiq>:
__fiq:  b     .                         /* FIQ						*/
  40:	eafffffe 	b	40 <__fiq>

Disassembly of section prog:

00000048 <start>:
_mainCRTStartup:

	/* Setup a stack for each mode - note that this only sets up a usable stack
	for system/user, SWI and IRQ modes.   Also each mode is setup with
	interrupts initially disabled. */
    ldr   r0, .LC6
      48:	e59f00d0 	ldr	r0, [pc, #208]	; 120 <endless_loop+0x18>
    msr   CPSR_c, #MODE_UND|I_BIT|F_BIT /* Undefined Instruction Mode */
      4c:	e321f0db 	msr	CPSR_c, #219	; 0xdb
    mov   sp, r0
      50:	e1a0d000 	mov	sp, r0
    sub   r0, r0, #UND_STACK_SIZE
      54:	e2400004 	sub	r0, r0, #4
    msr   CPSR_c, #MODE_ABT|I_BIT|F_BIT /* Abort Mode */
      58:	e321f0d7 	msr	CPSR_c, #215	; 0xd7
    mov   sp, r0
      5c:	e1a0d000 	mov	sp, r0
    sub   r0, r0, #ABT_STACK_SIZE
      60:	e2400004 	sub	r0, r0, #4
    msr   CPSR_c, #MODE_FIQ|I_BIT|F_BIT /* FIQ Mode */
      64:	e321f0d1 	msr	CPSR_c, #209	; 0xd1
    mov   sp, r0
      68:	e1a0d000 	mov	sp, r0
    sub   r0, r0, #FIQ_STACK_SIZE
      6c:	e2400004 	sub	r0, r0, #4
    msr   CPSR_c, #MODE_IRQ|I_BIT|F_BIT /* IRQ Mode */
      70:	e321f0d2 	msr	CPSR_c, #210	; 0xd2
    mov   sp, r0
      74:	e1a0d000 	mov	sp, r0
    sub   r0, r0, #IRQ_STACK_SIZE
      78:	e2400c01 	sub	r0, r0, #256	; 0x100
    msr   CPSR_c, #MODE_SVC|I_BIT|F_BIT /* Supervisor Mode */
      7c:	e321f0d3 	msr	CPSR_c, #211	; 0xd3
    mov   sp, r0
      80:	e1a0d000 	mov	sp, r0
    sub   r0, r0, #SVC_STACK_SIZE
      84:	e2400c01 	sub	r0, r0, #256	; 0x100
    msr   CPSR_c, #MODE_SYS|I_BIT|F_BIT /* System Mode */
      88:	e321f0df 	msr	CPSR_c, #223	; 0xdf
    mov   sp, r0
      8c:	e1a0d000 	mov	sp, r0
	/* We want to start in supervisor mode.  Operation will switch to system
	mode when the first task starts. */
/* pamo exchanged
	msr   CPSR_c, #MODE_SYS //|F_BIT|I_BIT*/

	msr	  CPSR_c, #MODE_SVC	/* enable interrupts */
      90:	e321f013 	msr	CPSR_c, #19
/* end pamo exchanged*/

	/* Clear BSS. */

	mov     a2, #0			/* Fill value */
      94:	e3a01000 	mov	r1, #0
	mov		fp, a2			/* Null frame pointer */
      98:	e1a0b001 	mov	fp, r1
	mov		r7, a2			/* Null frame pointer for Thumb */
      9c:	e1a07001 	mov	r7, r1

	ldr		r1, .LC1		/* Start of memory block */
      a0:	e59f1064 	ldr	r1, [pc, #100]	; 10c <endless_loop+0x4>
	ldr		r3, .LC2		/* End of memory block */
      a4:	e59f3064 	ldr	r3, [pc, #100]	; 110 <endless_loop+0x8>
	subs	r3, r3, r1      /* Length of block */
      a8:	e0533001 	subs	r3, r3, r1
	beq		.end_clear_loop
      ac:	0a000003 	beq	c0 <.end_clear_loop>
	mov		r2, #0
      b0:	e3a02000 	mov	r2, #0

000000b4 <.clear_loop>:

.clear_loop:
	strb	r2, [r1], #1
      b4:	e4c12001 	strb	r2, [r1], #1
	subs	r3, r3, #1
      b8:	e2533001 	subs	r3, r3, #1
	bgt		.clear_loop
      bc:	cafffffc 	bgt	b4 <.clear_loop>

000000c0 <.end_clear_loop>:

.end_clear_loop:

	/* Initialise data. */

	ldr		r1, .LC3			/* Start of memory block in RAM */
      c0:	e59f104c 	ldr	r1, [pc, #76]	; 114 <endless_loop+0xc>
	ldr		r2, .LC4			/* Start of memory block in program code*/
      c4:	e59f204c 	ldr	r2, [pc, #76]	; 118 <endless_loop+0x10>
	and		r5, r2, #4
      c8:	e2025004 	and	r5, r2, #4
	subs	r5, r5, #0
      cc:	e2555000 	subs	r5, r5, #0
	beq		.cont_calc
      d0:	0a000000 	beq	d8 <.cont_calc>
	add		r2, r2, #4
      d4:	e2822004 	add	r2, r2, #4

000000d8 <.cont_calc>:

.cont_calc:
	sub		r2, r2, r1
      d8:	e0422001 	sub	r2, r2, r1
	ldr		r3, .LC5			/* size of memory block */
      dc:	e59f3038 	ldr	r3, [pc, #56]	; 11c <endless_loop+0x14>
	subs	r3, r3, r1			/* Length of block */ /* !!! DATA ABORT || DAC failed !!! */
      e0:	e0533001 	subs	r3, r3, r1
	beq		.end_set_loop
      e4:	0a000003 	beq	f8 <.end_set_loop>

000000e8 <.set_loop>:

.set_loop:
	ldrb	r4, [r2], #1
      e8:	e4d24001 	ldrb	r4, [r2], #1
	strb	r4, [r1], #1
      ec:	e4c14001 	strb	r4, [r1], #1
	subs	r3, r3, #1
      f0:	e2533001 	subs	r3, r3, #1
	bgt		.set_loop
      f4:	cafffffb 	bgt	e8 <.set_loop>

000000f8 <.end_set_loop>:

.end_set_loop:

	mov		r0, #0          /* no arguments  */
      f8:	e3a00000 	mov	r0, #0
	mov		r1, #0          /* no argv either */
      fc:	e3a01000 	mov	r1, #0

	bl		SystemInit
     100:	eb002e95 	bl	bb5c <SystemInit>

	bl		main
     104:	eb003114 	bl	c55c <main>

00000108 <endless_loop>:

endless_loop:
	b               endless_loop
     108:	eafffffe 	b	108 <endless_loop>
     10c:	400008c4 	.word	0x400008c4
     110:	4000093c 	.word	0x4000093c
     114:	40000000 	.word	0x40000000
     118:	4000c5a4 	.word	0x4000c5a4
     11c:	400008c0 	.word	0x400008c0
     120:	4000fffc 	.word	0x4000fffc

00000124 <__aeabi_uidiv>:
     124:	e2512001 	subs	r2, r1, #1
     128:	012fff1e 	bxeq	lr
     12c:	3a000036 	bcc	20c <__aeabi_uidiv+0xe8>
     130:	e1500001 	cmp	r0, r1
     134:	9a000022 	bls	1c4 <__aeabi_uidiv+0xa0>
     138:	e1110002 	tst	r1, r2
     13c:	0a000023 	beq	1d0 <__aeabi_uidiv+0xac>
     140:	e311020e 	tst	r1, #-536870912	; 0xe0000000
     144:	01a01181 	lsleq	r1, r1, #3
     148:	03a03008 	moveq	r3, #8
     14c:	13a03001 	movne	r3, #1
     150:	e3510201 	cmp	r1, #268435456	; 0x10000000
     154:	31510000 	cmpcc	r1, r0
     158:	31a01201 	lslcc	r1, r1, #4
     15c:	31a03203 	lslcc	r3, r3, #4
     160:	3afffffa 	bcc	150 <__aeabi_uidiv+0x2c>
     164:	e3510102 	cmp	r1, #-2147483648	; 0x80000000
     168:	31510000 	cmpcc	r1, r0
     16c:	31a01081 	lslcc	r1, r1, #1
     170:	31a03083 	lslcc	r3, r3, #1
     174:	3afffffa 	bcc	164 <__aeabi_uidiv+0x40>
     178:	e3a02000 	mov	r2, #0
     17c:	e1500001 	cmp	r0, r1
     180:	20400001 	subcs	r0, r0, r1
     184:	21822003 	orrcs	r2, r2, r3
     188:	e15000a1 	cmp	r0, r1, lsr #1
     18c:	204000a1 	subcs	r0, r0, r1, lsr #1
     190:	218220a3 	orrcs	r2, r2, r3, lsr #1
     194:	e1500121 	cmp	r0, r1, lsr #2
     198:	20400121 	subcs	r0, r0, r1, lsr #2
     19c:	21822123 	orrcs	r2, r2, r3, lsr #2
     1a0:	e15001a1 	cmp	r0, r1, lsr #3
     1a4:	204001a1 	subcs	r0, r0, r1, lsr #3
     1a8:	218221a3 	orrcs	r2, r2, r3, lsr #3
     1ac:	e3500000 	cmp	r0, #0
     1b0:	11b03223 	lsrsne	r3, r3, #4
     1b4:	11a01221 	lsrne	r1, r1, #4
     1b8:	1affffef 	bne	17c <__aeabi_uidiv+0x58>
     1bc:	e1a00002 	mov	r0, r2
     1c0:	e12fff1e 	bx	lr
     1c4:	03a00001 	moveq	r0, #1
     1c8:	13a00000 	movne	r0, #0
     1cc:	e12fff1e 	bx	lr
     1d0:	e3510801 	cmp	r1, #65536	; 0x10000
     1d4:	21a01821 	lsrcs	r1, r1, #16
     1d8:	23a02010 	movcs	r2, #16
     1dc:	33a02000 	movcc	r2, #0
     1e0:	e3510c01 	cmp	r1, #256	; 0x100
     1e4:	21a01421 	lsrcs	r1, r1, #8
     1e8:	22822008 	addcs	r2, r2, #8
     1ec:	e3510010 	cmp	r1, #16
     1f0:	21a01221 	lsrcs	r1, r1, #4
     1f4:	22822004 	addcs	r2, r2, #4
     1f8:	e3510004 	cmp	r1, #4
     1fc:	82822003 	addhi	r2, r2, #3
     200:	908220a1 	addls	r2, r2, r1, lsr #1
     204:	e1a00230 	lsr	r0, r0, r2
     208:	e12fff1e 	bx	lr
     20c:	e3500000 	cmp	r0, #0
     210:	13e00000 	mvnne	r0, #0
     214:	ea000059 	b	380 <__aeabi_idiv0>

00000218 <__aeabi_uidivmod>:
     218:	e3510000 	cmp	r1, #0
     21c:	0afffffa 	beq	20c <__aeabi_uidiv+0xe8>
     220:	e92d4003 	push	{r0, r1, lr}
     224:	ebffffbe 	bl	124 <__aeabi_uidiv>
     228:	e8bd4006 	pop	{r1, r2, lr}
     22c:	e0030092 	mul	r3, r2, r0
     230:	e0411003 	sub	r1, r1, r3
     234:	e12fff1e 	bx	lr

00000238 <__aeabi_idiv>:
     238:	e3510000 	cmp	r1, #0
     23c:	0a000043 	beq	350 <.divsi3_skip_div0_test+0x110>

00000240 <.divsi3_skip_div0_test>:
     240:	e020c001 	eor	ip, r0, r1
     244:	42611000 	rsbmi	r1, r1, #0
     248:	e2512001 	subs	r2, r1, #1
     24c:	0a000027 	beq	2f0 <.divsi3_skip_div0_test+0xb0>
     250:	e1b03000 	movs	r3, r0
     254:	42603000 	rsbmi	r3, r0, #0
     258:	e1530001 	cmp	r3, r1
     25c:	9a000026 	bls	2fc <.divsi3_skip_div0_test+0xbc>
     260:	e1110002 	tst	r1, r2
     264:	0a000028 	beq	30c <.divsi3_skip_div0_test+0xcc>
     268:	e311020e 	tst	r1, #-536870912	; 0xe0000000
     26c:	01a01181 	lsleq	r1, r1, #3
     270:	03a02008 	moveq	r2, #8
     274:	13a02001 	movne	r2, #1
     278:	e3510201 	cmp	r1, #268435456	; 0x10000000
     27c:	31510003 	cmpcc	r1, r3
     280:	31a01201 	lslcc	r1, r1, #4
     284:	31a02202 	lslcc	r2, r2, #4
     288:	3afffffa 	bcc	278 <.divsi3_skip_div0_test+0x38>
     28c:	e3510102 	cmp	r1, #-2147483648	; 0x80000000
     290:	31510003 	cmpcc	r1, r3
     294:	31a01081 	lslcc	r1, r1, #1
     298:	31a02082 	lslcc	r2, r2, #1
     29c:	3afffffa 	bcc	28c <.divsi3_skip_div0_test+0x4c>
     2a0:	e3a00000 	mov	r0, #0
     2a4:	e1530001 	cmp	r3, r1
     2a8:	20433001 	subcs	r3, r3, r1
     2ac:	21800002 	orrcs	r0, r0, r2
     2b0:	e15300a1 	cmp	r3, r1, lsr #1
     2b4:	204330a1 	subcs	r3, r3, r1, lsr #1
     2b8:	218000a2 	orrcs	r0, r0, r2, lsr #1
     2bc:	e1530121 	cmp	r3, r1, lsr #2
     2c0:	20433121 	subcs	r3, r3, r1, lsr #2
     2c4:	21800122 	orrcs	r0, r0, r2, lsr #2
     2c8:	e15301a1 	cmp	r3, r1, lsr #3
     2cc:	204331a1 	subcs	r3, r3, r1, lsr #3
     2d0:	218001a2 	orrcs	r0, r0, r2, lsr #3
     2d4:	e3530000 	cmp	r3, #0
     2d8:	11b02222 	lsrsne	r2, r2, #4
     2dc:	11a01221 	lsrne	r1, r1, #4
     2e0:	1affffef 	bne	2a4 <.divsi3_skip_div0_test+0x64>
     2e4:	e35c0000 	cmp	ip, #0
     2e8:	42600000 	rsbmi	r0, r0, #0
     2ec:	e12fff1e 	bx	lr
     2f0:	e13c0000 	teq	ip, r0
     2f4:	42600000 	rsbmi	r0, r0, #0
     2f8:	e12fff1e 	bx	lr
     2fc:	33a00000 	movcc	r0, #0
     300:	01a00fcc 	asreq	r0, ip, #31
     304:	03800001 	orreq	r0, r0, #1
     308:	e12fff1e 	bx	lr
     30c:	e3510801 	cmp	r1, #65536	; 0x10000
     310:	21a01821 	lsrcs	r1, r1, #16
     314:	23a02010 	movcs	r2, #16
     318:	33a02000 	movcc	r2, #0
     31c:	e3510c01 	cmp	r1, #256	; 0x100
     320:	21a01421 	lsrcs	r1, r1, #8
     324:	22822008 	addcs	r2, r2, #8
     328:	e3510010 	cmp	r1, #16
     32c:	21a01221 	lsrcs	r1, r1, #4
     330:	22822004 	addcs	r2, r2, #4
     334:	e3510004 	cmp	r1, #4
     338:	82822003 	addhi	r2, r2, #3
     33c:	908220a1 	addls	r2, r2, r1, lsr #1
     340:	e35c0000 	cmp	ip, #0
     344:	e1a00233 	lsr	r0, r3, r2
     348:	42600000 	rsbmi	r0, r0, #0
     34c:	e12fff1e 	bx	lr
     350:	e3500000 	cmp	r0, #0
     354:	c3e00102 	mvngt	r0, #-2147483648	; 0x80000000
     358:	b3a00102 	movlt	r0, #-2147483648	; 0x80000000
     35c:	ea000007 	b	380 <__aeabi_idiv0>

00000360 <__aeabi_idivmod>:
     360:	e3510000 	cmp	r1, #0
     364:	0afffff9 	beq	350 <.divsi3_skip_div0_test+0x110>
     368:	e92d4003 	push	{r0, r1, lr}
     36c:	ebffffb3 	bl	240 <.divsi3_skip_div0_test>
     370:	e8bd4006 	pop	{r1, r2, lr}
     374:	e0030092 	mul	r3, r2, r0
     378:	e0411003 	sub	r1, r1, r3
     37c:	e12fff1e 	bx	lr

00000380 <__aeabi_idiv0>:
     380:	e12fff1e 	bx	lr

00000384 <__aeabi_drsub>:
     384:	e2211102 	eor	r1, r1, #-2147483648	; 0x80000000
     388:	ea000000 	b	390 <__adddf3>

0000038c <__aeabi_dsub>:
     38c:	e2233102 	eor	r3, r3, #-2147483648	; 0x80000000

00000390 <__adddf3>:
     390:	e92d4030 	push	{r4, r5, lr}
     394:	e1a04081 	lsl	r4, r1, #1
     398:	e1a05083 	lsl	r5, r3, #1
     39c:	e1340005 	teq	r4, r5
     3a0:	01300002 	teqeq	r0, r2
     3a4:	1194c000 	orrsne	ip, r4, r0
     3a8:	1195c002 	orrsne	ip, r5, r2
     3ac:	11f0cac4 	mvnsne	ip, r4, asr #21
     3b0:	11f0cac5 	mvnsne	ip, r5, asr #21
     3b4:	0a00008c 	beq	5ec <__adddf3+0x25c>
     3b8:	e1a04aa4 	lsr	r4, r4, #21
     3bc:	e0745aa5 	rsbs	r5, r4, r5, lsr #21
     3c0:	b2655000 	rsblt	r5, r5, #0
     3c4:	da000006 	ble	3e4 <__adddf3+0x54>
     3c8:	e0844005 	add	r4, r4, r5
     3cc:	e0202002 	eor	r2, r0, r2
     3d0:	e0213003 	eor	r3, r1, r3
     3d4:	e0220000 	eor	r0, r2, r0
     3d8:	e0231001 	eor	r1, r3, r1
     3dc:	e0202002 	eor	r2, r0, r2
     3e0:	e0213003 	eor	r3, r1, r3
     3e4:	e3550036 	cmp	r5, #54	; 0x36
     3e8:	88bd4030 	pophi	{r4, r5, lr}
     3ec:	812fff1e 	bxhi	lr
     3f0:	e3110102 	tst	r1, #-2147483648	; 0x80000000
     3f4:	e1a01601 	lsl	r1, r1, #12
     3f8:	e3a0c601 	mov	ip, #1048576	; 0x100000
     3fc:	e18c1621 	orr	r1, ip, r1, lsr #12
     400:	0a000001 	beq	40c <__adddf3+0x7c>
     404:	e2700000 	rsbs	r0, r0, #0
     408:	e2e11000 	rsc	r1, r1, #0
     40c:	e3130102 	tst	r3, #-2147483648	; 0x80000000
     410:	e1a03603 	lsl	r3, r3, #12
     414:	e18c3623 	orr	r3, ip, r3, lsr #12
     418:	0a000001 	beq	424 <__adddf3+0x94>
     41c:	e2722000 	rsbs	r2, r2, #0
     420:	e2e33000 	rsc	r3, r3, #0
     424:	e1340005 	teq	r4, r5
     428:	0a000069 	beq	5d4 <__adddf3+0x244>
     42c:	e2444001 	sub	r4, r4, #1
     430:	e275e020 	rsbs	lr, r5, #32
     434:	ba000005 	blt	450 <__adddf3+0xc0>
     438:	e1a0ce12 	lsl	ip, r2, lr
     43c:	e0900532 	adds	r0, r0, r2, lsr r5
     440:	e2a11000 	adc	r1, r1, #0
     444:	e0900e13 	adds	r0, r0, r3, lsl lr
     448:	e0b11553 	adcs	r1, r1, r3, asr r5
     44c:	ea000006 	b	46c <__adddf3+0xdc>
     450:	e2455020 	sub	r5, r5, #32
     454:	e28ee020 	add	lr, lr, #32
     458:	e3520001 	cmp	r2, #1
     45c:	e1a0ce13 	lsl	ip, r3, lr
     460:	238cc002 	orrcs	ip, ip, #2
     464:	e0900553 	adds	r0, r0, r3, asr r5
     468:	e0b11fc3 	adcs	r1, r1, r3, asr #31
     46c:	e2015102 	and	r5, r1, #-2147483648	; 0x80000000
     470:	5a000002 	bpl	480 <__adddf3+0xf0>
     474:	e27cc000 	rsbs	ip, ip, #0
     478:	e2f00000 	rscs	r0, r0, #0
     47c:	e2e11000 	rsc	r1, r1, #0
     480:	e3510601 	cmp	r1, #1048576	; 0x100000
     484:	3a00000f 	bcc	4c8 <__adddf3+0x138>
     488:	e3510602 	cmp	r1, #2097152	; 0x200000
     48c:	3a000006 	bcc	4ac <__adddf3+0x11c>
     490:	e1b010a1 	lsrs	r1, r1, #1
     494:	e1b00060 	rrxs	r0, r0
     498:	e1a0c06c 	rrx	ip, ip
     49c:	e2844001 	add	r4, r4, #1
     4a0:	e1a02a84 	lsl	r2, r4, #21
     4a4:	e3720501 	cmn	r2, #4194304	; 0x400000
     4a8:	2a00006b 	bcs	65c <__adddf3+0x2cc>
     4ac:	e35c0102 	cmp	ip, #-2147483648	; 0x80000000
     4b0:	01b0c0a0 	lsrseq	ip, r0, #1
     4b4:	e2b00000 	adcs	r0, r0, #0
     4b8:	e0a11a04 	adc	r1, r1, r4, lsl #20
     4bc:	e1811005 	orr	r1, r1, r5
     4c0:	e8bd4030 	pop	{r4, r5, lr}
     4c4:	e12fff1e 	bx	lr
     4c8:	e1b0c08c 	lsls	ip, ip, #1
     4cc:	e0b00000 	adcs	r0, r0, r0
     4d0:	e0a11001 	adc	r1, r1, r1
     4d4:	e3110601 	tst	r1, #1048576	; 0x100000
     4d8:	e2444001 	sub	r4, r4, #1
     4dc:	1afffff2 	bne	4ac <__adddf3+0x11c>
     4e0:	e3310000 	teq	r1, #0
     4e4:	13a03014 	movne	r3, #20
     4e8:	03a03034 	moveq	r3, #52	; 0x34
     4ec:	01a01000 	moveq	r1, r0
     4f0:	03a00000 	moveq	r0, #0
     4f4:	e1a02001 	mov	r2, r1
     4f8:	e3520801 	cmp	r2, #65536	; 0x10000
     4fc:	21a02822 	lsrcs	r2, r2, #16
     500:	22433010 	subcs	r3, r3, #16
     504:	e3520c01 	cmp	r2, #256	; 0x100
     508:	21a02422 	lsrcs	r2, r2, #8
     50c:	22433008 	subcs	r3, r3, #8
     510:	e3520010 	cmp	r2, #16
     514:	21a02222 	lsrcs	r2, r2, #4
     518:	22433004 	subcs	r3, r3, #4
     51c:	e3520004 	cmp	r2, #4
     520:	22433002 	subcs	r3, r3, #2
     524:	304330a2 	subcc	r3, r3, r2, lsr #1
     528:	e04331a2 	sub	r3, r3, r2, lsr #3
     52c:	e2532020 	subs	r2, r3, #32
     530:	aa000007 	bge	554 <__adddf3+0x1c4>
     534:	e292200c 	adds	r2, r2, #12
     538:	da000004 	ble	550 <__adddf3+0x1c0>
     53c:	e282c014 	add	ip, r2, #20
     540:	e262200c 	rsb	r2, r2, #12
     544:	e1a00c11 	lsl	r0, r1, ip
     548:	e1a01231 	lsr	r1, r1, r2
     54c:	ea000004 	b	564 <__adddf3+0x1d4>
     550:	e2822014 	add	r2, r2, #20
     554:	d262c020 	rsble	ip, r2, #32
     558:	e1a01211 	lsl	r1, r1, r2
     55c:	d1811c30 	orrle	r1, r1, r0, lsr ip
     560:	d1a00210 	lslle	r0, r0, r2
     564:	e0544003 	subs	r4, r4, r3
     568:	a0811a04 	addge	r1, r1, r4, lsl #20
     56c:	a1811005 	orrge	r1, r1, r5
     570:	a8bd4030 	popge	{r4, r5, lr}
     574:	a12fff1e 	bxge	lr
     578:	e1e04004 	mvn	r4, r4
     57c:	e254401f 	subs	r4, r4, #31
     580:	aa00000f 	bge	5c4 <__adddf3+0x234>
     584:	e294400c 	adds	r4, r4, #12
     588:	ca000006 	bgt	5a8 <__adddf3+0x218>
     58c:	e2844014 	add	r4, r4, #20
     590:	e2642020 	rsb	r2, r4, #32
     594:	e1a00430 	lsr	r0, r0, r4
     598:	e1800211 	orr	r0, r0, r1, lsl r2
     59c:	e1851431 	orr	r1, r5, r1, lsr r4
     5a0:	e8bd4030 	pop	{r4, r5, lr}
     5a4:	e12fff1e 	bx	lr
     5a8:	e264400c 	rsb	r4, r4, #12
     5ac:	e2642020 	rsb	r2, r4, #32
     5b0:	e1a00230 	lsr	r0, r0, r2
     5b4:	e1800411 	orr	r0, r0, r1, lsl r4
     5b8:	e1a01005 	mov	r1, r5
     5bc:	e8bd4030 	pop	{r4, r5, lr}
     5c0:	e12fff1e 	bx	lr
     5c4:	e1a00431 	lsr	r0, r1, r4
     5c8:	e1a01005 	mov	r1, r5
     5cc:	e8bd4030 	pop	{r4, r5, lr}
     5d0:	e12fff1e 	bx	lr
     5d4:	e3340000 	teq	r4, #0
     5d8:	e2233601 	eor	r3, r3, #1048576	; 0x100000
     5dc:	02211601 	eoreq	r1, r1, #1048576	; 0x100000
     5e0:	02844001 	addeq	r4, r4, #1
     5e4:	12455001 	subne	r5, r5, #1
     5e8:	eaffff8f 	b	42c <__adddf3+0x9c>
     5ec:	e1f0cac4 	mvns	ip, r4, asr #21
     5f0:	11f0cac5 	mvnsne	ip, r5, asr #21
     5f4:	0a00001d 	beq	670 <__adddf3+0x2e0>
     5f8:	e1340005 	teq	r4, r5
     5fc:	01300002 	teqeq	r0, r2
     600:	0a000004 	beq	618 <__adddf3+0x288>
     604:	e194c000 	orrs	ip, r4, r0
     608:	01a01003 	moveq	r1, r3
     60c:	01a00002 	moveq	r0, r2
     610:	e8bd4030 	pop	{r4, r5, lr}
     614:	e12fff1e 	bx	lr
     618:	e1310003 	teq	r1, r3
     61c:	13a01000 	movne	r1, #0
     620:	13a00000 	movne	r0, #0
     624:	18bd4030 	popne	{r4, r5, lr}
     628:	112fff1e 	bxne	lr
     62c:	e1b0caa4 	lsrs	ip, r4, #21
     630:	1a000004 	bne	648 <__adddf3+0x2b8>
     634:	e1b00080 	lsls	r0, r0, #1
     638:	e0b11001 	adcs	r1, r1, r1
     63c:	23811102 	orrcs	r1, r1, #-2147483648	; 0x80000000
     640:	e8bd4030 	pop	{r4, r5, lr}
     644:	e12fff1e 	bx	lr
     648:	e2944501 	adds	r4, r4, #4194304	; 0x400000
     64c:	32811601 	addcc	r1, r1, #1048576	; 0x100000
     650:	38bd4030 	popcc	{r4, r5, lr}
     654:	312fff1e 	bxcc	lr
     658:	e2015102 	and	r5, r1, #-2147483648	; 0x80000000
     65c:	e385147f 	orr	r1, r5, #2130706432	; 0x7f000000
     660:	e381160f 	orr	r1, r1, #15728640	; 0xf00000
     664:	e3a00000 	mov	r0, #0
     668:	e8bd4030 	pop	{r4, r5, lr}
     66c:	e12fff1e 	bx	lr
     670:	e1f0cac4 	mvns	ip, r4, asr #21
     674:	11a01003 	movne	r1, r3
     678:	11a00002 	movne	r0, r2
     67c:	01f0cac5 	mvnseq	ip, r5, asr #21
     680:	11a03001 	movne	r3, r1
     684:	11a02000 	movne	r2, r0
     688:	e1904601 	orrs	r4, r0, r1, lsl #12
     68c:	01925603 	orrseq	r5, r2, r3, lsl #12
     690:	01310003 	teqeq	r1, r3
     694:	13811702 	orrne	r1, r1, #524288	; 0x80000
     698:	e8bd4030 	pop	{r4, r5, lr}
     69c:	e12fff1e 	bx	lr

000006a0 <__aeabi_ui2d>:
     6a0:	e3300000 	teq	r0, #0
     6a4:	03a01000 	moveq	r1, #0
     6a8:	012fff1e 	bxeq	lr
     6ac:	e92d4030 	push	{r4, r5, lr}
     6b0:	e3a04b01 	mov	r4, #1024	; 0x400
     6b4:	e2844032 	add	r4, r4, #50	; 0x32
     6b8:	e3a05000 	mov	r5, #0
     6bc:	e3a01000 	mov	r1, #0
     6c0:	eaffff86 	b	4e0 <__adddf3+0x150>

000006c4 <__aeabi_i2d>:
     6c4:	e3300000 	teq	r0, #0
     6c8:	03a01000 	moveq	r1, #0
     6cc:	012fff1e 	bxeq	lr
     6d0:	e92d4030 	push	{r4, r5, lr}
     6d4:	e3a04b01 	mov	r4, #1024	; 0x400
     6d8:	e2844032 	add	r4, r4, #50	; 0x32
     6dc:	e2105102 	ands	r5, r0, #-2147483648	; 0x80000000
     6e0:	42600000 	rsbmi	r0, r0, #0
     6e4:	e3a01000 	mov	r1, #0
     6e8:	eaffff7c 	b	4e0 <__adddf3+0x150>

000006ec <__aeabi_f2d>:
     6ec:	e1b02080 	lsls	r2, r0, #1
     6f0:	e1a011c2 	asr	r1, r2, #3
     6f4:	e1a01061 	rrx	r1, r1
     6f8:	e1a00e02 	lsl	r0, r2, #28
     6fc:	121234ff 	andsne	r3, r2, #-16777216	; 0xff000000
     700:	133304ff 	teqne	r3, #-16777216	; 0xff000000
     704:	1221130e 	eorne	r1, r1, #939524096	; 0x38000000
     708:	112fff1e 	bxne	lr
     70c:	e3320000 	teq	r2, #0
     710:	133304ff 	teqne	r3, #-16777216	; 0xff000000
     714:	012fff1e 	bxeq	lr
     718:	e92d4030 	push	{r4, r5, lr}
     71c:	e3a04d0e 	mov	r4, #896	; 0x380
     720:	e2015102 	and	r5, r1, #-2147483648	; 0x80000000
     724:	e3c11102 	bic	r1, r1, #-2147483648	; 0x80000000
     728:	eaffff6c 	b	4e0 <__adddf3+0x150>

0000072c <__aeabi_ul2d>:
     72c:	e1902001 	orrs	r2, r0, r1
     730:	012fff1e 	bxeq	lr
     734:	e92d4030 	push	{r4, r5, lr}
     738:	e3a05000 	mov	r5, #0
     73c:	ea000006 	b	75c <__aeabi_l2d+0x1c>

00000740 <__aeabi_l2d>:
     740:	e1902001 	orrs	r2, r0, r1
     744:	012fff1e 	bxeq	lr
     748:	e92d4030 	push	{r4, r5, lr}
     74c:	e2115102 	ands	r5, r1, #-2147483648	; 0x80000000
     750:	5a000001 	bpl	75c <__aeabi_l2d+0x1c>
     754:	e2700000 	rsbs	r0, r0, #0
     758:	e2e11000 	rsc	r1, r1, #0
     75c:	e3a04b01 	mov	r4, #1024	; 0x400
     760:	e2844032 	add	r4, r4, #50	; 0x32
     764:	e1b0cb21 	lsrs	ip, r1, #22
     768:	0affff44 	beq	480 <__adddf3+0xf0>
     76c:	e3a02003 	mov	r2, #3
     770:	e1b0c1ac 	lsrs	ip, ip, #3
     774:	12822003 	addne	r2, r2, #3
     778:	e1b0c1ac 	lsrs	ip, ip, #3
     77c:	12822003 	addne	r2, r2, #3
     780:	e08221ac 	add	r2, r2, ip, lsr #3
     784:	e2623020 	rsb	r3, r2, #32
     788:	e1a0c310 	lsl	ip, r0, r3
     78c:	e1a00230 	lsr	r0, r0, r2
     790:	e1800311 	orr	r0, r0, r1, lsl r3
     794:	e1a01231 	lsr	r1, r1, r2
     798:	e0844002 	add	r4, r4, r2
     79c:	eaffff37 	b	480 <__adddf3+0xf0>

000007a0 <__gedf2>:
     7a0:	e3e0c000 	mvn	ip, #0
     7a4:	ea000002 	b	7b4 <__cmpdf2+0x4>

000007a8 <__ledf2>:
     7a8:	e3a0c001 	mov	ip, #1
     7ac:	ea000000 	b	7b4 <__cmpdf2+0x4>

000007b0 <__cmpdf2>:
     7b0:	e3a0c001 	mov	ip, #1
     7b4:	e52dc004 	push	{ip}		; (str ip, [sp, #-4]!)
     7b8:	e1a0c081 	lsl	ip, r1, #1
     7bc:	e1f0cacc 	mvns	ip, ip, asr #21
     7c0:	e1a0c083 	lsl	ip, r3, #1
     7c4:	11f0cacc 	mvnsne	ip, ip, asr #21
     7c8:	0a00000e 	beq	808 <__cmpdf2+0x58>
     7cc:	e28dd004 	add	sp, sp, #4
     7d0:	e190c081 	orrs	ip, r0, r1, lsl #1
     7d4:	0192c083 	orrseq	ip, r2, r3, lsl #1
     7d8:	11310003 	teqne	r1, r3
     7dc:	01300002 	teqeq	r0, r2
     7e0:	03a00000 	moveq	r0, #0
     7e4:	012fff1e 	bxeq	lr
     7e8:	e3700000 	cmn	r0, #0
     7ec:	e1310003 	teq	r1, r3
     7f0:	51510003 	cmppl	r1, r3
     7f4:	01500002 	cmpeq	r0, r2
     7f8:	21a00fc3 	asrcs	r0, r3, #31
     7fc:	31e00fc3 	mvncc	r0, r3, asr #31
     800:	e3800001 	orr	r0, r0, #1
     804:	e12fff1e 	bx	lr
     808:	e1a0c081 	lsl	ip, r1, #1
     80c:	e1f0cacc 	mvns	ip, ip, asr #21
     810:	1a000001 	bne	81c <__cmpdf2+0x6c>
     814:	e190c601 	orrs	ip, r0, r1, lsl #12
     818:	1a000004 	bne	830 <__cmpdf2+0x80>
     81c:	e1a0c083 	lsl	ip, r3, #1
     820:	e1f0cacc 	mvns	ip, ip, asr #21
     824:	1affffe8 	bne	7cc <__cmpdf2+0x1c>
     828:	e192c603 	orrs	ip, r2, r3, lsl #12
     82c:	0affffe6 	beq	7cc <__cmpdf2+0x1c>
     830:	e49d0004 	pop	{r0}		; (ldr r0, [sp], #4)
     834:	e12fff1e 	bx	lr

00000838 <__aeabi_cdrcmple>:
     838:	e1a0c000 	mov	ip, r0
     83c:	e1a00002 	mov	r0, r2
     840:	e1a0200c 	mov	r2, ip
     844:	e1a0c001 	mov	ip, r1
     848:	e1a01003 	mov	r1, r3
     84c:	e1a0300c 	mov	r3, ip
     850:	eaffffff 	b	854 <__aeabi_cdcmpeq>

00000854 <__aeabi_cdcmpeq>:
     854:	e92d4001 	push	{r0, lr}
     858:	ebffffd4 	bl	7b0 <__cmpdf2>
     85c:	e3500000 	cmp	r0, #0
     860:	43700000 	cmnmi	r0, #0
     864:	e8bd4001 	pop	{r0, lr}
     868:	e12fff1e 	bx	lr

0000086c <__aeabi_dcmpeq>:
     86c:	e52de008 	str	lr, [sp, #-8]!
     870:	ebfffff7 	bl	854 <__aeabi_cdcmpeq>
     874:	03a00001 	moveq	r0, #1
     878:	13a00000 	movne	r0, #0
     87c:	e49de008 	ldr	lr, [sp], #8
     880:	e12fff1e 	bx	lr

00000884 <__aeabi_dcmplt>:
     884:	e52de008 	str	lr, [sp, #-8]!
     888:	ebfffff1 	bl	854 <__aeabi_cdcmpeq>
     88c:	33a00001 	movcc	r0, #1
     890:	23a00000 	movcs	r0, #0
     894:	e49de008 	ldr	lr, [sp], #8
     898:	e12fff1e 	bx	lr

0000089c <__aeabi_dcmple>:
     89c:	e52de008 	str	lr, [sp, #-8]!
     8a0:	ebffffeb 	bl	854 <__aeabi_cdcmpeq>
     8a4:	93a00001 	movls	r0, #1
     8a8:	83a00000 	movhi	r0, #0
     8ac:	e49de008 	ldr	lr, [sp], #8
     8b0:	e12fff1e 	bx	lr

000008b4 <__aeabi_dcmpge>:
     8b4:	e52de008 	str	lr, [sp, #-8]!
     8b8:	ebffffde 	bl	838 <__aeabi_cdrcmple>
     8bc:	93a00001 	movls	r0, #1
     8c0:	83a00000 	movhi	r0, #0
     8c4:	e49de008 	ldr	lr, [sp], #8
     8c8:	e12fff1e 	bx	lr

000008cc <__aeabi_dcmpgt>:
     8cc:	e52de008 	str	lr, [sp, #-8]!
     8d0:	ebffffd8 	bl	838 <__aeabi_cdrcmple>
     8d4:	33a00001 	movcc	r0, #1
     8d8:	23a00000 	movcs	r0, #0
     8dc:	e49de008 	ldr	lr, [sp], #8
     8e0:	e12fff1e 	bx	lr

000008e4 <__aeabi_d2f>:
     8e4:	e1a02081 	lsl	r2, r1, #1
     8e8:	e2523207 	subs	r3, r2, #1879048192	; 0x70000000
     8ec:	2253c602 	subscs	ip, r3, #2097152	; 0x200000
     8f0:	227cc57f 	rsbscs	ip, ip, #532676608	; 0x1fc00000
     8f4:	9a000006 	bls	914 <__aeabi_d2f+0x30>
     8f8:	e201c102 	and	ip, r1, #-2147483648	; 0x80000000
     8fc:	e1a02180 	lsl	r2, r0, #3
     900:	e18c0ea0 	orr	r0, ip, r0, lsr #29
     904:	e3520102 	cmp	r2, #-2147483648	; 0x80000000
     908:	e0a00103 	adc	r0, r0, r3, lsl #2
     90c:	03c00001 	biceq	r0, r0, #1
     910:	e12fff1e 	bx	lr
     914:	e3110101 	tst	r1, #1073741824	; 0x40000000
     918:	1a00000f 	bne	95c <__aeabi_d2f+0x78>
     91c:	e293262e 	adds	r2, r3, #48234496	; 0x2e00000
     920:	b2010102 	andlt	r0, r1, #-2147483648	; 0x80000000
     924:	b12fff1e 	bxlt	lr
     928:	e3811601 	orr	r1, r1, #1048576	; 0x100000
     92c:	e1a02aa2 	lsr	r2, r2, #21
     930:	e2622018 	rsb	r2, r2, #24
     934:	e262c020 	rsb	ip, r2, #32
     938:	e1b03c10 	lsls	r3, r0, ip
     93c:	e1a00230 	lsr	r0, r0, r2
     940:	13800001 	orrne	r0, r0, #1
     944:	e1a03581 	lsl	r3, r1, #11
     948:	e1a035a3 	lsr	r3, r3, #11
     94c:	e1800c13 	orr	r0, r0, r3, lsl ip
     950:	e1a03233 	lsr	r3, r3, r2
     954:	e1a03083 	lsl	r3, r3, #1
     958:	eaffffe6 	b	8f8 <__aeabi_d2f+0x14>
     95c:	e1f03ac2 	mvns	r3, r2, asr #21
     960:	1a000003 	bne	974 <__aeabi_d2f+0x90>
     964:	e1903601 	orrs	r3, r0, r1, lsl #12
     968:	13a0047f 	movne	r0, #2130706432	; 0x7f000000
     96c:	13800503 	orrne	r0, r0, #12582912	; 0xc00000
     970:	112fff1e 	bxne	lr
     974:	e2010102 	and	r0, r1, #-2147483648	; 0x80000000
     978:	e380047f 	orr	r0, r0, #2130706432	; 0x7f000000
     97c:	e3800502 	orr	r0, r0, #8388608	; 0x800000
     980:	e12fff1e 	bx	lr

00000984 <__aeabi_frsub>:
     984:	e2200102 	eor	r0, r0, #-2147483648	; 0x80000000
     988:	ea000000 	b	990 <__addsf3>

0000098c <__aeabi_fsub>:
     98c:	e2211102 	eor	r1, r1, #-2147483648	; 0x80000000

00000990 <__addsf3>:
     990:	e1b02080 	lsls	r2, r0, #1
     994:	11b03081 	lslsne	r3, r1, #1
     998:	11320003 	teqne	r2, r3
     99c:	11f0cc42 	mvnsne	ip, r2, asr #24
     9a0:	11f0cc43 	mvnsne	ip, r3, asr #24
     9a4:	0a000047 	beq	ac8 <__addsf3+0x138>
     9a8:	e1a02c22 	lsr	r2, r2, #24
     9ac:	e0723c23 	rsbs	r3, r2, r3, lsr #24
     9b0:	c0822003 	addgt	r2, r2, r3
     9b4:	c0201001 	eorgt	r1, r0, r1
     9b8:	c0210000 	eorgt	r0, r1, r0
     9bc:	c0201001 	eorgt	r1, r0, r1
     9c0:	b2633000 	rsblt	r3, r3, #0
     9c4:	e3530019 	cmp	r3, #25
     9c8:	812fff1e 	bxhi	lr
     9cc:	e3100102 	tst	r0, #-2147483648	; 0x80000000
     9d0:	e3800502 	orr	r0, r0, #8388608	; 0x800000
     9d4:	e3c004ff 	bic	r0, r0, #-16777216	; 0xff000000
     9d8:	12600000 	rsbne	r0, r0, #0
     9dc:	e3110102 	tst	r1, #-2147483648	; 0x80000000
     9e0:	e3811502 	orr	r1, r1, #8388608	; 0x800000
     9e4:	e3c114ff 	bic	r1, r1, #-16777216	; 0xff000000
     9e8:	12611000 	rsbne	r1, r1, #0
     9ec:	e1320003 	teq	r2, r3
     9f0:	0a00002e 	beq	ab0 <__addsf3+0x120>
     9f4:	e2422001 	sub	r2, r2, #1
     9f8:	e0900351 	adds	r0, r0, r1, asr r3
     9fc:	e2633020 	rsb	r3, r3, #32
     a00:	e1a01311 	lsl	r1, r1, r3
     a04:	e2003102 	and	r3, r0, #-2147483648	; 0x80000000
     a08:	5a000001 	bpl	a14 <__addsf3+0x84>
     a0c:	e2711000 	rsbs	r1, r1, #0
     a10:	e2e00000 	rsc	r0, r0, #0
     a14:	e3500502 	cmp	r0, #8388608	; 0x800000
     a18:	3a00000b 	bcc	a4c <__addsf3+0xbc>
     a1c:	e3500401 	cmp	r0, #16777216	; 0x1000000
     a20:	3a000004 	bcc	a38 <__addsf3+0xa8>
     a24:	e1b000a0 	lsrs	r0, r0, #1
     a28:	e1a01061 	rrx	r1, r1
     a2c:	e2822001 	add	r2, r2, #1
     a30:	e35200fe 	cmp	r2, #254	; 0xfe
     a34:	2a000038 	bcs	b1c <__addsf3+0x18c>
     a38:	e3510102 	cmp	r1, #-2147483648	; 0x80000000
     a3c:	e0a00b82 	adc	r0, r0, r2, lsl #23
     a40:	03c00001 	biceq	r0, r0, #1
     a44:	e1800003 	orr	r0, r0, r3
     a48:	e12fff1e 	bx	lr
     a4c:	e1b01081 	lsls	r1, r1, #1
     a50:	e0a00000 	adc	r0, r0, r0
     a54:	e3100502 	tst	r0, #8388608	; 0x800000
     a58:	e2422001 	sub	r2, r2, #1
     a5c:	1afffff5 	bne	a38 <__addsf3+0xa8>
     a60:	e1b0c620 	lsrs	ip, r0, #12
     a64:	01a00600 	lsleq	r0, r0, #12
     a68:	0242200c 	subeq	r2, r2, #12
     a6c:	e31008ff 	tst	r0, #16711680	; 0xff0000
     a70:	01a00400 	lsleq	r0, r0, #8
     a74:	02422008 	subeq	r2, r2, #8
     a78:	e310060f 	tst	r0, #15728640	; 0xf00000
     a7c:	01a00200 	lsleq	r0, r0, #4
     a80:	02422004 	subeq	r2, r2, #4
     a84:	e3100503 	tst	r0, #12582912	; 0xc00000
     a88:	01a00100 	lsleq	r0, r0, #2
     a8c:	02422002 	subeq	r2, r2, #2
     a90:	e3500502 	cmp	r0, #8388608	; 0x800000
     a94:	31a00080 	lslcc	r0, r0, #1
     a98:	e2d22000 	sbcs	r2, r2, #0
     a9c:	a0800b82 	addge	r0, r0, r2, lsl #23
     aa0:	b2622000 	rsblt	r2, r2, #0
     aa4:	a1800003 	orrge	r0, r0, r3
     aa8:	b1830230 	orrlt	r0, r3, r0, lsr r2
     aac:	e12fff1e 	bx	lr
     ab0:	e3320000 	teq	r2, #0
     ab4:	e2211502 	eor	r1, r1, #8388608	; 0x800000
     ab8:	02200502 	eoreq	r0, r0, #8388608	; 0x800000
     abc:	02822001 	addeq	r2, r2, #1
     ac0:	12433001 	subne	r3, r3, #1
     ac4:	eaffffca 	b	9f4 <__addsf3+0x64>
     ac8:	e1a03081 	lsl	r3, r1, #1
     acc:	e1f0cc42 	mvns	ip, r2, asr #24
     ad0:	11f0cc43 	mvnsne	ip, r3, asr #24
     ad4:	0a000013 	beq	b28 <__addsf3+0x198>
     ad8:	e1320003 	teq	r2, r3
     adc:	0a000002 	beq	aec <__addsf3+0x15c>
     ae0:	e3320000 	teq	r2, #0
     ae4:	01a00001 	moveq	r0, r1
     ae8:	e12fff1e 	bx	lr
     aec:	e1300001 	teq	r0, r1
     af0:	13a00000 	movne	r0, #0
     af4:	112fff1e 	bxne	lr
     af8:	e31204ff 	tst	r2, #-16777216	; 0xff000000
     afc:	1a000002 	bne	b0c <__addsf3+0x17c>
     b00:	e1b00080 	lsls	r0, r0, #1
     b04:	23800102 	orrcs	r0, r0, #-2147483648	; 0x80000000
     b08:	e12fff1e 	bx	lr
     b0c:	e2922402 	adds	r2, r2, #33554432	; 0x2000000
     b10:	32800502 	addcc	r0, r0, #8388608	; 0x800000
     b14:	312fff1e 	bxcc	lr
     b18:	e2003102 	and	r3, r0, #-2147483648	; 0x80000000
     b1c:	e383047f 	orr	r0, r3, #2130706432	; 0x7f000000
     b20:	e3800502 	orr	r0, r0, #8388608	; 0x800000
     b24:	e12fff1e 	bx	lr
     b28:	e1f02c42 	mvns	r2, r2, asr #24
     b2c:	11a00001 	movne	r0, r1
     b30:	01f03c43 	mvnseq	r3, r3, asr #24
     b34:	11a01000 	movne	r1, r0
     b38:	e1b02480 	lsls	r2, r0, #9
     b3c:	01b03481 	lslseq	r3, r1, #9
     b40:	01300001 	teqeq	r0, r1
     b44:	13800501 	orrne	r0, r0, #4194304	; 0x400000
     b48:	e12fff1e 	bx	lr

00000b4c <__aeabi_ui2f>:
     b4c:	e3a03000 	mov	r3, #0
     b50:	ea000001 	b	b5c <__aeabi_i2f+0x8>

00000b54 <__aeabi_i2f>:
     b54:	e2103102 	ands	r3, r0, #-2147483648	; 0x80000000
     b58:	42600000 	rsbmi	r0, r0, #0
     b5c:	e1b0c000 	movs	ip, r0
     b60:	012fff1e 	bxeq	lr
     b64:	e383344b 	orr	r3, r3, #1258291200	; 0x4b000000
     b68:	e1a01000 	mov	r1, r0
     b6c:	e3a00000 	mov	r0, #0
     b70:	ea00000f 	b	bb4 <__aeabi_l2f+0x30>

00000b74 <__aeabi_ul2f>:
     b74:	e1902001 	orrs	r2, r0, r1
     b78:	012fff1e 	bxeq	lr
     b7c:	e3a03000 	mov	r3, #0
     b80:	ea000005 	b	b9c <__aeabi_l2f+0x18>

00000b84 <__aeabi_l2f>:
     b84:	e1902001 	orrs	r2, r0, r1
     b88:	012fff1e 	bxeq	lr
     b8c:	e2113102 	ands	r3, r1, #-2147483648	; 0x80000000
     b90:	5a000001 	bpl	b9c <__aeabi_l2f+0x18>
     b94:	e2700000 	rsbs	r0, r0, #0
     b98:	e2e11000 	rsc	r1, r1, #0
     b9c:	e1b0c001 	movs	ip, r1
     ba0:	01a0c000 	moveq	ip, r0
     ba4:	01a01000 	moveq	r1, r0
     ba8:	03a00000 	moveq	r0, #0
     bac:	e383345b 	orr	r3, r3, #1526726656	; 0x5b000000
     bb0:	02433201 	subeq	r3, r3, #268435456	; 0x10000000
     bb4:	e2433502 	sub	r3, r3, #8388608	; 0x800000
     bb8:	e3a02017 	mov	r2, #23
     bbc:	e35c0801 	cmp	ip, #65536	; 0x10000
     bc0:	21a0c82c 	lsrcs	ip, ip, #16
     bc4:	22422010 	subcs	r2, r2, #16
     bc8:	e35c0c01 	cmp	ip, #256	; 0x100
     bcc:	21a0c42c 	lsrcs	ip, ip, #8
     bd0:	22422008 	subcs	r2, r2, #8
     bd4:	e35c0010 	cmp	ip, #16
     bd8:	21a0c22c 	lsrcs	ip, ip, #4
     bdc:	22422004 	subcs	r2, r2, #4
     be0:	e35c0004 	cmp	ip, #4
     be4:	22422002 	subcs	r2, r2, #2
     be8:	304220ac 	subcc	r2, r2, ip, lsr #1
     bec:	e05221ac 	subs	r2, r2, ip, lsr #3
     bf0:	e0433b82 	sub	r3, r3, r2, lsl #23
     bf4:	ba000006 	blt	c14 <__aeabi_l2f+0x90>
     bf8:	e0833211 	add	r3, r3, r1, lsl r2
     bfc:	e1a0c210 	lsl	ip, r0, r2
     c00:	e2622020 	rsb	r2, r2, #32
     c04:	e35c0102 	cmp	ip, #-2147483648	; 0x80000000
     c08:	e0a30230 	adc	r0, r3, r0, lsr r2
     c0c:	03c00001 	biceq	r0, r0, #1
     c10:	e12fff1e 	bx	lr
     c14:	e2822020 	add	r2, r2, #32
     c18:	e1a0c211 	lsl	ip, r1, r2
     c1c:	e2622020 	rsb	r2, r2, #32
     c20:	e190008c 	orrs	r0, r0, ip, lsl #1
     c24:	e0a30231 	adc	r0, r3, r1, lsr r2
     c28:	01c00fac 	biceq	r0, r0, ip, lsr #31
     c2c:	e12fff1e 	bx	lr

00000c30 <__aeabi_fmul>:
     c30:	e3a0c0ff 	mov	ip, #255	; 0xff
     c34:	e01c2ba0 	ands	r2, ip, r0, lsr #23
     c38:	101c3ba1 	andsne	r3, ip, r1, lsr #23
     c3c:	1132000c 	teqne	r2, ip
     c40:	1133000c 	teqne	r3, ip
     c44:	0a00003e 	beq	d44 <__aeabi_fmul+0x114>
     c48:	e0822003 	add	r2, r2, r3
     c4c:	e020c001 	eor	ip, r0, r1
     c50:	e1b00480 	lsls	r0, r0, #9
     c54:	11b01481 	lslsne	r1, r1, #9
     c58:	0a000010 	beq	ca0 <__aeabi_fmul+0x70>
     c5c:	e3a03302 	mov	r3, #134217728	; 0x8000000
     c60:	e18302a0 	orr	r0, r3, r0, lsr #5
     c64:	e18312a1 	orr	r1, r3, r1, lsr #5
     c68:	e0813190 	umull	r3, r1, r0, r1
     c6c:	e20c0102 	and	r0, ip, #-2147483648	; 0x80000000
     c70:	e3510502 	cmp	r1, #8388608	; 0x800000
     c74:	31a01081 	lslcc	r1, r1, #1
     c78:	31811fa3 	orrcc	r1, r1, r3, lsr #31
     c7c:	31a03083 	lslcc	r3, r3, #1
     c80:	e1800001 	orr	r0, r0, r1
     c84:	e2c2207f 	sbc	r2, r2, #127	; 0x7f
     c88:	e35200fd 	cmp	r2, #253	; 0xfd
     c8c:	8a00000f 	bhi	cd0 <__aeabi_fmul+0xa0>
     c90:	e3530102 	cmp	r3, #-2147483648	; 0x80000000
     c94:	e0a00b82 	adc	r0, r0, r2, lsl #23
     c98:	03c00001 	biceq	r0, r0, #1
     c9c:	e12fff1e 	bx	lr
     ca0:	e3300000 	teq	r0, #0
     ca4:	e20cc102 	and	ip, ip, #-2147483648	; 0x80000000
     ca8:	01a01481 	lsleq	r1, r1, #9
     cac:	e18c04a0 	orr	r0, ip, r0, lsr #9
     cb0:	e18004a1 	orr	r0, r0, r1, lsr #9
     cb4:	e252207f 	subs	r2, r2, #127	; 0x7f
     cb8:	c27230ff 	rsbsgt	r3, r2, #255	; 0xff
     cbc:	c1800b82 	orrgt	r0, r0, r2, lsl #23
     cc0:	c12fff1e 	bxgt	lr
     cc4:	e3800502 	orr	r0, r0, #8388608	; 0x800000
     cc8:	e3a03000 	mov	r3, #0
     ccc:	e2522001 	subs	r2, r2, #1
     cd0:	ca000035 	bgt	dac <__aeabi_fmul+0x17c>
     cd4:	e3720019 	cmn	r2, #25
     cd8:	d2000102 	andle	r0, r0, #-2147483648	; 0x80000000
     cdc:	d12fff1e 	bxle	lr
     ce0:	e2622000 	rsb	r2, r2, #0
     ce4:	e1b01080 	lsls	r1, r0, #1
     ce8:	e1a01231 	lsr	r1, r1, r2
     cec:	e2622020 	rsb	r2, r2, #32
     cf0:	e1a0c210 	lsl	ip, r0, r2
     cf4:	e1b00061 	rrxs	r0, r1
     cf8:	e2a00000 	adc	r0, r0, #0
     cfc:	e193308c 	orrs	r3, r3, ip, lsl #1
     d00:	01c00fac 	biceq	r0, r0, ip, lsr #31
     d04:	e12fff1e 	bx	lr
     d08:	e3320000 	teq	r2, #0
     d0c:	e200c102 	and	ip, r0, #-2147483648	; 0x80000000
     d10:	01a00080 	lsleq	r0, r0, #1
     d14:	03100502 	tsteq	r0, #8388608	; 0x800000
     d18:	02422001 	subeq	r2, r2, #1
     d1c:	0afffffb 	beq	d10 <__aeabi_fmul+0xe0>
     d20:	e180000c 	orr	r0, r0, ip
     d24:	e3330000 	teq	r3, #0
     d28:	e201c102 	and	ip, r1, #-2147483648	; 0x80000000
     d2c:	01a01081 	lsleq	r1, r1, #1
     d30:	03110502 	tsteq	r1, #8388608	; 0x800000
     d34:	02433001 	subeq	r3, r3, #1
     d38:	0afffffb 	beq	d2c <__aeabi_fmul+0xfc>
     d3c:	e181100c 	orr	r1, r1, ip
     d40:	eaffffc0 	b	c48 <__aeabi_fmul+0x18>
     d44:	e00c3ba1 	and	r3, ip, r1, lsr #23
     d48:	e132000c 	teq	r2, ip
     d4c:	1133000c 	teqne	r3, ip
     d50:	0a000005 	beq	d6c <__aeabi_fmul+0x13c>
     d54:	e3d0c102 	bics	ip, r0, #-2147483648	; 0x80000000
     d58:	13d1c102 	bicsne	ip, r1, #-2147483648	; 0x80000000
     d5c:	1affffe9 	bne	d08 <__aeabi_fmul+0xd8>
     d60:	e0200001 	eor	r0, r0, r1
     d64:	e2000102 	and	r0, r0, #-2147483648	; 0x80000000
     d68:	e12fff1e 	bx	lr
     d6c:	e3300000 	teq	r0, #0
     d70:	13300102 	teqne	r0, #-2147483648	; 0x80000000
     d74:	01a00001 	moveq	r0, r1
     d78:	13310000 	teqne	r1, #0
     d7c:	13310102 	teqne	r1, #-2147483648	; 0x80000000
     d80:	0a00000d 	beq	dbc <__aeabi_fmul+0x18c>
     d84:	e132000c 	teq	r2, ip
     d88:	1a000001 	bne	d94 <__aeabi_fmul+0x164>
     d8c:	e1b02480 	lsls	r2, r0, #9
     d90:	1a000009 	bne	dbc <__aeabi_fmul+0x18c>
     d94:	e133000c 	teq	r3, ip
     d98:	1a000002 	bne	da8 <__aeabi_fmul+0x178>
     d9c:	e1b03481 	lsls	r3, r1, #9
     da0:	11a00001 	movne	r0, r1
     da4:	1a000004 	bne	dbc <__aeabi_fmul+0x18c>
     da8:	e0200001 	eor	r0, r0, r1
     dac:	e2000102 	and	r0, r0, #-2147483648	; 0x80000000
     db0:	e380047f 	orr	r0, r0, #2130706432	; 0x7f000000
     db4:	e3800502 	orr	r0, r0, #8388608	; 0x800000
     db8:	e12fff1e 	bx	lr
     dbc:	e380047f 	orr	r0, r0, #2130706432	; 0x7f000000
     dc0:	e3800503 	orr	r0, r0, #12582912	; 0xc00000
     dc4:	e12fff1e 	bx	lr

00000dc8 <__aeabi_fdiv>:
     dc8:	e3a0c0ff 	mov	ip, #255	; 0xff
     dcc:	e01c2ba0 	ands	r2, ip, r0, lsr #23
     dd0:	101c3ba1 	andsne	r3, ip, r1, lsr #23
     dd4:	1132000c 	teqne	r2, ip
     dd8:	1133000c 	teqne	r3, ip
     ddc:	0a00003a 	beq	ecc <__aeabi_fdiv+0x104>
     de0:	e0422003 	sub	r2, r2, r3
     de4:	e020c001 	eor	ip, r0, r1
     de8:	e1b01481 	lsls	r1, r1, #9
     dec:	e1a00480 	lsl	r0, r0, #9
     df0:	0a00001c 	beq	e68 <__aeabi_fdiv+0xa0>
     df4:	e3a03201 	mov	r3, #268435456	; 0x10000000
     df8:	e1831221 	orr	r1, r3, r1, lsr #4
     dfc:	e1833220 	orr	r3, r3, r0, lsr #4
     e00:	e20c0102 	and	r0, ip, #-2147483648	; 0x80000000
     e04:	e1530001 	cmp	r3, r1
     e08:	31a03083 	lslcc	r3, r3, #1
     e0c:	e2a2207d 	adc	r2, r2, #125	; 0x7d
     e10:	e3a0c502 	mov	ip, #8388608	; 0x800000
     e14:	e1530001 	cmp	r3, r1
     e18:	20433001 	subcs	r3, r3, r1
     e1c:	2180000c 	orrcs	r0, r0, ip
     e20:	e15300a1 	cmp	r3, r1, lsr #1
     e24:	204330a1 	subcs	r3, r3, r1, lsr #1
     e28:	218000ac 	orrcs	r0, r0, ip, lsr #1
     e2c:	e1530121 	cmp	r3, r1, lsr #2
     e30:	20433121 	subcs	r3, r3, r1, lsr #2
     e34:	2180012c 	orrcs	r0, r0, ip, lsr #2
     e38:	e15301a1 	cmp	r3, r1, lsr #3
     e3c:	204331a1 	subcs	r3, r3, r1, lsr #3
     e40:	218001ac 	orrcs	r0, r0, ip, lsr #3
     e44:	e1b03203 	lsls	r3, r3, #4
     e48:	11b0c22c 	lsrsne	ip, ip, #4
     e4c:	1afffff0 	bne	e14 <__aeabi_fdiv+0x4c>
     e50:	e35200fd 	cmp	r2, #253	; 0xfd
     e54:	8affff9d 	bhi	cd0 <__aeabi_fmul+0xa0>
     e58:	e1530001 	cmp	r3, r1
     e5c:	e0a00b82 	adc	r0, r0, r2, lsl #23
     e60:	03c00001 	biceq	r0, r0, #1
     e64:	e12fff1e 	bx	lr
     e68:	e20cc102 	and	ip, ip, #-2147483648	; 0x80000000
     e6c:	e18c04a0 	orr	r0, ip, r0, lsr #9
     e70:	e292207f 	adds	r2, r2, #127	; 0x7f
     e74:	c27230ff 	rsbsgt	r3, r2, #255	; 0xff
     e78:	c1800b82 	orrgt	r0, r0, r2, lsl #23
     e7c:	c12fff1e 	bxgt	lr
     e80:	e3800502 	orr	r0, r0, #8388608	; 0x800000
     e84:	e3a03000 	mov	r3, #0
     e88:	e2522001 	subs	r2, r2, #1
     e8c:	eaffff8f 	b	cd0 <__aeabi_fmul+0xa0>
     e90:	e3320000 	teq	r2, #0
     e94:	e200c102 	and	ip, r0, #-2147483648	; 0x80000000
     e98:	01a00080 	lsleq	r0, r0, #1
     e9c:	03100502 	tsteq	r0, #8388608	; 0x800000
     ea0:	02422001 	subeq	r2, r2, #1
     ea4:	0afffffb 	beq	e98 <__aeabi_fdiv+0xd0>
     ea8:	e180000c 	orr	r0, r0, ip
     eac:	e3330000 	teq	r3, #0
     eb0:	e201c102 	and	ip, r1, #-2147483648	; 0x80000000
     eb4:	01a01081 	lsleq	r1, r1, #1
     eb8:	03110502 	tsteq	r1, #8388608	; 0x800000
     ebc:	02433001 	subeq	r3, r3, #1
     ec0:	0afffffb 	beq	eb4 <__aeabi_fdiv+0xec>
     ec4:	e181100c 	orr	r1, r1, ip
     ec8:	eaffffc4 	b	de0 <__aeabi_fdiv+0x18>
     ecc:	e00c3ba1 	and	r3, ip, r1, lsr #23
     ed0:	e132000c 	teq	r2, ip
     ed4:	1a000005 	bne	ef0 <__aeabi_fdiv+0x128>
     ed8:	e1b02480 	lsls	r2, r0, #9
     edc:	1affffb6 	bne	dbc <__aeabi_fmul+0x18c>
     ee0:	e133000c 	teq	r3, ip
     ee4:	1affffaf 	bne	da8 <__aeabi_fmul+0x178>
     ee8:	e1a00001 	mov	r0, r1
     eec:	eaffffb2 	b	dbc <__aeabi_fmul+0x18c>
     ef0:	e133000c 	teq	r3, ip
     ef4:	1a000003 	bne	f08 <__aeabi_fdiv+0x140>
     ef8:	e1b03481 	lsls	r3, r1, #9
     efc:	0affff97 	beq	d60 <__aeabi_fmul+0x130>
     f00:	e1a00001 	mov	r0, r1
     f04:	eaffffac 	b	dbc <__aeabi_fmul+0x18c>
     f08:	e3d0c102 	bics	ip, r0, #-2147483648	; 0x80000000
     f0c:	13d1c102 	bicsne	ip, r1, #-2147483648	; 0x80000000
     f10:	1affffde 	bne	e90 <__aeabi_fdiv+0xc8>
     f14:	e3d02102 	bics	r2, r0, #-2147483648	; 0x80000000
     f18:	1affffa2 	bne	da8 <__aeabi_fmul+0x178>
     f1c:	e3d13102 	bics	r3, r1, #-2147483648	; 0x80000000
     f20:	1affff8e 	bne	d60 <__aeabi_fmul+0x130>
     f24:	eaffffa4 	b	dbc <__aeabi_fmul+0x18c>

00000f28 <__aeabi_f2uiz>:
     f28:	e1b02080 	lsls	r2, r0, #1
     f2c:	2a000008 	bcs	f54 <__aeabi_f2uiz+0x2c>
     f30:	e352047f 	cmp	r2, #2130706432	; 0x7f000000
     f34:	3a000006 	bcc	f54 <__aeabi_f2uiz+0x2c>
     f38:	e3a0309e 	mov	r3, #158	; 0x9e
     f3c:	e0532c22 	subs	r2, r3, r2, lsr #24
     f40:	4a000005 	bmi	f5c <__aeabi_f2uiz+0x34>
     f44:	e1a03400 	lsl	r3, r0, #8
     f48:	e3833102 	orr	r3, r3, #-2147483648	; 0x80000000
     f4c:	e1a00233 	lsr	r0, r3, r2
     f50:	e12fff1e 	bx	lr
     f54:	e3a00000 	mov	r0, #0
     f58:	e12fff1e 	bx	lr
     f5c:	e3720061 	cmn	r2, #97	; 0x61
     f60:	1a000001 	bne	f6c <__aeabi_f2uiz+0x44>
     f64:	e1b02480 	lsls	r2, r0, #9
     f68:	1a000001 	bne	f74 <__aeabi_f2uiz+0x4c>
     f6c:	e3e00000 	mvn	r0, #0
     f70:	e12fff1e 	bx	lr
     f74:	e3a00000 	mov	r0, #0
     f78:	e12fff1e 	bx	lr

00000f7c <_printf_r>:
     f7c:	e92d000e 	push	{r1, r2, r3}
     f80:	e52de004 	push	{lr}		; (str lr, [sp, #-4]!)
     f84:	e24dd008 	sub	sp, sp, #8
     f88:	e28dc010 	add	ip, sp, #16
     f8c:	e5901008 	ldr	r1, [r0, #8]
     f90:	e59d200c 	ldr	r2, [sp, #12]
     f94:	e1a0300c 	mov	r3, ip
     f98:	e58dc004 	str	ip, [sp, #4]
     f9c:	eb00007d 	bl	1198 <_vfprintf_r>
     fa0:	e28dd008 	add	sp, sp, #8
     fa4:	e49de004 	pop	{lr}		; (ldr lr, [sp], #4)
     fa8:	e28dd00c 	add	sp, sp, #12
     fac:	e12fff1e 	bx	lr

00000fb0 <printf>:
     fb0:	e92d000f 	push	{r0, r1, r2, r3}
     fb4:	e52de004 	push	{lr}		; (str lr, [sp, #-4]!)
     fb8:	e59f302c 	ldr	r3, [pc, #44]	; fec <printf+0x3c>
     fbc:	e24dd00c 	sub	sp, sp, #12
     fc0:	e5930000 	ldr	r0, [r3]
     fc4:	e28dc014 	add	ip, sp, #20
     fc8:	e5901008 	ldr	r1, [r0, #8]
     fcc:	e59d2010 	ldr	r2, [sp, #16]
     fd0:	e1a0300c 	mov	r3, ip
     fd4:	e58dc004 	str	ip, [sp, #4]
     fd8:	eb00006e 	bl	1198 <_vfprintf_r>
     fdc:	e28dd00c 	add	sp, sp, #12
     fe0:	e49de004 	pop	{lr}		; (ldr lr, [sp], #4)
     fe4:	e28dd010 	add	sp, sp, #16
     fe8:	e12fff1e 	bx	lr
     fec:	40000000 	.word	0x40000000

00000ff0 <cleanup_glue>:
     ff0:	e92d4038 	push	{r3, r4, r5, lr}
     ff4:	e1a04001 	mov	r4, r1
     ff8:	e5911000 	ldr	r1, [r1]
     ffc:	e3510000 	cmp	r1, #0
    1000:	e1a05000 	mov	r5, r0
    1004:	1bfffff9 	blne	ff0 <cleanup_glue>
    1008:	e1a00005 	mov	r0, r5
    100c:	e1a01004 	mov	r1, r4
    1010:	eb00110b 	bl	5444 <_free_r>
    1014:	e8bd4038 	pop	{r3, r4, r5, lr}
    1018:	e12fff1e 	bx	lr

0000101c <_reclaim_reent>:
    101c:	e59f30fc 	ldr	r3, [pc, #252]	; 1120 <_reclaim_reent+0x104>
    1020:	e5933000 	ldr	r3, [r3]
    1024:	e1500003 	cmp	r0, r3
    1028:	e92d4070 	push	{r4, r5, r6, lr}
    102c:	e1a05000 	mov	r5, r0
    1030:	0a00002e 	beq	10f0 <_reclaim_reent+0xd4>
    1034:	e590304c 	ldr	r3, [r0, #76]	; 0x4c
    1038:	e3530000 	cmp	r3, #0
    103c:	0a000013 	beq	1090 <_reclaim_reent+0x74>
    1040:	e3a02000 	mov	r2, #0
    1044:	e1a06002 	mov	r6, r2
    1048:	e7931102 	ldr	r1, [r3, r2, lsl #2]
    104c:	e3510000 	cmp	r1, #0
    1050:	1a000001 	bne	105c <_reclaim_reent+0x40>
    1054:	ea000006 	b	1074 <_reclaim_reent+0x58>
    1058:	e1a01004 	mov	r1, r4
    105c:	e5914000 	ldr	r4, [r1]
    1060:	e1a00005 	mov	r0, r5
    1064:	eb0010f6 	bl	5444 <_free_r>
    1068:	e3540000 	cmp	r4, #0
    106c:	1afffff9 	bne	1058 <_reclaim_reent+0x3c>
    1070:	e595304c 	ldr	r3, [r5, #76]	; 0x4c
    1074:	e2866001 	add	r6, r6, #1
    1078:	e3560020 	cmp	r6, #32
    107c:	e1a02006 	mov	r2, r6
    1080:	1afffff0 	bne	1048 <_reclaim_reent+0x2c>
    1084:	e1a00005 	mov	r0, r5
    1088:	e1a01003 	mov	r1, r3
    108c:	eb0010ec 	bl	5444 <_free_r>
    1090:	e5951040 	ldr	r1, [r5, #64]	; 0x40
    1094:	e3510000 	cmp	r1, #0
    1098:	11a00005 	movne	r0, r5
    109c:	1b0010e8 	blne	5444 <_free_r>
    10a0:	e5951148 	ldr	r1, [r5, #328]	; 0x148
    10a4:	e3510000 	cmp	r1, #0
    10a8:	0a000009 	beq	10d4 <_reclaim_reent+0xb8>
    10ac:	e2856f53 	add	r6, r5, #332	; 0x14c
    10b0:	e1510006 	cmp	r1, r6
    10b4:	1a000001 	bne	10c0 <_reclaim_reent+0xa4>
    10b8:	ea000005 	b	10d4 <_reclaim_reent+0xb8>
    10bc:	e1a01004 	mov	r1, r4
    10c0:	e5914000 	ldr	r4, [r1]
    10c4:	e1a00005 	mov	r0, r5
    10c8:	eb0010dd 	bl	5444 <_free_r>
    10cc:	e1560004 	cmp	r6, r4
    10d0:	1afffff9 	bne	10bc <_reclaim_reent+0xa0>
    10d4:	e5951054 	ldr	r1, [r5, #84]	; 0x54
    10d8:	e3510000 	cmp	r1, #0
    10dc:	11a00005 	movne	r0, r5
    10e0:	1b0010d7 	blne	5444 <_free_r>
    10e4:	e5953038 	ldr	r3, [r5, #56]	; 0x38
    10e8:	e3530000 	cmp	r3, #0
    10ec:	1a000001 	bne	10f8 <_reclaim_reent+0xdc>
    10f0:	e8bd4070 	pop	{r4, r5, r6, lr}
    10f4:	e12fff1e 	bx	lr
    10f8:	e1a00005 	mov	r0, r5
    10fc:	e595c03c 	ldr	ip, [r5, #60]	; 0x3c
    1100:	e1a0e00f 	mov	lr, pc
    1104:	e12fff1c 	bx	ip
    1108:	e59512e0 	ldr	r1, [r5, #736]	; 0x2e0
    110c:	e3510000 	cmp	r1, #0
    1110:	0afffff6 	beq	10f0 <_reclaim_reent+0xd4>
    1114:	e1a00005 	mov	r0, r5
    1118:	e8bd4070 	pop	{r4, r5, r6, lr}
    111c:	eaffffb3 	b	ff0 <cleanup_glue>
    1120:	40000000 	.word	0x40000000

00001124 <_wrapup_reent>:
    1124:	e92d40f8 	push	{r3, r4, r5, r6, r7, lr}
    1128:	e2507000 	subs	r7, r0, #0
    112c:	059f3060 	ldreq	r3, [pc, #96]	; 1194 <_wrapup_reent+0x70>
    1130:	05937000 	ldreq	r7, [r3]
    1134:	e5976148 	ldr	r6, [r7, #328]	; 0x148
    1138:	e3560000 	cmp	r6, #0
    113c:	0a00000d 	beq	1178 <_wrapup_reent+0x54>
    1140:	e5965004 	ldr	r5, [r6, #4]
    1144:	e2554001 	subs	r4, r5, #1
    1148:	4a000007 	bmi	116c <_wrapup_reent+0x48>
    114c:	e2855002 	add	r5, r5, #2
    1150:	e0865105 	add	r5, r6, r5, lsl #2
    1154:	e5353004 	ldr	r3, [r5, #-4]!
    1158:	e2444001 	sub	r4, r4, #1
    115c:	e1a0e00f 	mov	lr, pc
    1160:	e12fff13 	bx	r3
    1164:	e3740001 	cmn	r4, #1
    1168:	1afffff9 	bne	1154 <_wrapup_reent+0x30>
    116c:	e5966000 	ldr	r6, [r6]
    1170:	e3560000 	cmp	r6, #0
    1174:	1afffff1 	bne	1140 <_wrapup_reent+0x1c>
    1178:	e597303c 	ldr	r3, [r7, #60]	; 0x3c
    117c:	e3530000 	cmp	r3, #0
    1180:	11a00007 	movne	r0, r7
    1184:	11a0e00f 	movne	lr, pc
    1188:	112fff13 	bxne	r3
    118c:	e8bd40f8 	pop	{r3, r4, r5, r6, r7, lr}
    1190:	e12fff1e 	bx	lr
    1194:	40000000 	.word	0x40000000

00001198 <_vfprintf_r>:
    1198:	e92d4ff0 	push	{r4, r5, r6, r7, r8, r9, sl, fp, lr}
    119c:	e24dde57 	sub	sp, sp, #1392	; 0x570
    11a0:	e24dd004 	sub	sp, sp, #4
    11a4:	e1a09001 	mov	r9, r1
    11a8:	e1a0b002 	mov	fp, r2
    11ac:	e58d303c 	str	r3, [sp, #60]	; 0x3c
    11b0:	e58d002c 	str	r0, [sp, #44]	; 0x2c
    11b4:	eb0011a5 	bl	5850 <_localeconv_r>
    11b8:	e5900000 	ldr	r0, [r0]
    11bc:	e58d0058 	str	r0, [sp, #88]	; 0x58
    11c0:	eb0018f5 	bl	759c <strlen>
    11c4:	e59d402c 	ldr	r4, [sp, #44]	; 0x2c
    11c8:	e58d0068 	str	r0, [sp, #104]	; 0x68
    11cc:	e3a01000 	mov	r1, #0
    11d0:	e3a00000 	mov	r0, #0
    11d4:	e3540000 	cmp	r4, #0
    11d8:	e58d0060 	str	r0, [sp, #96]	; 0x60
    11dc:	e58d1064 	str	r1, [sp, #100]	; 0x64
    11e0:	0a000002 	beq	11f0 <_vfprintf_r+0x58>
    11e4:	e5943038 	ldr	r3, [r4, #56]	; 0x38
    11e8:	e3530000 	cmp	r3, #0
    11ec:	0a000108 	beq	1614 <_vfprintf_r+0x47c>
    11f0:	e1d930bc 	ldrh	r3, [r9, #12]
    11f4:	e3130a02 	tst	r3, #8192	; 0x2000
    11f8:	e1a02003 	mov	r2, r3
    11fc:	1a000005 	bne	1218 <_vfprintf_r+0x80>
    1200:	e5992064 	ldr	r2, [r9, #100]	; 0x64
    1204:	e3833a02 	orr	r3, r3, #8192	; 0x2000
    1208:	e3c22a02 	bic	r2, r2, #8192	; 0x2000
    120c:	e1c930bc 	strh	r3, [r9, #12]
    1210:	e5892064 	str	r2, [r9, #100]	; 0x64
    1214:	e1a02003 	mov	r2, r3
    1218:	e3120008 	tst	r2, #8
    121c:	0a0000a7 	beq	14c0 <_vfprintf_r+0x328>
    1220:	e5991010 	ldr	r1, [r9, #16]
    1224:	e3510000 	cmp	r1, #0
    1228:	0a0000a4 	beq	14c0 <_vfprintf_r+0x328>
    122c:	e202201a 	and	r2, r2, #26
    1230:	e352000a 	cmp	r2, #10
    1234:	0a0000ad 	beq	14f0 <_vfprintf_r+0x358>
    1238:	e28dcd15 	add	ip, sp, #1344	; 0x540
    123c:	e28cc00c 	add	ip, ip, #12
    1240:	e28d8e4e 	add	r8, sp, #1248	; 0x4e0
    1244:	e2888004 	add	r8, r8, #4
    1248:	e58dc020 	str	ip, [sp, #32]
    124c:	e28d4d15 	add	r4, sp, #1344	; 0x540
    1250:	e58d854c 	str	r8, [sp, #1356]	; 0x54c
    1254:	e1a06008 	mov	r6, r8
    1258:	e59d8020 	ldr	r8, [sp, #32]
    125c:	e284400b 	add	r4, r4, #11
    1260:	e3a03000 	mov	r3, #0
    1264:	e58d401c 	str	r4, [sp, #28]
    1268:	e0644008 	rsb	r4, r4, r8
    126c:	e58d3040 	str	r3, [sp, #64]	; 0x40
    1270:	e58d3554 	str	r3, [sp, #1364]	; 0x554
    1274:	e58d3550 	str	r3, [sp, #1360]	; 0x550
    1278:	e58d3070 	str	r3, [sp, #112]	; 0x70
    127c:	e58d306c 	str	r3, [sp, #108]	; 0x6c
    1280:	e58d3030 	str	r3, [sp, #48]	; 0x30
    1284:	e58d4074 	str	r4, [sp, #116]	; 0x74
    1288:	e5db3000 	ldrb	r3, [fp]
    128c:	e3530000 	cmp	r3, #0
    1290:	13530025 	cmpne	r3, #37	; 0x25
    1294:	0a0000e1 	beq	1620 <_vfprintf_r+0x488>
    1298:	e1a0200b 	mov	r2, fp
    129c:	e1a0700b 	mov	r7, fp
    12a0:	e5f23001 	ldrb	r3, [r2, #1]!
    12a4:	e3530025 	cmp	r3, #37	; 0x25
    12a8:	13530000 	cmpne	r3, #0
    12ac:	e2877001 	add	r7, r7, #1
    12b0:	1afffffa 	bne	12a0 <_vfprintf_r+0x108>
    12b4:	e057800b 	subs	r8, r7, fp
    12b8:	0a00000d 	beq	12f4 <_vfprintf_r+0x15c>
    12bc:	e28d4e55 	add	r4, sp, #1360	; 0x550
    12c0:	e8940030 	ldm	r4, {r4, r5}
    12c4:	e2844001 	add	r4, r4, #1
    12c8:	e0855008 	add	r5, r5, r8
    12cc:	e3540007 	cmp	r4, #7
    12d0:	e586b000 	str	fp, [r6]
    12d4:	e5868004 	str	r8, [r6, #4]
    12d8:	e58d5554 	str	r5, [sp, #1364]	; 0x554
    12dc:	e58d4550 	str	r4, [sp, #1360]	; 0x550
    12e0:	d2866008 	addle	r6, r6, #8
    12e4:	ca0000b2 	bgt	15b4 <_vfprintf_r+0x41c>
    12e8:	e59dc030 	ldr	ip, [sp, #48]	; 0x30
    12ec:	e08cc008 	add	ip, ip, r8
    12f0:	e58dc030 	str	ip, [sp, #48]	; 0x30
    12f4:	e5d73000 	ldrb	r3, [r7]
    12f8:	e3530000 	cmp	r3, #0
    12fc:	0a0000b6 	beq	15dc <_vfprintf_r+0x444>
    1300:	e3a03000 	mov	r3, #0
    1304:	e58d3034 	str	r3, [sp, #52]	; 0x34
    1308:	e5cd356f 	strb	r3, [sp, #1391]	; 0x56f
    130c:	e58d3024 	str	r3, [sp, #36]	; 0x24
    1310:	e287b001 	add	fp, r7, #1
    1314:	e5d72001 	ldrb	r2, [r7, #1]
    1318:	e3a04020 	mov	r4, #32
    131c:	e3e07000 	mvn	r7, #0
    1320:	e3a0102b 	mov	r1, #43	; 0x2b
    1324:	e28bb001 	add	fp, fp, #1
    1328:	e2423020 	sub	r3, r2, #32
    132c:	e3530058 	cmp	r3, #88	; 0x58
    1330:	979ff103 	ldrls	pc, [pc, r3, lsl #2]
    1334:	ea00020c 	b	1b6c <_vfprintf_r+0x9d4>
    1338:	00001bac 	.word	0x00001bac
    133c:	00001b6c 	.word	0x00001b6c
    1340:	00001b6c 	.word	0x00001b6c
    1344:	00001bc4 	.word	0x00001bc4
    1348:	00001b6c 	.word	0x00001b6c
    134c:	00001b6c 	.word	0x00001b6c
    1350:	00001b6c 	.word	0x00001b6c
    1354:	00001b6c 	.word	0x00001b6c
    1358:	00001b6c 	.word	0x00001b6c
    135c:	00001b6c 	.word	0x00001b6c
    1360:	00001bd8 	.word	0x00001bd8
    1364:	00001628 	.word	0x00001628
    1368:	00001b6c 	.word	0x00001b6c
    136c:	000014ac 	.word	0x000014ac
    1370:	00001634 	.word	0x00001634
    1374:	00001b6c 	.word	0x00001b6c
    1378:	00001680 	.word	0x00001680
    137c:	00001694 	.word	0x00001694
    1380:	00001694 	.word	0x00001694
    1384:	00001694 	.word	0x00001694
    1388:	00001694 	.word	0x00001694
    138c:	00001694 	.word	0x00001694
    1390:	00001694 	.word	0x00001694
    1394:	00001694 	.word	0x00001694
    1398:	00001694 	.word	0x00001694
    139c:	00001694 	.word	0x00001694
    13a0:	00001b6c 	.word	0x00001b6c
    13a4:	00001b6c 	.word	0x00001b6c
    13a8:	00001b6c 	.word	0x00001b6c
    13ac:	00001b6c 	.word	0x00001b6c
    13b0:	00001b6c 	.word	0x00001b6c
    13b4:	00001b6c 	.word	0x00001b6c
    13b8:	00001b6c 	.word	0x00001b6c
    13bc:	00001b6c 	.word	0x00001b6c
    13c0:	00001b6c 	.word	0x00001b6c
    13c4:	00001b6c 	.word	0x00001b6c
    13c8:	000016c4 	.word	0x000016c4
    13cc:	000018f0 	.word	0x000018f0
    13d0:	00001b6c 	.word	0x00001b6c
    13d4:	000018f0 	.word	0x000018f0
    13d8:	00001b6c 	.word	0x00001b6c
    13dc:	00001b6c 	.word	0x00001b6c
    13e0:	00001b6c 	.word	0x00001b6c
    13e4:	00001b6c 	.word	0x00001b6c
    13e8:	000019a0 	.word	0x000019a0
    13ec:	00001b6c 	.word	0x00001b6c
    13f0:	00001b6c 	.word	0x00001b6c
    13f4:	000019b4 	.word	0x000019b4
    13f8:	00001b6c 	.word	0x00001b6c
    13fc:	00001b6c 	.word	0x00001b6c
    1400:	00001b6c 	.word	0x00001b6c
    1404:	00001b6c 	.word	0x00001b6c
    1408:	00001b6c 	.word	0x00001b6c
    140c:	00001a04 	.word	0x00001a04
    1410:	00001b6c 	.word	0x00001b6c
    1414:	00001b6c 	.word	0x00001b6c
    1418:	00001a4c 	.word	0x00001a4c
    141c:	00001b6c 	.word	0x00001b6c
    1420:	00001b6c 	.word	0x00001b6c
    1424:	00001b6c 	.word	0x00001b6c
    1428:	00001b6c 	.word	0x00001b6c
    142c:	00001b6c 	.word	0x00001b6c
    1430:	00001b6c 	.word	0x00001b6c
    1434:	00001b6c 	.word	0x00001b6c
    1438:	00001b6c 	.word	0x00001b6c
    143c:	00001b6c 	.word	0x00001b6c
    1440:	00001b6c 	.word	0x00001b6c
    1444:	00001d5c 	.word	0x00001d5c
    1448:	00001d08 	.word	0x00001d08
    144c:	000018f0 	.word	0x000018f0
    1450:	000018f0 	.word	0x000018f0
    1454:	000018f0 	.word	0x000018f0
    1458:	00001d48 	.word	0x00001d48
    145c:	00001d08 	.word	0x00001d08
    1460:	00001b6c 	.word	0x00001b6c
    1464:	00001b6c 	.word	0x00001b6c
    1468:	00001ac8 	.word	0x00001ac8
    146c:	00001b6c 	.word	0x00001b6c
    1470:	00001af8 	.word	0x00001af8
    1474:	00001b28 	.word	0x00001b28
    1478:	00001d9c 	.word	0x00001d9c
    147c:	00001ab4 	.word	0x00001ab4
    1480:	00001b6c 	.word	0x00001b6c
    1484:	00001c88 	.word	0x00001c88
    1488:	00001b6c 	.word	0x00001b6c
    148c:	00001c00 	.word	0x00001c00
    1490:	00001b6c 	.word	0x00001b6c
    1494:	00001b6c 	.word	0x00001b6c
    1498:	00001c44 	.word	0x00001c44
    149c:	e59dc034 	ldr	ip, [sp, #52]	; 0x34
    14a0:	e26cc000 	rsb	ip, ip, #0
    14a4:	e58dc034 	str	ip, [sp, #52]	; 0x34
    14a8:	e58d303c 	str	r3, [sp, #60]	; 0x3c
    14ac:	e59d8024 	ldr	r8, [sp, #36]	; 0x24
    14b0:	e3888004 	orr	r8, r8, #4
    14b4:	e58d8024 	str	r8, [sp, #36]	; 0x24
    14b8:	e5db2000 	ldrb	r2, [fp]
    14bc:	eaffff98 	b	1324 <_vfprintf_r+0x18c>
    14c0:	e59d002c 	ldr	r0, [sp, #44]	; 0x2c
    14c4:	e1a01009 	mov	r1, r9
    14c8:	eb0007de 	bl	3448 <__swsetup_r>
    14cc:	e3500000 	cmp	r0, #0
    14d0:	13e08000 	mvnne	r8, #0
    14d4:	158d8030 	strne	r8, [sp, #48]	; 0x30
    14d8:	1a000030 	bne	15a0 <_vfprintf_r+0x408>
    14dc:	e1d930bc 	ldrh	r3, [r9, #12]
    14e0:	e1a02003 	mov	r2, r3
    14e4:	e202201a 	and	r2, r2, #26
    14e8:	e352000a 	cmp	r2, #10
    14ec:	1affff51 	bne	1238 <_vfprintf_r+0xa0>
    14f0:	e1d9c0be 	ldrh	ip, [r9, #14]
    14f4:	e31c0902 	tst	ip, #32768	; 0x8000
    14f8:	1affff4e 	bne	1238 <_vfprintf_r+0xa0>
    14fc:	e3a04b01 	mov	r4, #1024	; 0x400
    1500:	e08d8004 	add	r8, sp, r4
    1504:	e3c3e002 	bic	lr, r3, #2
    1508:	e5995064 	ldr	r5, [r9, #100]	; 0x64
    150c:	e599601c 	ldr	r6, [r9, #28]
    1510:	e5997024 	ldr	r7, [r9, #36]	; 0x24
    1514:	e1c8c8ba 	strh	ip, [r8, #138]	; 0x8a
    1518:	e28d1e47 	add	r1, sp, #1136	; 0x470
    151c:	e28dc07c 	add	ip, sp, #124	; 0x7c
    1520:	e58dc47c 	str	ip, [sp, #1148]	; 0x47c
    1524:	e58dc48c 	str	ip, [sp, #1164]	; 0x48c
    1528:	e59d002c 	ldr	r0, [sp, #44]	; 0x2c
    152c:	e3a0c000 	mov	ip, #0
    1530:	e281100c 	add	r1, r1, #12
    1534:	e1a0200b 	mov	r2, fp
    1538:	e59d303c 	ldr	r3, [sp, #60]	; 0x3c
    153c:	e1c8e8b8 	strh	lr, [r8, #136]	; 0x88
    1540:	e58d54e0 	str	r5, [sp, #1248]	; 0x4e0
    1544:	e58d6498 	str	r6, [sp, #1176]	; 0x498
    1548:	e58d74a0 	str	r7, [sp, #1184]	; 0x4a0
    154c:	e58d4484 	str	r4, [sp, #1156]	; 0x484
    1550:	e58d4490 	str	r4, [sp, #1168]	; 0x490
    1554:	e58dc494 	str	ip, [sp, #1172]	; 0x494
    1558:	ebffff0e 	bl	1198 <_vfprintf_r>
    155c:	e3500000 	cmp	r0, #0
    1560:	e58d0030 	str	r0, [sp, #48]	; 0x30
    1564:	ba000007 	blt	1588 <_vfprintf_r+0x3f0>
    1568:	e28d1e47 	add	r1, sp, #1136	; 0x470
    156c:	e59d002c 	ldr	r0, [sp, #44]	; 0x2c
    1570:	e281100c 	add	r1, r1, #12
    1574:	eb000e17 	bl	4dd8 <_fflush_r>
    1578:	e59d4030 	ldr	r4, [sp, #48]	; 0x30
    157c:	e3500000 	cmp	r0, #0
    1580:	13e04000 	mvnne	r4, #0
    1584:	e58d4030 	str	r4, [sp, #48]	; 0x30
    1588:	e28d8b01 	add	r8, sp, #1024	; 0x400
    158c:	e1d838b8 	ldrh	r3, [r8, #136]	; 0x88
    1590:	e3130040 	tst	r3, #64	; 0x40
    1594:	11d930bc 	ldrhne	r3, [r9, #12]
    1598:	13833040 	orrne	r3, r3, #64	; 0x40
    159c:	11c930bc 	strhne	r3, [r9, #12]
    15a0:	e59d0030 	ldr	r0, [sp, #48]	; 0x30
    15a4:	e28ddf5d 	add	sp, sp, #372	; 0x174
    15a8:	e28ddb01 	add	sp, sp, #1024	; 0x400
    15ac:	e8bd4ff0 	pop	{r4, r5, r6, r7, r8, r9, sl, fp, lr}
    15b0:	e12fff1e 	bx	lr
    15b4:	e28d2d15 	add	r2, sp, #1344	; 0x540
    15b8:	e59d002c 	ldr	r0, [sp, #44]	; 0x2c
    15bc:	e1a01009 	mov	r1, r9
    15c0:	e282200c 	add	r2, r2, #12
    15c4:	eb00180c 	bl	75fc <__sprint_r>
    15c8:	e3500000 	cmp	r0, #0
    15cc:	1a00000a 	bne	15fc <_vfprintf_r+0x464>
    15d0:	e28d6e4e 	add	r6, sp, #1248	; 0x4e0
    15d4:	e2866004 	add	r6, r6, #4
    15d8:	eaffff42 	b	12e8 <_vfprintf_r+0x150>
    15dc:	e59d3554 	ldr	r3, [sp, #1364]	; 0x554
    15e0:	e3530000 	cmp	r3, #0
    15e4:	0a000004 	beq	15fc <_vfprintf_r+0x464>
    15e8:	e28d2d15 	add	r2, sp, #1344	; 0x540
    15ec:	e59d002c 	ldr	r0, [sp, #44]	; 0x2c
    15f0:	e1a01009 	mov	r1, r9
    15f4:	e282200c 	add	r2, r2, #12
    15f8:	eb0017ff 	bl	75fc <__sprint_r>
    15fc:	e1d930bc 	ldrh	r3, [r9, #12]
    1600:	e59d4030 	ldr	r4, [sp, #48]	; 0x30
    1604:	e3130040 	tst	r3, #64	; 0x40
    1608:	13e04000 	mvnne	r4, #0
    160c:	e58d4030 	str	r4, [sp, #48]	; 0x30
    1610:	eaffffe2 	b	15a0 <_vfprintf_r+0x408>
    1614:	e1a00004 	mov	r0, r4
    1618:	eb000ecf 	bl	515c <__sinit>
    161c:	eafffef3 	b	11f0 <_vfprintf_r+0x58>
    1620:	e1a0700b 	mov	r7, fp
    1624:	eaffff32 	b	12f4 <_vfprintf_r+0x15c>
    1628:	e5cd156f 	strb	r1, [sp, #1391]	; 0x56f
    162c:	e5db2000 	ldrb	r2, [fp]
    1630:	eaffff3b 	b	1324 <_vfprintf_r+0x18c>
    1634:	e1a0000b 	mov	r0, fp
    1638:	e4d02001 	ldrb	r2, [r0], #1
    163c:	e352002a 	cmp	r2, #42	; 0x2a
    1640:	0a000755 	beq	339c <_vfprintf_r+0x2204>
    1644:	e2423030 	sub	r3, r2, #48	; 0x30
    1648:	e3530009 	cmp	r3, #9
    164c:	81a0b000 	movhi	fp, r0
    1650:	83a07000 	movhi	r7, #0
    1654:	8affff33 	bhi	1328 <_vfprintf_r+0x190>
    1658:	e3a07000 	mov	r7, #0
    165c:	e4d02001 	ldrb	r2, [r0], #1
    1660:	e0877107 	add	r7, r7, r7, lsl #2
    1664:	e0837087 	add	r7, r3, r7, lsl #1
    1668:	e2423030 	sub	r3, r2, #48	; 0x30
    166c:	e3530009 	cmp	r3, #9
    1670:	e1a0b000 	mov	fp, r0
    1674:	9afffff8 	bls	165c <_vfprintf_r+0x4c4>
    1678:	e1877fc7 	orr	r7, r7, r7, asr #31
    167c:	eaffff29 	b	1328 <_vfprintf_r+0x190>
    1680:	e59d8024 	ldr	r8, [sp, #36]	; 0x24
    1684:	e3888080 	orr	r8, r8, #128	; 0x80
    1688:	e58d8024 	str	r8, [sp, #36]	; 0x24
    168c:	e5db2000 	ldrb	r2, [fp]
    1690:	eaffff23 	b	1324 <_vfprintf_r+0x18c>
    1694:	e1a0000b 	mov	r0, fp
    1698:	e3a03000 	mov	r3, #0
    169c:	e242c030 	sub	ip, r2, #48	; 0x30
    16a0:	e4d02001 	ldrb	r2, [r0], #1
    16a4:	e2425030 	sub	r5, r2, #48	; 0x30
    16a8:	e0833103 	add	r3, r3, r3, lsl #2
    16ac:	e3550009 	cmp	r5, #9
    16b0:	e08c3083 	add	r3, ip, r3, lsl #1
    16b4:	e1a0b000 	mov	fp, r0
    16b8:	9afffff7 	bls	169c <_vfprintf_r+0x504>
    16bc:	e58d3034 	str	r3, [sp, #52]	; 0x34
    16c0:	eaffff18 	b	1328 <_vfprintf_r+0x190>
    16c4:	e59d4024 	ldr	r4, [sp, #36]	; 0x24
    16c8:	e3844010 	orr	r4, r4, #16
    16cc:	e58d4024 	str	r4, [sp, #36]	; 0x24
    16d0:	e59d8024 	ldr	r8, [sp, #36]	; 0x24
    16d4:	e3180020 	tst	r8, #32
    16d8:	e58d2054 	str	r2, [sp, #84]	; 0x54
    16dc:	0a00018d 	beq	1d18 <_vfprintf_r+0xb80>
    16e0:	e59dc03c 	ldr	ip, [sp, #60]	; 0x3c
    16e4:	e28c3007 	add	r3, ip, #7
    16e8:	e3c33007 	bic	r3, r3, #7
    16ec:	e8930003 	ldm	r3, {r0, r1}
    16f0:	e2833008 	add	r3, r3, #8
    16f4:	e58d303c 	str	r3, [sp, #60]	; 0x3c
    16f8:	e1a04000 	mov	r4, r0
    16fc:	e1a05001 	mov	r5, r1
    1700:	e3500000 	cmp	r0, #0
    1704:	e2d12000 	sbcs	r2, r1, #0
    1708:	ba0004db 	blt	2a7c <_vfprintf_r+0x18e4>
    170c:	e1943005 	orrs	r3, r4, r5
    1710:	03a03000 	moveq	r3, #0
    1714:	13a03001 	movne	r3, #1
    1718:	e3a02001 	mov	r2, #1
    171c:	e3570000 	cmp	r7, #0
    1720:	a59d8024 	ldrge	r8, [sp, #36]	; 0x24
    1724:	a3c88080 	bicge	r8, r8, #128	; 0x80
    1728:	a58d8024 	strge	r8, [sp, #36]	; 0x24
    172c:	e3570000 	cmp	r7, #0
    1730:	13833001 	orrne	r3, r3, #1
    1734:	e3530000 	cmp	r3, #0
    1738:	0a0002c1 	beq	2244 <_vfprintf_r+0x10ac>
    173c:	e3520001 	cmp	r2, #1
    1740:	0a0003d5 	beq	269c <_vfprintf_r+0x1504>
    1744:	e28d1d15 	add	r1, sp, #1344	; 0x540
    1748:	e3520002 	cmp	r2, #2
    174c:	1281100c 	addne	r1, r1, #12
    1750:	1a000001 	bne	175c <_vfprintf_r+0x5c4>
    1754:	ea0003bd 	b	2650 <_vfprintf_r+0x14b8>
    1758:	e1a01002 	mov	r1, r2
    175c:	e1a031a4 	lsr	r3, r4, #3
    1760:	e1833e85 	orr	r3, r3, r5, lsl #29
    1764:	e1a001a5 	lsr	r0, r5, #3
    1768:	e2042007 	and	r2, r4, #7
    176c:	e1a05000 	mov	r5, r0
    1770:	e1a04003 	mov	r4, r3
    1774:	e194c005 	orrs	ip, r4, r5
    1778:	e2823030 	add	r3, r2, #48	; 0x30
    177c:	e5413001 	strb	r3, [r1, #-1]
    1780:	e2412001 	sub	r2, r1, #1
    1784:	1afffff3 	bne	1758 <_vfprintf_r+0x5c0>
    1788:	e59d4024 	ldr	r4, [sp, #36]	; 0x24
    178c:	e3140001 	tst	r4, #1
    1790:	e58d2044 	str	r2, [sp, #68]	; 0x44
    1794:	1a0004ac 	bne	2a4c <_vfprintf_r+0x18b4>
    1798:	e59d8020 	ldr	r8, [sp, #32]
    179c:	e0628008 	rsb	r8, r2, r8
    17a0:	e58d8038 	str	r8, [sp, #56]	; 0x38
    17a4:	e59dc038 	ldr	ip, [sp, #56]	; 0x38
    17a8:	e3a04000 	mov	r4, #0
    17ac:	e15c0007 	cmp	ip, r7
    17b0:	b1a0c007 	movlt	ip, r7
    17b4:	e58dc028 	str	ip, [sp, #40]	; 0x28
    17b8:	e5dd356f 	ldrb	r3, [sp, #1391]	; 0x56f
    17bc:	e58d7048 	str	r7, [sp, #72]	; 0x48
    17c0:	e58d405c 	str	r4, [sp, #92]	; 0x5c
    17c4:	e3530000 	cmp	r3, #0
    17c8:	0a000002 	beq	17d8 <_vfprintf_r+0x640>
    17cc:	e59d4028 	ldr	r4, [sp, #40]	; 0x28
    17d0:	e2844001 	add	r4, r4, #1
    17d4:	e58d4028 	str	r4, [sp, #40]	; 0x28
    17d8:	e59d8024 	ldr	r8, [sp, #36]	; 0x24
    17dc:	e2188002 	ands	r8, r8, #2
    17e0:	159dc028 	ldrne	ip, [sp, #40]	; 0x28
    17e4:	e59d3024 	ldr	r3, [sp, #36]	; 0x24
    17e8:	128cc002 	addne	ip, ip, #2
    17ec:	158dc028 	strne	ip, [sp, #40]	; 0x28
    17f0:	e2133084 	ands	r3, r3, #132	; 0x84
    17f4:	e58d804c 	str	r8, [sp, #76]	; 0x4c
    17f8:	e58d3050 	str	r3, [sp, #80]	; 0x50
    17fc:	1a00017b 	bne	1df0 <_vfprintf_r+0xc58>
    1800:	e59d4034 	ldr	r4, [sp, #52]	; 0x34
    1804:	e59d8028 	ldr	r8, [sp, #40]	; 0x28
    1808:	e0687004 	rsb	r7, r8, r4
    180c:	e3570000 	cmp	r7, #0
    1810:	da000176 	ble	1df0 <_vfprintf_r+0xc58>
    1814:	e28d4e55 	add	r4, sp, #1360	; 0x550
    1818:	e3570010 	cmp	r7, #16
    181c:	e8940030 	ldm	r4, {r4, r5}
    1820:	e59f8f38 	ldr	r8, [pc, #3896]	; 2760 <_vfprintf_r+0x15c8>
    1824:	da00001d 	ble	18a0 <_vfprintf_r+0x708>
    1828:	e1a03004 	mov	r3, r4
    182c:	e3a0a010 	mov	sl, #16
    1830:	e59d402c 	ldr	r4, [sp, #44]	; 0x2c
    1834:	ea000002 	b	1844 <_vfprintf_r+0x6ac>
    1838:	e2477010 	sub	r7, r7, #16
    183c:	e3570010 	cmp	r7, #16
    1840:	da000015 	ble	189c <_vfprintf_r+0x704>
    1844:	e2833001 	add	r3, r3, #1
    1848:	e3530007 	cmp	r3, #7
    184c:	e2855010 	add	r5, r5, #16
    1850:	e8860500 	stm	r6, {r8, sl}
    1854:	e58d5554 	str	r5, [sp, #1364]	; 0x554
    1858:	e58d3550 	str	r3, [sp, #1360]	; 0x550
    185c:	d2866008 	addle	r6, r6, #8
    1860:	dafffff4 	ble	1838 <_vfprintf_r+0x6a0>
    1864:	e28d2d15 	add	r2, sp, #1344	; 0x540
    1868:	e1a00004 	mov	r0, r4
    186c:	e1a01009 	mov	r1, r9
    1870:	e282200c 	add	r2, r2, #12
    1874:	eb001760 	bl	75fc <__sprint_r>
    1878:	e3500000 	cmp	r0, #0
    187c:	1affff5e 	bne	15fc <_vfprintf_r+0x464>
    1880:	e2477010 	sub	r7, r7, #16
    1884:	e28d3e55 	add	r3, sp, #1360	; 0x550
    1888:	e28d6e4e 	add	r6, sp, #1248	; 0x4e0
    188c:	e3570010 	cmp	r7, #16
    1890:	e8930028 	ldm	r3, {r3, r5}
    1894:	e2866004 	add	r6, r6, #4
    1898:	caffffe9 	bgt	1844 <_vfprintf_r+0x6ac>
    189c:	e1a04003 	mov	r4, r3
    18a0:	e2844001 	add	r4, r4, #1
    18a4:	e0855007 	add	r5, r5, r7
    18a8:	e3540007 	cmp	r4, #7
    18ac:	e5868000 	str	r8, [r6]
    18b0:	e5867004 	str	r7, [r6, #4]
    18b4:	e58d5554 	str	r5, [sp, #1364]	; 0x554
    18b8:	e58d4550 	str	r4, [sp, #1360]	; 0x550
    18bc:	d2866008 	addle	r6, r6, #8
    18c0:	da00014b 	ble	1df4 <_vfprintf_r+0xc5c>
    18c4:	e28d2d15 	add	r2, sp, #1344	; 0x540
    18c8:	e59d002c 	ldr	r0, [sp, #44]	; 0x2c
    18cc:	e1a01009 	mov	r1, r9
    18d0:	e282200c 	add	r2, r2, #12
    18d4:	eb001748 	bl	75fc <__sprint_r>
    18d8:	e3500000 	cmp	r0, #0
    18dc:	1affff46 	bne	15fc <_vfprintf_r+0x464>
    18e0:	e28d6e4e 	add	r6, sp, #1248	; 0x4e0
    18e4:	e59d5554 	ldr	r5, [sp, #1364]	; 0x554
    18e8:	e2866004 	add	r6, r6, #4
    18ec:	ea000140 	b	1df4 <_vfprintf_r+0xc5c>
    18f0:	e59d403c 	ldr	r4, [sp, #60]	; 0x3c
    18f4:	e58d2054 	str	r2, [sp, #84]	; 0x54
    18f8:	e2843007 	add	r3, r4, #7
    18fc:	e3c33007 	bic	r3, r3, #7
    1900:	e5938000 	ldr	r8, [r3]
    1904:	e5934004 	ldr	r4, [r3, #4]
    1908:	e2833008 	add	r3, r3, #8
    190c:	e58d303c 	str	r3, [sp, #60]	; 0x3c
    1910:	e1a02008 	mov	r2, r8
    1914:	e1a03004 	mov	r3, r4
    1918:	e1a01004 	mov	r1, r4
    191c:	e1a00008 	mov	r0, r8
    1920:	e58d2060 	str	r2, [sp, #96]	; 0x60
    1924:	e58d3064 	str	r3, [sp, #100]	; 0x64
    1928:	eb001627 	bl	71cc <__fpclassifyd>
    192c:	e3500001 	cmp	r0, #1
    1930:	e1a01004 	mov	r1, r4
    1934:	e1a00008 	mov	r0, r8
    1938:	1a000458 	bne	2aa0 <_vfprintf_r+0x1908>
    193c:	e3a03000 	mov	r3, #0
    1940:	e3a02000 	mov	r2, #0
    1944:	ebfffbce 	bl	884 <__aeabi_dcmplt>
    1948:	e3a04003 	mov	r4, #3
    194c:	e3500000 	cmp	r0, #0
    1950:	e59dc054 	ldr	ip, [sp, #84]	; 0x54
    1954:	13a0302d 	movne	r3, #45	; 0x2d
    1958:	e58d4028 	str	r4, [sp, #40]	; 0x28
    195c:	e59f2e00 	ldr	r2, [pc, #3584]	; 2764 <_vfprintf_r+0x15cc>
    1960:	e59d4024 	ldr	r4, [sp, #36]	; 0x24
    1964:	e3a08000 	mov	r8, #0
    1968:	e59f1df8 	ldr	r1, [pc, #3576]	; 2768 <_vfprintf_r+0x15d0>
    196c:	05dd356f 	ldrbeq	r3, [sp, #1391]	; 0x56f
    1970:	15cd356f 	strbne	r3, [sp, #1391]	; 0x56f
    1974:	e35c0047 	cmp	ip, #71	; 0x47
    1978:	e58d8048 	str	r8, [sp, #72]	; 0x48
    197c:	d1a01002 	movle	r1, r2
    1980:	e3c44080 	bic	r4, r4, #128	; 0x80
    1984:	e3a08003 	mov	r8, #3
    1988:	e3a0c000 	mov	ip, #0
    198c:	e58d1044 	str	r1, [sp, #68]	; 0x44
    1990:	e58d4024 	str	r4, [sp, #36]	; 0x24
    1994:	e58d8038 	str	r8, [sp, #56]	; 0x38
    1998:	e58dc05c 	str	ip, [sp, #92]	; 0x5c
    199c:	eaffff88 	b	17c4 <_vfprintf_r+0x62c>
    19a0:	e59dc024 	ldr	ip, [sp, #36]	; 0x24
    19a4:	e38cc008 	orr	ip, ip, #8
    19a8:	e58dc024 	str	ip, [sp, #36]	; 0x24
    19ac:	e5db2000 	ldrb	r2, [fp]
    19b0:	eafffe5b 	b	1324 <_vfprintf_r+0x18c>
    19b4:	e59d8024 	ldr	r8, [sp, #36]	; 0x24
    19b8:	e3888010 	orr	r8, r8, #16
    19bc:	e58d8024 	str	r8, [sp, #36]	; 0x24
    19c0:	e59dc024 	ldr	ip, [sp, #36]	; 0x24
    19c4:	e58d2054 	str	r2, [sp, #84]	; 0x54
    19c8:	e21c2020 	ands	r2, ip, #32
    19cc:	0a000059 	beq	1b38 <_vfprintf_r+0x9a0>
    19d0:	e59d403c 	ldr	r4, [sp, #60]	; 0x3c
    19d4:	e2843007 	add	r3, r4, #7
    19d8:	e3c33007 	bic	r3, r3, #7
    19dc:	e8930030 	ldm	r3, {r4, r5}
    19e0:	e2833008 	add	r3, r3, #8
    19e4:	e1948005 	orrs	r8, r4, r5
    19e8:	e58d303c 	str	r3, [sp, #60]	; 0x3c
    19ec:	e3a02000 	mov	r2, #0
    19f0:	03a03000 	moveq	r3, #0
    19f4:	13a03001 	movne	r3, #1
    19f8:	e3a01000 	mov	r1, #0
    19fc:	e5cd156f 	strb	r1, [sp, #1391]	; 0x56f
    1a00:	eaffff45 	b	171c <_vfprintf_r+0x584>
    1a04:	e59dc024 	ldr	ip, [sp, #36]	; 0x24
    1a08:	e38cc010 	orr	ip, ip, #16
    1a0c:	e58dc024 	str	ip, [sp, #36]	; 0x24
    1a10:	e59d4024 	ldr	r4, [sp, #36]	; 0x24
    1a14:	e3140020 	tst	r4, #32
    1a18:	e58d2054 	str	r2, [sp, #84]	; 0x54
    1a1c:	0a00007b 	beq	1c10 <_vfprintf_r+0xa78>
    1a20:	e59d803c 	ldr	r8, [sp, #60]	; 0x3c
    1a24:	e2883007 	add	r3, r8, #7
    1a28:	e3c33007 	bic	r3, r3, #7
    1a2c:	e8930030 	ldm	r3, {r4, r5}
    1a30:	e2833008 	add	r3, r3, #8
    1a34:	e194c005 	orrs	ip, r4, r5
    1a38:	e58d303c 	str	r3, [sp, #60]	; 0x3c
    1a3c:	e3a02001 	mov	r2, #1
    1a40:	03a03000 	moveq	r3, #0
    1a44:	13a03001 	movne	r3, #1
    1a48:	eaffffea 	b	19f8 <_vfprintf_r+0x860>
    1a4c:	e59dc024 	ldr	ip, [sp, #36]	; 0x24
    1a50:	e59f8d14 	ldr	r8, [pc, #3348]	; 276c <_vfprintf_r+0x15d4>
    1a54:	e31c0020 	tst	ip, #32
    1a58:	e58d2054 	str	r2, [sp, #84]	; 0x54
    1a5c:	e58d8070 	str	r8, [sp, #112]	; 0x70
    1a60:	0a00007d 	beq	1c5c <_vfprintf_r+0xac4>
    1a64:	e59d403c 	ldr	r4, [sp, #60]	; 0x3c
    1a68:	e2843007 	add	r3, r4, #7
    1a6c:	e3c33007 	bic	r3, r3, #7
    1a70:	e2838008 	add	r8, r3, #8
    1a74:	e58d803c 	str	r8, [sp, #60]	; 0x3c
    1a78:	e8930030 	ldm	r3, {r4, r5}
    1a7c:	e59d8024 	ldr	r8, [sp, #36]	; 0x24
    1a80:	e1940005 	orrs	r0, r4, r5
    1a84:	03a03000 	moveq	r3, #0
    1a88:	13a03001 	movne	r3, #1
    1a8c:	e1180003 	tst	r8, r3
    1a90:	159dc054 	ldrne	ip, [sp, #84]	; 0x54
    1a94:	13a03030 	movne	r3, #48	; 0x30
    1a98:	13888002 	orrne	r8, r8, #2
    1a9c:	15cd356c 	strbne	r3, [sp, #1388]	; 0x56c
    1aa0:	15cdc56d 	strbne	ip, [sp, #1389]	; 0x56d
    1aa4:	158d8024 	strne	r8, [sp, #36]	; 0x24
    1aa8:	13a03001 	movne	r3, #1
    1aac:	e3a02002 	mov	r2, #2
    1ab0:	eaffffd0 	b	19f8 <_vfprintf_r+0x860>
    1ab4:	e59dc024 	ldr	ip, [sp, #36]	; 0x24
    1ab8:	e38cc020 	orr	ip, ip, #32
    1abc:	e58dc024 	str	ip, [sp, #36]	; 0x24
    1ac0:	e5db2000 	ldrb	r2, [fp]
    1ac4:	eafffe16 	b	1324 <_vfprintf_r+0x18c>
    1ac8:	e5db2000 	ldrb	r2, [fp]
    1acc:	e352006c 	cmp	r2, #108	; 0x6c
    1ad0:	059dc024 	ldreq	ip, [sp, #36]	; 0x24
    1ad4:	159d8024 	ldrne	r8, [sp, #36]	; 0x24
    1ad8:	e1a0300b 	mov	r3, fp
    1adc:	038cc020 	orreq	ip, ip, #32
    1ae0:	13888010 	orrne	r8, r8, #16
    1ae4:	028bb001 	addeq	fp, fp, #1
    1ae8:	058dc024 	streq	ip, [sp, #36]	; 0x24
    1aec:	05d32001 	ldrbeq	r2, [r3, #1]
    1af0:	158d8024 	strne	r8, [sp, #36]	; 0x24
    1af4:	eafffe0a 	b	1324 <_vfprintf_r+0x18c>
    1af8:	e59d4024 	ldr	r4, [sp, #36]	; 0x24
    1afc:	e3140020 	tst	r4, #32
    1b00:	0a0004c2 	beq	2e10 <_vfprintf_r+0x1c78>
    1b04:	e59d803c 	ldr	r8, [sp, #60]	; 0x3c
    1b08:	e59d2030 	ldr	r2, [sp, #48]	; 0x30
    1b0c:	e5983000 	ldr	r3, [r8]
    1b10:	e1a01fc2 	asr	r1, r2, #31
    1b14:	e2888004 	add	r8, r8, #4
    1b18:	e5832000 	str	r2, [r3]
    1b1c:	e5831004 	str	r1, [r3, #4]
    1b20:	e58d803c 	str	r8, [sp, #60]	; 0x3c
    1b24:	eafffdd7 	b	1288 <_vfprintf_r+0xf0>
    1b28:	e59dc024 	ldr	ip, [sp, #36]	; 0x24
    1b2c:	e58d2054 	str	r2, [sp, #84]	; 0x54
    1b30:	e21c2020 	ands	r2, ip, #32
    1b34:	1affffa5 	bne	19d0 <_vfprintf_r+0x838>
    1b38:	e59dc024 	ldr	ip, [sp, #36]	; 0x24
    1b3c:	e21c1010 	ands	r1, ip, #16
    1b40:	0a0004a4 	beq	2dd8 <_vfprintf_r+0x1c40>
    1b44:	e59d403c 	ldr	r4, [sp, #60]	; 0x3c
    1b48:	e59d803c 	ldr	r8, [sp, #60]	; 0x3c
    1b4c:	e5943000 	ldr	r3, [r4]
    1b50:	e3a05000 	mov	r5, #0
    1b54:	e1a04003 	mov	r4, r3
    1b58:	e2888004 	add	r8, r8, #4
    1b5c:	e0533005 	subs	r3, r3, r5
    1b60:	13a03001 	movne	r3, #1
    1b64:	e58d803c 	str	r8, [sp, #60]	; 0x3c
    1b68:	eaffffa2 	b	19f8 <_vfprintf_r+0x860>
    1b6c:	e3520000 	cmp	r2, #0
    1b70:	e58d2054 	str	r2, [sp, #84]	; 0x54
    1b74:	0afffe98 	beq	15dc <_vfprintf_r+0x444>
    1b78:	e28dce52 	add	ip, sp, #1312	; 0x520
    1b7c:	e3a08001 	mov	r8, #1
    1b80:	e3a03000 	mov	r3, #0
    1b84:	e28cc004 	add	ip, ip, #4
    1b88:	e58d8028 	str	r8, [sp, #40]	; 0x28
    1b8c:	e5cd2524 	strb	r2, [sp, #1316]	; 0x524
    1b90:	e5cd356f 	strb	r3, [sp, #1391]	; 0x56f
    1b94:	e58d8038 	str	r8, [sp, #56]	; 0x38
    1b98:	e58dc044 	str	ip, [sp, #68]	; 0x44
    1b9c:	e3a0c000 	mov	ip, #0
    1ba0:	e58dc048 	str	ip, [sp, #72]	; 0x48
    1ba4:	e58dc05c 	str	ip, [sp, #92]	; 0x5c
    1ba8:	eaffff0a 	b	17d8 <_vfprintf_r+0x640>
    1bac:	e5dd356f 	ldrb	r3, [sp, #1391]	; 0x56f
    1bb0:	e3530000 	cmp	r3, #0
    1bb4:	15db2000 	ldrbne	r2, [fp]
    1bb8:	05cd456f 	strbeq	r4, [sp, #1391]	; 0x56f
    1bbc:	05db2000 	ldrbeq	r2, [fp]
    1bc0:	eafffdd7 	b	1324 <_vfprintf_r+0x18c>
    1bc4:	e59d8024 	ldr	r8, [sp, #36]	; 0x24
    1bc8:	e3888001 	orr	r8, r8, #1
    1bcc:	e58d8024 	str	r8, [sp, #36]	; 0x24
    1bd0:	e5db2000 	ldrb	r2, [fp]
    1bd4:	eafffdd2 	b	1324 <_vfprintf_r+0x18c>
    1bd8:	e59dc03c 	ldr	ip, [sp, #60]	; 0x3c
    1bdc:	e59cc000 	ldr	ip, [ip]
    1be0:	e59d803c 	ldr	r8, [sp, #60]	; 0x3c
    1be4:	e35c0000 	cmp	ip, #0
    1be8:	e58dc034 	str	ip, [sp, #52]	; 0x34
    1bec:	e2883004 	add	r3, r8, #4
    1bf0:	bafffe29 	blt	149c <_vfprintf_r+0x304>
    1bf4:	e5db2000 	ldrb	r2, [fp]
    1bf8:	e58d303c 	str	r3, [sp, #60]	; 0x3c
    1bfc:	eafffdc8 	b	1324 <_vfprintf_r+0x18c>
    1c00:	e59d4024 	ldr	r4, [sp, #36]	; 0x24
    1c04:	e3140020 	tst	r4, #32
    1c08:	e58d2054 	str	r2, [sp, #84]	; 0x54
    1c0c:	1affff83 	bne	1a20 <_vfprintf_r+0x888>
    1c10:	e59d4024 	ldr	r4, [sp, #36]	; 0x24
    1c14:	e3140010 	tst	r4, #16
    1c18:	0a00044d 	beq	2d54 <_vfprintf_r+0x1bbc>
    1c1c:	e59d803c 	ldr	r8, [sp, #60]	; 0x3c
    1c20:	e5983000 	ldr	r3, [r8]
    1c24:	e3a05000 	mov	r5, #0
    1c28:	e1a04003 	mov	r4, r3
    1c2c:	e2888004 	add	r8, r8, #4
    1c30:	e0533005 	subs	r3, r3, r5
    1c34:	13a03001 	movne	r3, #1
    1c38:	e58d803c 	str	r8, [sp, #60]	; 0x3c
    1c3c:	e3a02001 	mov	r2, #1
    1c40:	eaffff6c 	b	19f8 <_vfprintf_r+0x860>
    1c44:	e59dc024 	ldr	ip, [sp, #36]	; 0x24
    1c48:	e59f4b20 	ldr	r4, [pc, #2848]	; 2770 <_vfprintf_r+0x15d8>
    1c4c:	e31c0020 	tst	ip, #32
    1c50:	e58d2054 	str	r2, [sp, #84]	; 0x54
    1c54:	e58d4070 	str	r4, [sp, #112]	; 0x70
    1c58:	1affff81 	bne	1a64 <_vfprintf_r+0x8cc>
    1c5c:	e59dc024 	ldr	ip, [sp, #36]	; 0x24
    1c60:	e31c0010 	tst	ip, #16
    1c64:	0a000448 	beq	2d8c <_vfprintf_r+0x1bf4>
    1c68:	e59d403c 	ldr	r4, [sp, #60]	; 0x3c
    1c6c:	e5943000 	ldr	r3, [r4]
    1c70:	e59d803c 	ldr	r8, [sp, #60]	; 0x3c
    1c74:	e2888004 	add	r8, r8, #4
    1c78:	e1a04003 	mov	r4, r3
    1c7c:	e3a05000 	mov	r5, #0
    1c80:	e58d803c 	str	r8, [sp, #60]	; 0x3c
    1c84:	eaffff7c 	b	1a7c <_vfprintf_r+0x8e4>
    1c88:	e3a04000 	mov	r4, #0
    1c8c:	e5cd456f 	strb	r4, [sp, #1391]	; 0x56f
    1c90:	e59dc03c 	ldr	ip, [sp, #60]	; 0x3c
    1c94:	e59cc000 	ldr	ip, [ip]
    1c98:	e59d803c 	ldr	r8, [sp, #60]	; 0x3c
    1c9c:	e15c0004 	cmp	ip, r4
    1ca0:	e58d2054 	str	r2, [sp, #84]	; 0x54
    1ca4:	e58dc044 	str	ip, [sp, #68]	; 0x44
    1ca8:	e2885004 	add	r5, r8, #4
    1cac:	0a00054f 	beq	31f0 <_vfprintf_r+0x2058>
    1cb0:	e3570000 	cmp	r7, #0
    1cb4:	e59d0044 	ldr	r0, [sp, #68]	; 0x44
    1cb8:	ba000529 	blt	3164 <_vfprintf_r+0x1fcc>
    1cbc:	e1a01004 	mov	r1, r4
    1cc0:	e1a02007 	mov	r2, r7
    1cc4:	eb00110b 	bl	60f8 <memchr>
    1cc8:	e3500000 	cmp	r0, #0
    1ccc:	0a00056c 	beq	3284 <_vfprintf_r+0x20ec>
    1cd0:	e59dc044 	ldr	ip, [sp, #68]	; 0x44
    1cd4:	e06c0000 	rsb	r0, ip, r0
    1cd8:	e1500007 	cmp	r0, r7
    1cdc:	e58d0038 	str	r0, [sp, #56]	; 0x38
    1ce0:	e58d4048 	str	r4, [sp, #72]	; 0x48
    1ce4:	da00049c 	ble	2f5c <_vfprintf_r+0x1dc4>
    1ce8:	e59d8048 	ldr	r8, [sp, #72]	; 0x48
    1cec:	e1c74fc7 	bic	r4, r7, r7, asr #31
    1cf0:	e58d4028 	str	r4, [sp, #40]	; 0x28
    1cf4:	e5dd356f 	ldrb	r3, [sp, #1391]	; 0x56f
    1cf8:	e58d503c 	str	r5, [sp, #60]	; 0x3c
    1cfc:	e58d7038 	str	r7, [sp, #56]	; 0x38
    1d00:	e58d805c 	str	r8, [sp, #92]	; 0x5c
    1d04:	eafffeae 	b	17c4 <_vfprintf_r+0x62c>
    1d08:	e59d8024 	ldr	r8, [sp, #36]	; 0x24
    1d0c:	e3180020 	tst	r8, #32
    1d10:	e58d2054 	str	r2, [sp, #84]	; 0x54
    1d14:	1afffe71 	bne	16e0 <_vfprintf_r+0x548>
    1d18:	e59d4024 	ldr	r4, [sp, #36]	; 0x24
    1d1c:	e3140010 	tst	r4, #16
    1d20:	0a00041f 	beq	2da4 <_vfprintf_r+0x1c0c>
    1d24:	e59d803c 	ldr	r8, [sp, #60]	; 0x3c
    1d28:	e5983000 	ldr	r3, [r8]
    1d2c:	e2888004 	add	r8, r8, #4
    1d30:	e1a05fc3 	asr	r5, r3, #31
    1d34:	e1a04003 	mov	r4, r3
    1d38:	e1a00003 	mov	r0, r3
    1d3c:	e1a01005 	mov	r1, r5
    1d40:	e58d803c 	str	r8, [sp, #60]	; 0x3c
    1d44:	eafffe6d 	b	1700 <_vfprintf_r+0x568>
    1d48:	e59d8024 	ldr	r8, [sp, #36]	; 0x24
    1d4c:	e3888040 	orr	r8, r8, #64	; 0x40
    1d50:	e58d8024 	str	r8, [sp, #36]	; 0x24
    1d54:	e5db2000 	ldrb	r2, [fp]
    1d58:	eafffd71 	b	1324 <_vfprintf_r+0x18c>
    1d5c:	e59d303c 	ldr	r3, [sp, #60]	; 0x3c
    1d60:	e59d803c 	ldr	r8, [sp, #60]	; 0x3c
    1d64:	e5933000 	ldr	r3, [r3]
    1d68:	e28dce52 	add	ip, sp, #1312	; 0x520
    1d6c:	e3a04001 	mov	r4, #1
    1d70:	e2888004 	add	r8, r8, #4
    1d74:	e5cd3524 	strb	r3, [sp, #1316]	; 0x524
    1d78:	e28cc004 	add	ip, ip, #4
    1d7c:	e3a03000 	mov	r3, #0
    1d80:	e58d2054 	str	r2, [sp, #84]	; 0x54
    1d84:	e58d4028 	str	r4, [sp, #40]	; 0x28
    1d88:	e58d803c 	str	r8, [sp, #60]	; 0x3c
    1d8c:	e5cd356f 	strb	r3, [sp, #1391]	; 0x56f
    1d90:	e58d4038 	str	r4, [sp, #56]	; 0x38
    1d94:	e58dc044 	str	ip, [sp, #68]	; 0x44
    1d98:	eaffff7f 	b	1b9c <_vfprintf_r+0xa04>
    1d9c:	e59d303c 	ldr	r3, [sp, #60]	; 0x3c
    1da0:	e59d803c 	ldr	r8, [sp, #60]	; 0x3c
    1da4:	e5933000 	ldr	r3, [r3]
    1da8:	e2888004 	add	r8, r8, #4
    1dac:	e59dc024 	ldr	ip, [sp, #36]	; 0x24
    1db0:	e58d803c 	str	r8, [sp, #60]	; 0x3c
    1db4:	e3a05000 	mov	r5, #0
    1db8:	e59f89b0 	ldr	r8, [pc, #2480]	; 2770 <_vfprintf_r+0x15d8>
    1dbc:	e3a01078 	mov	r1, #120	; 0x78
    1dc0:	e3a02030 	mov	r2, #48	; 0x30
    1dc4:	e1a04003 	mov	r4, r3
    1dc8:	e38cc002 	orr	ip, ip, #2
    1dcc:	e0533005 	subs	r3, r3, r5
    1dd0:	e5cd256c 	strb	r2, [sp, #1388]	; 0x56c
    1dd4:	e58dc024 	str	ip, [sp, #36]	; 0x24
    1dd8:	e5cd156d 	strb	r1, [sp, #1389]	; 0x56d
    1ddc:	13a03001 	movne	r3, #1
    1de0:	e58d8070 	str	r8, [sp, #112]	; 0x70
    1de4:	e3a02002 	mov	r2, #2
    1de8:	e58d1054 	str	r1, [sp, #84]	; 0x54
    1dec:	eaffff01 	b	19f8 <_vfprintf_r+0x860>
    1df0:	e59d5554 	ldr	r5, [sp, #1364]	; 0x554
    1df4:	e5dd356f 	ldrb	r3, [sp, #1391]	; 0x56f
    1df8:	e3530000 	cmp	r3, #0
    1dfc:	0a00000c 	beq	1e34 <_vfprintf_r+0xc9c>
    1e00:	e59d4550 	ldr	r4, [sp, #1360]	; 0x550
    1e04:	e28d3e56 	add	r3, sp, #1376	; 0x560
    1e08:	e2844001 	add	r4, r4, #1
    1e0c:	e283300f 	add	r3, r3, #15
    1e10:	e5863000 	str	r3, [r6]
    1e14:	e2855001 	add	r5, r5, #1
    1e18:	e3540007 	cmp	r4, #7
    1e1c:	e3a03001 	mov	r3, #1
    1e20:	e5863004 	str	r3, [r6, #4]
    1e24:	e58d5554 	str	r5, [sp, #1364]	; 0x554
    1e28:	e58d4550 	str	r4, [sp, #1360]	; 0x550
    1e2c:	d2866008 	addle	r6, r6, #8
    1e30:	ca0001af 	bgt	24f4 <_vfprintf_r+0x135c>
    1e34:	e59dc04c 	ldr	ip, [sp, #76]	; 0x4c
    1e38:	e35c0000 	cmp	ip, #0
    1e3c:	0a00000c 	beq	1e74 <_vfprintf_r+0xcdc>
    1e40:	e59d4550 	ldr	r4, [sp, #1360]	; 0x550
    1e44:	e28d3e56 	add	r3, sp, #1376	; 0x560
    1e48:	e2844001 	add	r4, r4, #1
    1e4c:	e283300c 	add	r3, r3, #12
    1e50:	e5863000 	str	r3, [r6]
    1e54:	e2855002 	add	r5, r5, #2
    1e58:	e3540007 	cmp	r4, #7
    1e5c:	e3a03002 	mov	r3, #2
    1e60:	e5863004 	str	r3, [r6, #4]
    1e64:	e58d5554 	str	r5, [sp, #1364]	; 0x554
    1e68:	e58d4550 	str	r4, [sp, #1360]	; 0x550
    1e6c:	d2866008 	addle	r6, r6, #8
    1e70:	ca0001aa 	bgt	2520 <_vfprintf_r+0x1388>
    1e74:	e59d3050 	ldr	r3, [sp, #80]	; 0x50
    1e78:	e3530080 	cmp	r3, #128	; 0x80
    1e7c:	0a0000fd 	beq	2278 <_vfprintf_r+0x10e0>
    1e80:	e59dc048 	ldr	ip, [sp, #72]	; 0x48
    1e84:	e59d3038 	ldr	r3, [sp, #56]	; 0x38
    1e88:	e063700c 	rsb	r7, r3, ip
    1e8c:	e3570000 	cmp	r7, #0
    1e90:	da000034 	ble	1f68 <_vfprintf_r+0xdd0>
    1e94:	e3570010 	cmp	r7, #16
    1e98:	e59d4550 	ldr	r4, [sp, #1360]	; 0x550
    1e9c:	e59f88d8 	ldr	r8, [pc, #2264]	; 277c <_vfprintf_r+0x15e4>
    1ea0:	da00001d 	ble	1f1c <_vfprintf_r+0xd84>
    1ea4:	e1a03004 	mov	r3, r4
    1ea8:	e3a0a010 	mov	sl, #16
    1eac:	e59d402c 	ldr	r4, [sp, #44]	; 0x2c
    1eb0:	ea000002 	b	1ec0 <_vfprintf_r+0xd28>
    1eb4:	e2477010 	sub	r7, r7, #16
    1eb8:	e3570010 	cmp	r7, #16
    1ebc:	da000015 	ble	1f18 <_vfprintf_r+0xd80>
    1ec0:	e2833001 	add	r3, r3, #1
    1ec4:	e3530007 	cmp	r3, #7
    1ec8:	e2855010 	add	r5, r5, #16
    1ecc:	e8860500 	stm	r6, {r8, sl}
    1ed0:	e58d5554 	str	r5, [sp, #1364]	; 0x554
    1ed4:	e58d3550 	str	r3, [sp, #1360]	; 0x550
    1ed8:	d2866008 	addle	r6, r6, #8
    1edc:	dafffff4 	ble	1eb4 <_vfprintf_r+0xd1c>
    1ee0:	e28d2d15 	add	r2, sp, #1344	; 0x540
    1ee4:	e1a00004 	mov	r0, r4
    1ee8:	e1a01009 	mov	r1, r9
    1eec:	e282200c 	add	r2, r2, #12
    1ef0:	eb0015c1 	bl	75fc <__sprint_r>
    1ef4:	e3500000 	cmp	r0, #0
    1ef8:	1afffdbf 	bne	15fc <_vfprintf_r+0x464>
    1efc:	e2477010 	sub	r7, r7, #16
    1f00:	e28d3e55 	add	r3, sp, #1360	; 0x550
    1f04:	e28d6e4e 	add	r6, sp, #1248	; 0x4e0
    1f08:	e3570010 	cmp	r7, #16
    1f0c:	e8930028 	ldm	r3, {r3, r5}
    1f10:	e2866004 	add	r6, r6, #4
    1f14:	caffffe9 	bgt	1ec0 <_vfprintf_r+0xd28>
    1f18:	e1a04003 	mov	r4, r3
    1f1c:	e2844001 	add	r4, r4, #1
    1f20:	e0855007 	add	r5, r5, r7
    1f24:	e3540007 	cmp	r4, #7
    1f28:	e5868000 	str	r8, [r6]
    1f2c:	e5867004 	str	r7, [r6, #4]
    1f30:	e58d5554 	str	r5, [sp, #1364]	; 0x554
    1f34:	e58d4550 	str	r4, [sp, #1360]	; 0x550
    1f38:	d2866008 	addle	r6, r6, #8
    1f3c:	da000009 	ble	1f68 <_vfprintf_r+0xdd0>
    1f40:	e28d2d15 	add	r2, sp, #1344	; 0x540
    1f44:	e59d002c 	ldr	r0, [sp, #44]	; 0x2c
    1f48:	e1a01009 	mov	r1, r9
    1f4c:	e282200c 	add	r2, r2, #12
    1f50:	eb0015a9 	bl	75fc <__sprint_r>
    1f54:	e3500000 	cmp	r0, #0
    1f58:	1afffda7 	bne	15fc <_vfprintf_r+0x464>
    1f5c:	e28d6e4e 	add	r6, sp, #1248	; 0x4e0
    1f60:	e59d5554 	ldr	r5, [sp, #1364]	; 0x554
    1f64:	e2866004 	add	r6, r6, #4
    1f68:	e59d4024 	ldr	r4, [sp, #36]	; 0x24
    1f6c:	e3140c01 	tst	r4, #256	; 0x100
    1f70:	1a000067 	bne	2114 <_vfprintf_r+0xf7c>
    1f74:	e59d4550 	ldr	r4, [sp, #1360]	; 0x550
    1f78:	e59d8038 	ldr	r8, [sp, #56]	; 0x38
    1f7c:	e2844001 	add	r4, r4, #1
    1f80:	e59dc044 	ldr	ip, [sp, #68]	; 0x44
    1f84:	e0855008 	add	r5, r5, r8
    1f88:	e3540007 	cmp	r4, #7
    1f8c:	e586c000 	str	ip, [r6]
    1f90:	e5868004 	str	r8, [r6, #4]
    1f94:	e58d5554 	str	r5, [sp, #1364]	; 0x554
    1f98:	e58d4550 	str	r4, [sp, #1360]	; 0x550
    1f9c:	ca000051 	bgt	20e8 <_vfprintf_r+0xf50>
    1fa0:	e2866008 	add	r6, r6, #8
    1fa4:	e59d4024 	ldr	r4, [sp, #36]	; 0x24
    1fa8:	e3140004 	tst	r4, #4
    1fac:	0a000036 	beq	208c <_vfprintf_r+0xef4>
    1fb0:	e59d8034 	ldr	r8, [sp, #52]	; 0x34
    1fb4:	e59dc028 	ldr	ip, [sp, #40]	; 0x28
    1fb8:	e06c7008 	rsb	r7, ip, r8
    1fbc:	e3570000 	cmp	r7, #0
    1fc0:	da000031 	ble	208c <_vfprintf_r+0xef4>
    1fc4:	e3570010 	cmp	r7, #16
    1fc8:	e59d4550 	ldr	r4, [sp, #1360]	; 0x550
    1fcc:	e59f878c 	ldr	r8, [pc, #1932]	; 2760 <_vfprintf_r+0x15c8>
    1fd0:	da00001d 	ble	204c <_vfprintf_r+0xeb4>
    1fd4:	e1a03004 	mov	r3, r4
    1fd8:	e3a0a010 	mov	sl, #16
    1fdc:	e59d402c 	ldr	r4, [sp, #44]	; 0x2c
    1fe0:	ea000002 	b	1ff0 <_vfprintf_r+0xe58>
    1fe4:	e2477010 	sub	r7, r7, #16
    1fe8:	e3570010 	cmp	r7, #16
    1fec:	da000015 	ble	2048 <_vfprintf_r+0xeb0>
    1ff0:	e2833001 	add	r3, r3, #1
    1ff4:	e3530007 	cmp	r3, #7
    1ff8:	e2855010 	add	r5, r5, #16
    1ffc:	e8860500 	stm	r6, {r8, sl}
    2000:	e58d5554 	str	r5, [sp, #1364]	; 0x554
    2004:	e58d3550 	str	r3, [sp, #1360]	; 0x550
    2008:	d2866008 	addle	r6, r6, #8
    200c:	dafffff4 	ble	1fe4 <_vfprintf_r+0xe4c>
    2010:	e28d2d15 	add	r2, sp, #1344	; 0x540
    2014:	e1a00004 	mov	r0, r4
    2018:	e1a01009 	mov	r1, r9
    201c:	e282200c 	add	r2, r2, #12
    2020:	eb001575 	bl	75fc <__sprint_r>
    2024:	e3500000 	cmp	r0, #0
    2028:	1afffd73 	bne	15fc <_vfprintf_r+0x464>
    202c:	e2477010 	sub	r7, r7, #16
    2030:	e28d3e55 	add	r3, sp, #1360	; 0x550
    2034:	e28d6e4e 	add	r6, sp, #1248	; 0x4e0
    2038:	e3570010 	cmp	r7, #16
    203c:	e8930028 	ldm	r3, {r3, r5}
    2040:	e2866004 	add	r6, r6, #4
    2044:	caffffe9 	bgt	1ff0 <_vfprintf_r+0xe58>
    2048:	e1a04003 	mov	r4, r3
    204c:	e2844001 	add	r4, r4, #1
    2050:	e0875005 	add	r5, r7, r5
    2054:	e3540007 	cmp	r4, #7
    2058:	e5868000 	str	r8, [r6]
    205c:	e5867004 	str	r7, [r6, #4]
    2060:	e58d5554 	str	r5, [sp, #1364]	; 0x554
    2064:	e58d4550 	str	r4, [sp, #1360]	; 0x550
    2068:	da000007 	ble	208c <_vfprintf_r+0xef4>
    206c:	e28d2d15 	add	r2, sp, #1344	; 0x540
    2070:	e59d002c 	ldr	r0, [sp, #44]	; 0x2c
    2074:	e1a01009 	mov	r1, r9
    2078:	e282200c 	add	r2, r2, #12
    207c:	eb00155e 	bl	75fc <__sprint_r>
    2080:	e3500000 	cmp	r0, #0
    2084:	1afffd5c 	bne	15fc <_vfprintf_r+0x464>
    2088:	e59d5554 	ldr	r5, [sp, #1364]	; 0x554
    208c:	e59d4030 	ldr	r4, [sp, #48]	; 0x30
    2090:	e59d8028 	ldr	r8, [sp, #40]	; 0x28
    2094:	e59dc034 	ldr	ip, [sp, #52]	; 0x34
    2098:	e158000c 	cmp	r8, ip
    209c:	a0844008 	addge	r4, r4, r8
    20a0:	b084400c 	addlt	r4, r4, ip
    20a4:	e3550000 	cmp	r5, #0
    20a8:	e58d4030 	str	r4, [sp, #48]	; 0x30
    20ac:	1a000103 	bne	24c0 <_vfprintf_r+0x1328>
    20b0:	e3a03000 	mov	r3, #0
    20b4:	e28d6e4e 	add	r6, sp, #1248	; 0x4e0
    20b8:	e58d3550 	str	r3, [sp, #1360]	; 0x550
    20bc:	e2866004 	add	r6, r6, #4
    20c0:	eafffc70 	b	1288 <_vfprintf_r+0xf0>
    20c4:	e1a04003 	mov	r4, r3
    20c8:	e2844001 	add	r4, r4, #1
    20cc:	e0855007 	add	r5, r5, r7
    20d0:	e3540007 	cmp	r4, #7
    20d4:	e5868000 	str	r8, [r6]
    20d8:	e5867004 	str	r7, [r6, #4]
    20dc:	e58d5554 	str	r5, [sp, #1364]	; 0x554
    20e0:	e58d4550 	str	r4, [sp, #1360]	; 0x550
    20e4:	daffffad 	ble	1fa0 <_vfprintf_r+0xe08>
    20e8:	e28d2d15 	add	r2, sp, #1344	; 0x540
    20ec:	e59d002c 	ldr	r0, [sp, #44]	; 0x2c
    20f0:	e1a01009 	mov	r1, r9
    20f4:	e282200c 	add	r2, r2, #12
    20f8:	eb00153f 	bl	75fc <__sprint_r>
    20fc:	e3500000 	cmp	r0, #0
    2100:	1afffd3d 	bne	15fc <_vfprintf_r+0x464>
    2104:	e28d6e4e 	add	r6, sp, #1248	; 0x4e0
    2108:	e2866004 	add	r6, r6, #4
    210c:	e59d5554 	ldr	r5, [sp, #1364]	; 0x554
    2110:	eaffffa3 	b	1fa4 <_vfprintf_r+0xe0c>
    2114:	e59d4054 	ldr	r4, [sp, #84]	; 0x54
    2118:	e3540065 	cmp	r4, #101	; 0x65
    211c:	da000090 	ble	2364 <_vfprintf_r+0x11cc>
    2120:	e28d1060 	add	r1, sp, #96	; 0x60
    2124:	e8910003 	ldm	r1, {r0, r1}
    2128:	e3a02000 	mov	r2, #0
    212c:	e3a03000 	mov	r3, #0
    2130:	ebfff9cd 	bl	86c <__aeabi_dcmpeq>
    2134:	e3500000 	cmp	r0, #0
    2138:	0a000103 	beq	254c <_vfprintf_r+0x13b4>
    213c:	e59d4550 	ldr	r4, [sp, #1360]	; 0x550
    2140:	e59f3630 	ldr	r3, [pc, #1584]	; 2778 <_vfprintf_r+0x15e0>
    2144:	e2844001 	add	r4, r4, #1
    2148:	e5863000 	str	r3, [r6]
    214c:	e2855001 	add	r5, r5, #1
    2150:	e3540007 	cmp	r4, #7
    2154:	e3a03001 	mov	r3, #1
    2158:	e5863004 	str	r3, [r6, #4]
    215c:	e58d5554 	str	r5, [sp, #1364]	; 0x554
    2160:	e58d4550 	str	r4, [sp, #1360]	; 0x550
    2164:	d2866008 	addle	r6, r6, #8
    2168:	ca000335 	bgt	2e44 <_vfprintf_r+0x1cac>
    216c:	e59d3560 	ldr	r3, [sp, #1376]	; 0x560
    2170:	e59d8040 	ldr	r8, [sp, #64]	; 0x40
    2174:	e1580003 	cmp	r8, r3
    2178:	ca000002 	bgt	2188 <_vfprintf_r+0xff0>
    217c:	e59dc024 	ldr	ip, [sp, #36]	; 0x24
    2180:	e31c0001 	tst	ip, #1
    2184:	0affff86 	beq	1fa4 <_vfprintf_r+0xe0c>
    2188:	e59d4550 	ldr	r4, [sp, #1360]	; 0x550
    218c:	e59d8068 	ldr	r8, [sp, #104]	; 0x68
    2190:	e2844001 	add	r4, r4, #1
    2194:	e59dc058 	ldr	ip, [sp, #88]	; 0x58
    2198:	e0855008 	add	r5, r5, r8
    219c:	e3540007 	cmp	r4, #7
    21a0:	e586c000 	str	ip, [r6]
    21a4:	e5868004 	str	r8, [r6, #4]
    21a8:	e58d5554 	str	r5, [sp, #1364]	; 0x554
    21ac:	e58d4550 	str	r4, [sp, #1360]	; 0x550
    21b0:	d2866008 	addle	r6, r6, #8
    21b4:	ca0003c7 	bgt	30d8 <_vfprintf_r+0x1f40>
    21b8:	e59d4040 	ldr	r4, [sp, #64]	; 0x40
    21bc:	e2447001 	sub	r7, r4, #1
    21c0:	e3570000 	cmp	r7, #0
    21c4:	daffff76 	ble	1fa4 <_vfprintf_r+0xe0c>
    21c8:	e3570010 	cmp	r7, #16
    21cc:	e59d4550 	ldr	r4, [sp, #1360]	; 0x550
    21d0:	e59f85a4 	ldr	r8, [pc, #1444]	; 277c <_vfprintf_r+0x15e4>
    21d4:	daffffbb 	ble	20c8 <_vfprintf_r+0xf30>
    21d8:	e1a03004 	mov	r3, r4
    21dc:	e3a0a010 	mov	sl, #16
    21e0:	e59d402c 	ldr	r4, [sp, #44]	; 0x2c
    21e4:	ea000002 	b	21f4 <_vfprintf_r+0x105c>
    21e8:	e2477010 	sub	r7, r7, #16
    21ec:	e3570010 	cmp	r7, #16
    21f0:	daffffb3 	ble	20c4 <_vfprintf_r+0xf2c>
    21f4:	e2833001 	add	r3, r3, #1
    21f8:	e3530007 	cmp	r3, #7
    21fc:	e2855010 	add	r5, r5, #16
    2200:	e8860500 	stm	r6, {r8, sl}
    2204:	e58d5554 	str	r5, [sp, #1364]	; 0x554
    2208:	e58d3550 	str	r3, [sp, #1360]	; 0x550
    220c:	d2866008 	addle	r6, r6, #8
    2210:	dafffff4 	ble	21e8 <_vfprintf_r+0x1050>
    2214:	e28d2d15 	add	r2, sp, #1344	; 0x540
    2218:	e1a00004 	mov	r0, r4
    221c:	e1a01009 	mov	r1, r9
    2220:	e282200c 	add	r2, r2, #12
    2224:	eb0014f4 	bl	75fc <__sprint_r>
    2228:	e3500000 	cmp	r0, #0
    222c:	1afffcf2 	bne	15fc <_vfprintf_r+0x464>
    2230:	e28d3e55 	add	r3, sp, #1360	; 0x550
    2234:	e28d6e4e 	add	r6, sp, #1248	; 0x4e0
    2238:	e8930028 	ldm	r3, {r3, r5}
    223c:	e2866004 	add	r6, r6, #4
    2240:	eaffffe8 	b	21e8 <_vfprintf_r+0x1050>
    2244:	e3520000 	cmp	r2, #0
    2248:	1a0000a4 	bne	24e0 <_vfprintf_r+0x1348>
    224c:	e59d4024 	ldr	r4, [sp, #36]	; 0x24
    2250:	e3140001 	tst	r4, #1
    2254:	0a0000f8 	beq	263c <_vfprintf_r+0x14a4>
    2258:	e59d8074 	ldr	r8, [sp, #116]	; 0x74
    225c:	e28dcd15 	add	ip, sp, #1344	; 0x540
    2260:	e3a03030 	mov	r3, #48	; 0x30
    2264:	e28cc00b 	add	ip, ip, #11
    2268:	e5cd354b 	strb	r3, [sp, #1355]	; 0x54b
    226c:	e58d8038 	str	r8, [sp, #56]	; 0x38
    2270:	e58dc044 	str	ip, [sp, #68]	; 0x44
    2274:	eafffd4a 	b	17a4 <_vfprintf_r+0x60c>
    2278:	e59d4034 	ldr	r4, [sp, #52]	; 0x34
    227c:	e59d8028 	ldr	r8, [sp, #40]	; 0x28
    2280:	e0687004 	rsb	r7, r8, r4
    2284:	e3570000 	cmp	r7, #0
    2288:	dafffefc 	ble	1e80 <_vfprintf_r+0xce8>
    228c:	e3570010 	cmp	r7, #16
    2290:	e59d4550 	ldr	r4, [sp, #1360]	; 0x550
    2294:	e59f84e0 	ldr	r8, [pc, #1248]	; 277c <_vfprintf_r+0x15e4>
    2298:	da00001d 	ble	2314 <_vfprintf_r+0x117c>
    229c:	e1a03004 	mov	r3, r4
    22a0:	e3a0a010 	mov	sl, #16
    22a4:	e59d402c 	ldr	r4, [sp, #44]	; 0x2c
    22a8:	ea000002 	b	22b8 <_vfprintf_r+0x1120>
    22ac:	e2477010 	sub	r7, r7, #16
    22b0:	e3570010 	cmp	r7, #16
    22b4:	da000015 	ble	2310 <_vfprintf_r+0x1178>
    22b8:	e2833001 	add	r3, r3, #1
    22bc:	e3530007 	cmp	r3, #7
    22c0:	e2855010 	add	r5, r5, #16
    22c4:	e8860500 	stm	r6, {r8, sl}
    22c8:	e58d5554 	str	r5, [sp, #1364]	; 0x554
    22cc:	e58d3550 	str	r3, [sp, #1360]	; 0x550
    22d0:	d2866008 	addle	r6, r6, #8
    22d4:	dafffff4 	ble	22ac <_vfprintf_r+0x1114>
    22d8:	e28d2d15 	add	r2, sp, #1344	; 0x540
    22dc:	e1a00004 	mov	r0, r4
    22e0:	e1a01009 	mov	r1, r9
    22e4:	e282200c 	add	r2, r2, #12
    22e8:	eb0014c3 	bl	75fc <__sprint_r>
    22ec:	e3500000 	cmp	r0, #0
    22f0:	1afffcc1 	bne	15fc <_vfprintf_r+0x464>
    22f4:	e2477010 	sub	r7, r7, #16
    22f8:	e28d3e55 	add	r3, sp, #1360	; 0x550
    22fc:	e28d6e4e 	add	r6, sp, #1248	; 0x4e0
    2300:	e3570010 	cmp	r7, #16
    2304:	e8930028 	ldm	r3, {r3, r5}
    2308:	e2866004 	add	r6, r6, #4
    230c:	caffffe9 	bgt	22b8 <_vfprintf_r+0x1120>
    2310:	e1a04003 	mov	r4, r3
    2314:	e2844001 	add	r4, r4, #1
    2318:	e0855007 	add	r5, r5, r7
    231c:	e3540007 	cmp	r4, #7
    2320:	e5868000 	str	r8, [r6]
    2324:	e5867004 	str	r7, [r6, #4]
    2328:	e58d5554 	str	r5, [sp, #1364]	; 0x554
    232c:	e58d4550 	str	r4, [sp, #1360]	; 0x550
    2330:	d2866008 	addle	r6, r6, #8
    2334:	dafffed1 	ble	1e80 <_vfprintf_r+0xce8>
    2338:	e28d2d15 	add	r2, sp, #1344	; 0x540
    233c:	e59d002c 	ldr	r0, [sp, #44]	; 0x2c
    2340:	e1a01009 	mov	r1, r9
    2344:	e282200c 	add	r2, r2, #12
    2348:	eb0014ab 	bl	75fc <__sprint_r>
    234c:	e3500000 	cmp	r0, #0
    2350:	1afffca9 	bne	15fc <_vfprintf_r+0x464>
    2354:	e28d6e4e 	add	r6, sp, #1248	; 0x4e0
    2358:	e59d5554 	ldr	r5, [sp, #1364]	; 0x554
    235c:	e2866004 	add	r6, r6, #4
    2360:	eafffec6 	b	1e80 <_vfprintf_r+0xce8>
    2364:	e59d8040 	ldr	r8, [sp, #64]	; 0x40
    2368:	e59d4550 	ldr	r4, [sp, #1360]	; 0x550
    236c:	e3580001 	cmp	r8, #1
    2370:	e2844001 	add	r4, r4, #1
    2374:	e2855001 	add	r5, r5, #1
    2378:	da000184 	ble	2990 <_vfprintf_r+0x17f8>
    237c:	e59d8044 	ldr	r8, [sp, #68]	; 0x44
    2380:	e3540007 	cmp	r4, #7
    2384:	e3a03001 	mov	r3, #1
    2388:	e5868000 	str	r8, [r6]
    238c:	e5863004 	str	r3, [r6, #4]
    2390:	e58d5554 	str	r5, [sp, #1364]	; 0x554
    2394:	e58d4550 	str	r4, [sp, #1360]	; 0x550
    2398:	d2866008 	addle	r6, r6, #8
    239c:	ca000192 	bgt	29ec <_vfprintf_r+0x1854>
    23a0:	e59dc068 	ldr	ip, [sp, #104]	; 0x68
    23a4:	e2844001 	add	r4, r4, #1
    23a8:	e59d8058 	ldr	r8, [sp, #88]	; 0x58
    23ac:	e085500c 	add	r5, r5, ip
    23b0:	e3540007 	cmp	r4, #7
    23b4:	e8861100 	stm	r6, {r8, ip}
    23b8:	e58d5554 	str	r5, [sp, #1364]	; 0x554
    23bc:	e58d4550 	str	r4, [sp, #1360]	; 0x550
    23c0:	d2866008 	addle	r6, r6, #8
    23c4:	ca000194 	bgt	2a1c <_vfprintf_r+0x1884>
    23c8:	e28d1060 	add	r1, sp, #96	; 0x60
    23cc:	e8910003 	ldm	r1, {r0, r1}
    23d0:	e3a02000 	mov	r2, #0
    23d4:	e3a03000 	mov	r3, #0
    23d8:	ebfff923 	bl	86c <__aeabi_dcmpeq>
    23dc:	e3500000 	cmp	r0, #0
    23e0:	e59dc040 	ldr	ip, [sp, #64]	; 0x40
    23e4:	1a0000d3 	bne	2738 <_vfprintf_r+0x15a0>
    23e8:	e59d8044 	ldr	r8, [sp, #68]	; 0x44
    23ec:	e24c2001 	sub	r2, ip, #1
    23f0:	e2844001 	add	r4, r4, #1
    23f4:	e2883001 	add	r3, r8, #1
    23f8:	e0855002 	add	r5, r5, r2
    23fc:	e3540007 	cmp	r4, #7
    2400:	e5863000 	str	r3, [r6]
    2404:	e5862004 	str	r2, [r6, #4]
    2408:	e58d5554 	str	r5, [sp, #1364]	; 0x554
    240c:	e58d4550 	str	r4, [sp, #1360]	; 0x550
    2410:	ca00001e 	bgt	2490 <_vfprintf_r+0x12f8>
    2414:	e2866008 	add	r6, r6, #8
    2418:	e59dc06c 	ldr	ip, [sp, #108]	; 0x6c
    241c:	e2844001 	add	r4, r4, #1
    2420:	e28d3e55 	add	r3, sp, #1360	; 0x550
    2424:	e085500c 	add	r5, r5, ip
    2428:	e2833008 	add	r3, r3, #8
    242c:	e3540007 	cmp	r4, #7
    2430:	e8861008 	stm	r6, {r3, ip}
    2434:	e58d5554 	str	r5, [sp, #1364]	; 0x554
    2438:	e58d4550 	str	r4, [sp, #1360]	; 0x550
    243c:	dafffed7 	ble	1fa0 <_vfprintf_r+0xe08>
    2440:	e28d2d15 	add	r2, sp, #1344	; 0x540
    2444:	e59d002c 	ldr	r0, [sp, #44]	; 0x2c
    2448:	e1a01009 	mov	r1, r9
    244c:	e282200c 	add	r2, r2, #12
    2450:	eb001469 	bl	75fc <__sprint_r>
    2454:	e3500000 	cmp	r0, #0
    2458:	1afffc67 	bne	15fc <_vfprintf_r+0x464>
    245c:	e28d6e4e 	add	r6, sp, #1248	; 0x4e0
    2460:	e59d5554 	ldr	r5, [sp, #1364]	; 0x554
    2464:	e2866004 	add	r6, r6, #4
    2468:	eafffecd 	b	1fa4 <_vfprintf_r+0xe0c>
    246c:	e1a04003 	mov	r4, r3
    2470:	e2844001 	add	r4, r4, #1
    2474:	e0855007 	add	r5, r5, r7
    2478:	e3540007 	cmp	r4, #7
    247c:	e5868000 	str	r8, [r6]
    2480:	e5867004 	str	r7, [r6, #4]
    2484:	e58d5554 	str	r5, [sp, #1364]	; 0x554
    2488:	e58d4550 	str	r4, [sp, #1360]	; 0x550
    248c:	daffffe0 	ble	2414 <_vfprintf_r+0x127c>
    2490:	e28d2d15 	add	r2, sp, #1344	; 0x540
    2494:	e59d002c 	ldr	r0, [sp, #44]	; 0x2c
    2498:	e1a01009 	mov	r1, r9
    249c:	e282200c 	add	r2, r2, #12
    24a0:	eb001455 	bl	75fc <__sprint_r>
    24a4:	e3500000 	cmp	r0, #0
    24a8:	1afffc53 	bne	15fc <_vfprintf_r+0x464>
    24ac:	e28d6e4e 	add	r6, sp, #1248	; 0x4e0
    24b0:	e28d4e55 	add	r4, sp, #1360	; 0x550
    24b4:	e2866004 	add	r6, r6, #4
    24b8:	e8940030 	ldm	r4, {r4, r5}
    24bc:	eaffffd5 	b	2418 <_vfprintf_r+0x1280>
    24c0:	e28d2d15 	add	r2, sp, #1344	; 0x540
    24c4:	e59d002c 	ldr	r0, [sp, #44]	; 0x2c
    24c8:	e1a01009 	mov	r1, r9
    24cc:	e282200c 	add	r2, r2, #12
    24d0:	eb001449 	bl	75fc <__sprint_r>
    24d4:	e3500000 	cmp	r0, #0
    24d8:	0afffef4 	beq	20b0 <_vfprintf_r+0xf18>
    24dc:	eafffc46 	b	15fc <_vfprintf_r+0x464>
    24e0:	e28d4d15 	add	r4, sp, #1344	; 0x540
    24e4:	e284400c 	add	r4, r4, #12
    24e8:	e58d3038 	str	r3, [sp, #56]	; 0x38
    24ec:	e58d4044 	str	r4, [sp, #68]	; 0x44
    24f0:	eafffcab 	b	17a4 <_vfprintf_r+0x60c>
    24f4:	e28d2d15 	add	r2, sp, #1344	; 0x540
    24f8:	e59d002c 	ldr	r0, [sp, #44]	; 0x2c
    24fc:	e1a01009 	mov	r1, r9
    2500:	e282200c 	add	r2, r2, #12
    2504:	eb00143c 	bl	75fc <__sprint_r>
    2508:	e3500000 	cmp	r0, #0
    250c:	1afffc3a 	bne	15fc <_vfprintf_r+0x464>
    2510:	e28d6e4e 	add	r6, sp, #1248	; 0x4e0
    2514:	e59d5554 	ldr	r5, [sp, #1364]	; 0x554
    2518:	e2866004 	add	r6, r6, #4
    251c:	eafffe44 	b	1e34 <_vfprintf_r+0xc9c>
    2520:	e28d2d15 	add	r2, sp, #1344	; 0x540
    2524:	e59d002c 	ldr	r0, [sp, #44]	; 0x2c
    2528:	e1a01009 	mov	r1, r9
    252c:	e282200c 	add	r2, r2, #12
    2530:	eb001431 	bl	75fc <__sprint_r>
    2534:	e3500000 	cmp	r0, #0
    2538:	1afffc2f 	bne	15fc <_vfprintf_r+0x464>
    253c:	e28d6e4e 	add	r6, sp, #1248	; 0x4e0
    2540:	e59d5554 	ldr	r5, [sp, #1364]	; 0x554
    2544:	e2866004 	add	r6, r6, #4
    2548:	eafffe49 	b	1e74 <_vfprintf_r+0xcdc>
    254c:	e59d7560 	ldr	r7, [sp, #1376]	; 0x560
    2550:	e3570000 	cmp	r7, #0
    2554:	da000245 	ble	2e70 <_vfprintf_r+0x1cd8>
    2558:	e59d7040 	ldr	r7, [sp, #64]	; 0x40
    255c:	e59d405c 	ldr	r4, [sp, #92]	; 0x5c
    2560:	e59d8044 	ldr	r8, [sp, #68]	; 0x44
    2564:	e59dc040 	ldr	ip, [sp, #64]	; 0x40
    2568:	e1570004 	cmp	r7, r4
    256c:	a1a07004 	movge	r7, r4
    2570:	e088800c 	add	r8, r8, ip
    2574:	e3570000 	cmp	r7, #0
    2578:	e58d8038 	str	r8, [sp, #56]	; 0x38
    257c:	da00000a 	ble	25ac <_vfprintf_r+0x1414>
    2580:	e59d4550 	ldr	r4, [sp, #1360]	; 0x550
    2584:	e59d8044 	ldr	r8, [sp, #68]	; 0x44
    2588:	e2844001 	add	r4, r4, #1
    258c:	e0855007 	add	r5, r5, r7
    2590:	e3540007 	cmp	r4, #7
    2594:	e5868000 	str	r8, [r6]
    2598:	e5867004 	str	r7, [r6, #4]
    259c:	e58d5554 	str	r5, [sp, #1364]	; 0x554
    25a0:	e58d4550 	str	r4, [sp, #1360]	; 0x550
    25a4:	d2866008 	addle	r6, r6, #8
    25a8:	ca0002f7 	bgt	318c <_vfprintf_r+0x1ff4>
    25ac:	e59dc05c 	ldr	ip, [sp, #92]	; 0x5c
    25b0:	e1c77fc7 	bic	r7, r7, r7, asr #31
    25b4:	e067700c 	rsb	r7, r7, ip
    25b8:	e3570000 	cmp	r7, #0
    25bc:	da00009d 	ble	2838 <_vfprintf_r+0x16a0>
    25c0:	e3570010 	cmp	r7, #16
    25c4:	e59d4550 	ldr	r4, [sp, #1360]	; 0x550
    25c8:	e59f81ac 	ldr	r8, [pc, #428]	; 277c <_vfprintf_r+0x15e4>
    25cc:	da000086 	ble	27ec <_vfprintf_r+0x1654>
    25d0:	e1a03004 	mov	r3, r4
    25d4:	e3a0a010 	mov	sl, #16
    25d8:	e59d402c 	ldr	r4, [sp, #44]	; 0x2c
    25dc:	ea000002 	b	25ec <_vfprintf_r+0x1454>
    25e0:	e2477010 	sub	r7, r7, #16
    25e4:	e3570010 	cmp	r7, #16
    25e8:	da00007e 	ble	27e8 <_vfprintf_r+0x1650>
    25ec:	e2833001 	add	r3, r3, #1
    25f0:	e3530007 	cmp	r3, #7
    25f4:	e2855010 	add	r5, r5, #16
    25f8:	e8860500 	stm	r6, {r8, sl}
    25fc:	e58d5554 	str	r5, [sp, #1364]	; 0x554
    2600:	e58d3550 	str	r3, [sp, #1360]	; 0x550
    2604:	d2866008 	addle	r6, r6, #8
    2608:	dafffff4 	ble	25e0 <_vfprintf_r+0x1448>
    260c:	e28d2d15 	add	r2, sp, #1344	; 0x540
    2610:	e1a00004 	mov	r0, r4
    2614:	e1a01009 	mov	r1, r9
    2618:	e282200c 	add	r2, r2, #12
    261c:	eb0013f6 	bl	75fc <__sprint_r>
    2620:	e3500000 	cmp	r0, #0
    2624:	1afffbf4 	bne	15fc <_vfprintf_r+0x464>
    2628:	e28d3e55 	add	r3, sp, #1360	; 0x550
    262c:	e28d6e4e 	add	r6, sp, #1248	; 0x4e0
    2630:	e8930028 	ldm	r3, {r3, r5}
    2634:	e2866004 	add	r6, r6, #4
    2638:	eaffffe8 	b	25e0 <_vfprintf_r+0x1448>
    263c:	e28d8d15 	add	r8, sp, #1344	; 0x540
    2640:	e288800c 	add	r8, r8, #12
    2644:	e58d2038 	str	r2, [sp, #56]	; 0x38
    2648:	e58d8044 	str	r8, [sp, #68]	; 0x44
    264c:	eafffc54 	b	17a4 <_vfprintf_r+0x60c>
    2650:	e59dc070 	ldr	ip, [sp, #112]	; 0x70
    2654:	e281100b 	add	r1, r1, #11
    2658:	e1a03224 	lsr	r3, r4, #4
    265c:	e1833e05 	orr	r3, r3, r5, lsl #28
    2660:	e204000f 	and	r0, r4, #15
    2664:	e1a02225 	lsr	r2, r5, #4
    2668:	e1a04003 	mov	r4, r3
    266c:	e1a05002 	mov	r5, r2
    2670:	e7dc3000 	ldrb	r3, [ip, r0]
    2674:	e1948005 	orrs	r8, r4, r5
    2678:	e1a02001 	mov	r2, r1
    267c:	e5c13000 	strb	r3, [r1]
    2680:	e2411001 	sub	r1, r1, #1
    2684:	1afffff3 	bne	2658 <_vfprintf_r+0x14c0>
    2688:	e59dc020 	ldr	ip, [sp, #32]
    268c:	e062c00c 	rsb	ip, r2, ip
    2690:	e58d2044 	str	r2, [sp, #68]	; 0x44
    2694:	e58dc038 	str	ip, [sp, #56]	; 0x38
    2698:	eafffc41 	b	17a4 <_vfprintf_r+0x60c>
    269c:	e3550000 	cmp	r5, #0
    26a0:	03540009 	cmpeq	r4, #9
    26a4:	828d8d15 	addhi	r8, sp, #1344	; 0x540
    26a8:	8288800b 	addhi	r8, r8, #11
    26ac:	81a0a006 	movhi	sl, r6
    26b0:	8a000007 	bhi	26d4 <_vfprintf_r+0x153c>
    26b4:	e2844030 	add	r4, r4, #48	; 0x30
    26b8:	e5cd454b 	strb	r4, [sp, #1355]	; 0x54b
    26bc:	e28d8d15 	add	r8, sp, #1344	; 0x540
    26c0:	e59d4074 	ldr	r4, [sp, #116]	; 0x74
    26c4:	e288800b 	add	r8, r8, #11
    26c8:	e58d4038 	str	r4, [sp, #56]	; 0x38
    26cc:	e58d8044 	str	r8, [sp, #68]	; 0x44
    26d0:	eafffc33 	b	17a4 <_vfprintf_r+0x60c>
    26d4:	e1a00004 	mov	r0, r4
    26d8:	e1a01005 	mov	r1, r5
    26dc:	e3a0200a 	mov	r2, #10
    26e0:	e3a03000 	mov	r3, #0
    26e4:	eb001e5b 	bl	a058 <__aeabi_uldivmod>
    26e8:	e2822030 	add	r2, r2, #48	; 0x30
    26ec:	e5c82000 	strb	r2, [r8]
    26f0:	e1a00004 	mov	r0, r4
    26f4:	e1a01005 	mov	r1, r5
    26f8:	e3a0200a 	mov	r2, #10
    26fc:	e3a03000 	mov	r3, #0
    2700:	eb001e54 	bl	a058 <__aeabi_uldivmod>
    2704:	e1a04000 	mov	r4, r0
    2708:	e1a05001 	mov	r5, r1
    270c:	e194c005 	orrs	ip, r4, r5
    2710:	e1a06008 	mov	r6, r8
    2714:	e2488001 	sub	r8, r8, #1
    2718:	1affffed 	bne	26d4 <_vfprintf_r+0x153c>
    271c:	e58d6044 	str	r6, [sp, #68]	; 0x44
    2720:	e59d3020 	ldr	r3, [sp, #32]
    2724:	e59d4044 	ldr	r4, [sp, #68]	; 0x44
    2728:	e0643003 	rsb	r3, r4, r3
    272c:	e1a0600a 	mov	r6, sl
    2730:	e58d3038 	str	r3, [sp, #56]	; 0x38
    2734:	eafffc1a 	b	17a4 <_vfprintf_r+0x60c>
    2738:	e24c7001 	sub	r7, ip, #1
    273c:	e3570000 	cmp	r7, #0
    2740:	daffff34 	ble	2418 <_vfprintf_r+0x1280>
    2744:	e3570010 	cmp	r7, #16
    2748:	e59f802c 	ldr	r8, [pc, #44]	; 277c <_vfprintf_r+0x15e4>
    274c:	daffff47 	ble	2470 <_vfprintf_r+0x12d8>
    2750:	e1a03004 	mov	r3, r4
    2754:	e3a0a010 	mov	sl, #16
    2758:	e59d402c 	ldr	r4, [sp, #44]	; 0x2c
    275c:	ea00000d 	b	2798 <_vfprintf_r+0x1600>
    2760:	0000aacc 	.word	0x0000aacc
    2764:	0000ac38 	.word	0x0000ac38
    2768:	0000ac3c 	.word	0x0000ac3c
    276c:	0000ac48 	.word	0x0000ac48
    2770:	0000ac5c 	.word	0x0000ac5c
    2774:	66666667 	.word	0x66666667
    2778:	0000ac78 	.word	0x0000ac78
    277c:	0000aadc 	.word	0x0000aadc
    2780:	0000ac40 	.word	0x0000ac40
    2784:	0000ac44 	.word	0x0000ac44
    2788:	0000ac70 	.word	0x0000ac70
    278c:	e2477010 	sub	r7, r7, #16
    2790:	e3570010 	cmp	r7, #16
    2794:	daffff34 	ble	246c <_vfprintf_r+0x12d4>
    2798:	e2833001 	add	r3, r3, #1
    279c:	e3530007 	cmp	r3, #7
    27a0:	e2855010 	add	r5, r5, #16
    27a4:	e8860500 	stm	r6, {r8, sl}
    27a8:	e58d5554 	str	r5, [sp, #1364]	; 0x554
    27ac:	e58d3550 	str	r3, [sp, #1360]	; 0x550
    27b0:	d2866008 	addle	r6, r6, #8
    27b4:	dafffff4 	ble	278c <_vfprintf_r+0x15f4>
    27b8:	e28d2d15 	add	r2, sp, #1344	; 0x540
    27bc:	e1a00004 	mov	r0, r4
    27c0:	e1a01009 	mov	r1, r9
    27c4:	e282200c 	add	r2, r2, #12
    27c8:	eb00138b 	bl	75fc <__sprint_r>
    27cc:	e3500000 	cmp	r0, #0
    27d0:	1afffb89 	bne	15fc <_vfprintf_r+0x464>
    27d4:	e28d3e55 	add	r3, sp, #1360	; 0x550
    27d8:	e28d6e4e 	add	r6, sp, #1248	; 0x4e0
    27dc:	e8930028 	ldm	r3, {r3, r5}
    27e0:	e2866004 	add	r6, r6, #4
    27e4:	eaffffe8 	b	278c <_vfprintf_r+0x15f4>
    27e8:	e1a04003 	mov	r4, r3
    27ec:	e2844001 	add	r4, r4, #1
    27f0:	e0855007 	add	r5, r5, r7
    27f4:	e3540007 	cmp	r4, #7
    27f8:	e5868000 	str	r8, [r6]
    27fc:	e5867004 	str	r7, [r6, #4]
    2800:	e58d5554 	str	r5, [sp, #1364]	; 0x554
    2804:	e58d4550 	str	r4, [sp, #1360]	; 0x550
    2808:	d2866008 	addle	r6, r6, #8
    280c:	da000009 	ble	2838 <_vfprintf_r+0x16a0>
    2810:	e28d2d15 	add	r2, sp, #1344	; 0x540
    2814:	e59d002c 	ldr	r0, [sp, #44]	; 0x2c
    2818:	e1a01009 	mov	r1, r9
    281c:	e282200c 	add	r2, r2, #12
    2820:	eb001375 	bl	75fc <__sprint_r>
    2824:	e3500000 	cmp	r0, #0
    2828:	1afffb73 	bne	15fc <_vfprintf_r+0x464>
    282c:	e28d6e4e 	add	r6, sp, #1248	; 0x4e0
    2830:	e59d5554 	ldr	r5, [sp, #1364]	; 0x554
    2834:	e2866004 	add	r6, r6, #4
    2838:	e59d3560 	ldr	r3, [sp, #1376]	; 0x560
    283c:	e59d4040 	ldr	r4, [sp, #64]	; 0x40
    2840:	e1540003 	cmp	r4, r3
    2844:	ca00003a 	bgt	2934 <_vfprintf_r+0x179c>
    2848:	e59d8024 	ldr	r8, [sp, #36]	; 0x24
    284c:	e3180001 	tst	r8, #1
    2850:	1a000037 	bne	2934 <_vfprintf_r+0x179c>
    2854:	e59dc044 	ldr	ip, [sp, #68]	; 0x44
    2858:	e59d405c 	ldr	r4, [sp, #92]	; 0x5c
    285c:	e59d8038 	ldr	r8, [sp, #56]	; 0x38
    2860:	e08c2004 	add	r2, ip, r4
    2864:	e59dc040 	ldr	ip, [sp, #64]	; 0x40
    2868:	e0627008 	rsb	r7, r2, r8
    286c:	e063300c 	rsb	r3, r3, ip
    2870:	e1530007 	cmp	r3, r7
    2874:	b1a07003 	movlt	r7, r3
    2878:	a1a07007 	movge	r7, r7
    287c:	e3570000 	cmp	r7, #0
    2880:	da000008 	ble	28a8 <_vfprintf_r+0x1710>
    2884:	e59d4550 	ldr	r4, [sp, #1360]	; 0x550
    2888:	e2844001 	add	r4, r4, #1
    288c:	e0855007 	add	r5, r5, r7
    2890:	e3540007 	cmp	r4, #7
    2894:	e8860084 	stm	r6, {r2, r7}
    2898:	e58d5554 	str	r5, [sp, #1364]	; 0x554
    289c:	e58d4550 	str	r4, [sp, #1360]	; 0x550
    28a0:	d2866008 	addle	r6, r6, #8
    28a4:	ca000243 	bgt	31b8 <_vfprintf_r+0x2020>
    28a8:	e1c77fc7 	bic	r7, r7, r7, asr #31
    28ac:	e0677003 	rsb	r7, r7, r3
    28b0:	e3570000 	cmp	r7, #0
    28b4:	dafffdba 	ble	1fa4 <_vfprintf_r+0xe0c>
    28b8:	e3570010 	cmp	r7, #16
    28bc:	e59d4550 	ldr	r4, [sp, #1360]	; 0x550
    28c0:	e51f814c 	ldr	r8, [pc, #-332]	; 277c <_vfprintf_r+0x15e4>
    28c4:	dafffdff 	ble	20c8 <_vfprintf_r+0xf30>
    28c8:	e1a03004 	mov	r3, r4
    28cc:	e3a0a010 	mov	sl, #16
    28d0:	e59d402c 	ldr	r4, [sp, #44]	; 0x2c
    28d4:	ea000002 	b	28e4 <_vfprintf_r+0x174c>
    28d8:	e2477010 	sub	r7, r7, #16
    28dc:	e3570010 	cmp	r7, #16
    28e0:	dafffdf7 	ble	20c4 <_vfprintf_r+0xf2c>
    28e4:	e2833001 	add	r3, r3, #1
    28e8:	e3530007 	cmp	r3, #7
    28ec:	e2855010 	add	r5, r5, #16
    28f0:	e8860500 	stm	r6, {r8, sl}
    28f4:	e58d5554 	str	r5, [sp, #1364]	; 0x554
    28f8:	e58d3550 	str	r3, [sp, #1360]	; 0x550
    28fc:	d2866008 	addle	r6, r6, #8
    2900:	dafffff4 	ble	28d8 <_vfprintf_r+0x1740>
    2904:	e28d2d15 	add	r2, sp, #1344	; 0x540
    2908:	e1a00004 	mov	r0, r4
    290c:	e1a01009 	mov	r1, r9
    2910:	e282200c 	add	r2, r2, #12
    2914:	eb001338 	bl	75fc <__sprint_r>
    2918:	e3500000 	cmp	r0, #0
    291c:	1afffb36 	bne	15fc <_vfprintf_r+0x464>
    2920:	e28d3e55 	add	r3, sp, #1360	; 0x550
    2924:	e28d6e4e 	add	r6, sp, #1248	; 0x4e0
    2928:	e8930028 	ldm	r3, {r3, r5}
    292c:	e2866004 	add	r6, r6, #4
    2930:	eaffffe8 	b	28d8 <_vfprintf_r+0x1740>
    2934:	e59d4550 	ldr	r4, [sp, #1360]	; 0x550
    2938:	e59dc068 	ldr	ip, [sp, #104]	; 0x68
    293c:	e2844001 	add	r4, r4, #1
    2940:	e59d8058 	ldr	r8, [sp, #88]	; 0x58
    2944:	e085500c 	add	r5, r5, ip
    2948:	e3540007 	cmp	r4, #7
    294c:	e8861100 	stm	r6, {r8, ip}
    2950:	e58d5554 	str	r5, [sp, #1364]	; 0x554
    2954:	e58d4550 	str	r4, [sp, #1360]	; 0x550
    2958:	d2866008 	addle	r6, r6, #8
    295c:	daffffbc 	ble	2854 <_vfprintf_r+0x16bc>
    2960:	e28d2d15 	add	r2, sp, #1344	; 0x540
    2964:	e59d002c 	ldr	r0, [sp, #44]	; 0x2c
    2968:	e1a01009 	mov	r1, r9
    296c:	e282200c 	add	r2, r2, #12
    2970:	eb001321 	bl	75fc <__sprint_r>
    2974:	e3500000 	cmp	r0, #0
    2978:	1afffb1f 	bne	15fc <_vfprintf_r+0x464>
    297c:	e28d6e4e 	add	r6, sp, #1248	; 0x4e0
    2980:	e59d3560 	ldr	r3, [sp, #1376]	; 0x560
    2984:	e59d5554 	ldr	r5, [sp, #1364]	; 0x554
    2988:	e2866004 	add	r6, r6, #4
    298c:	eaffffb0 	b	2854 <_vfprintf_r+0x16bc>
    2990:	e59dc024 	ldr	ip, [sp, #36]	; 0x24
    2994:	e31c0001 	tst	ip, #1
    2998:	1afffe77 	bne	237c <_vfprintf_r+0x11e4>
    299c:	e59d8044 	ldr	r8, [sp, #68]	; 0x44
    29a0:	e3a03001 	mov	r3, #1
    29a4:	e3540007 	cmp	r4, #7
    29a8:	e5868000 	str	r8, [r6]
    29ac:	e5863004 	str	r3, [r6, #4]
    29b0:	e58d5554 	str	r5, [sp, #1364]	; 0x554
    29b4:	e58d4550 	str	r4, [sp, #1360]	; 0x550
    29b8:	dafffe95 	ble	2414 <_vfprintf_r+0x127c>
    29bc:	e28d2d15 	add	r2, sp, #1344	; 0x540
    29c0:	e59d002c 	ldr	r0, [sp, #44]	; 0x2c
    29c4:	e1a01009 	mov	r1, r9
    29c8:	e282200c 	add	r2, r2, #12
    29cc:	eb00130a 	bl	75fc <__sprint_r>
    29d0:	e3500000 	cmp	r0, #0
    29d4:	1afffb08 	bne	15fc <_vfprintf_r+0x464>
    29d8:	e28d4e55 	add	r4, sp, #1360	; 0x550
    29dc:	e28d6e4e 	add	r6, sp, #1248	; 0x4e0
    29e0:	e8940030 	ldm	r4, {r4, r5}
    29e4:	e2866004 	add	r6, r6, #4
    29e8:	eafffe8a 	b	2418 <_vfprintf_r+0x1280>
    29ec:	e28d2d15 	add	r2, sp, #1344	; 0x540
    29f0:	e59d002c 	ldr	r0, [sp, #44]	; 0x2c
    29f4:	e1a01009 	mov	r1, r9
    29f8:	e282200c 	add	r2, r2, #12
    29fc:	eb0012fe 	bl	75fc <__sprint_r>
    2a00:	e3500000 	cmp	r0, #0
    2a04:	1afffafc 	bne	15fc <_vfprintf_r+0x464>
    2a08:	e28d4e55 	add	r4, sp, #1360	; 0x550
    2a0c:	e28d6e4e 	add	r6, sp, #1248	; 0x4e0
    2a10:	e8940030 	ldm	r4, {r4, r5}
    2a14:	e2866004 	add	r6, r6, #4
    2a18:	eafffe60 	b	23a0 <_vfprintf_r+0x1208>
    2a1c:	e28d2d15 	add	r2, sp, #1344	; 0x540
    2a20:	e59d002c 	ldr	r0, [sp, #44]	; 0x2c
    2a24:	e1a01009 	mov	r1, r9
    2a28:	e282200c 	add	r2, r2, #12
    2a2c:	eb0012f2 	bl	75fc <__sprint_r>
    2a30:	e3500000 	cmp	r0, #0
    2a34:	1afffaf0 	bne	15fc <_vfprintf_r+0x464>
    2a38:	e28d4e55 	add	r4, sp, #1360	; 0x550
    2a3c:	e28d6e4e 	add	r6, sp, #1248	; 0x4e0
    2a40:	e8940030 	ldm	r4, {r4, r5}
    2a44:	e2866004 	add	r6, r6, #4
    2a48:	eafffe5e 	b	23c8 <_vfprintf_r+0x1230>
    2a4c:	e3530030 	cmp	r3, #48	; 0x30
    2a50:	059dc020 	ldreq	ip, [sp, #32]
    2a54:	159dc020 	ldrne	ip, [sp, #32]
    2a58:	059d4044 	ldreq	r4, [sp, #68]	; 0x44
    2a5c:	12418002 	subne	r8, r1, #2
    2a60:	0064c00c 	rsbeq	ip, r4, ip
    2a64:	13a03030 	movne	r3, #48	; 0x30
    2a68:	1068c00c 	rsbne	ip, r8, ip
    2a6c:	158d8044 	strne	r8, [sp, #68]	; 0x44
    2a70:	15413002 	strbne	r3, [r1, #-2]
    2a74:	e58dc038 	str	ip, [sp, #56]	; 0x38
    2a78:	eafffb49 	b	17a4 <_vfprintf_r+0x60c>
    2a7c:	e2744000 	rsbs	r4, r4, #0
    2a80:	e2e55000 	rsc	r5, r5, #0
    2a84:	e3a0302d 	mov	r3, #45	; 0x2d
    2a88:	e1948005 	orrs	r8, r4, r5
    2a8c:	e5cd356f 	strb	r3, [sp, #1391]	; 0x56f
    2a90:	e3a02001 	mov	r2, #1
    2a94:	03a03000 	moveq	r3, #0
    2a98:	13a03001 	movne	r3, #1
    2a9c:	eafffb1e 	b	171c <_vfprintf_r+0x584>
    2aa0:	eb0011c9 	bl	71cc <__fpclassifyd>
    2aa4:	e3500000 	cmp	r0, #0
    2aa8:	0a000139 	beq	2f94 <_vfprintf_r+0x1dfc>
    2aac:	e3770001 	cmn	r7, #1
    2ab0:	e59dc054 	ldr	ip, [sp, #84]	; 0x54
    2ab4:	0a000213 	beq	3308 <_vfprintf_r+0x2170>
    2ab8:	e35c0067 	cmp	ip, #103	; 0x67
    2abc:	135c0047 	cmpne	ip, #71	; 0x47
    2ac0:	13a03000 	movne	r3, #0
    2ac4:	03a03001 	moveq	r3, #1
    2ac8:	158d3028 	strne	r3, [sp, #40]	; 0x28
    2acc:	1a000004 	bne	2ae4 <_vfprintf_r+0x194c>
    2ad0:	e3570000 	cmp	r7, #0
    2ad4:	13a0c001 	movne	ip, #1
    2ad8:	03a07001 	moveq	r7, #1
    2adc:	158dc028 	strne	ip, [sp, #40]	; 0x28
    2ae0:	058d7028 	streq	r7, [sp, #40]	; 0x28
    2ae4:	e59dc024 	ldr	ip, [sp, #36]	; 0x24
    2ae8:	e3540000 	cmp	r4, #0
    2aec:	e38ccc01 	orr	ip, ip, #256	; 0x100
    2af0:	e58dc024 	str	ip, [sp, #36]	; 0x24
    2af4:	b3a0c02d 	movlt	ip, #45	; 0x2d
    2af8:	a3a0c000 	movge	ip, #0
    2afc:	e58dc048 	str	ip, [sp, #72]	; 0x48
    2b00:	e59dc054 	ldr	ip, [sp, #84]	; 0x54
    2b04:	e24c3066 	sub	r3, ip, #102	; 0x66
    2b08:	b2844102 	addlt	r4, r4, #-2147483648	; 0x80000000
    2b0c:	e273c000 	rsbs	ip, r3, #0
    2b10:	e0acc003 	adc	ip, ip, r3
    2b14:	e1a0500c 	mov	r5, ip
    2b18:	e58dc038 	str	ip, [sp, #56]	; 0x38
    2b1c:	e59dc054 	ldr	ip, [sp, #84]	; 0x54
    2b20:	e35c0046 	cmp	ip, #70	; 0x46
    2b24:	03855001 	orreq	r5, r5, #1
    2b28:	e3550000 	cmp	r5, #0
    2b2c:	11a0a007 	movne	sl, r7
    2b30:	13a01003 	movne	r1, #3
    2b34:	1a000005 	bne	2b50 <_vfprintf_r+0x19b8>
    2b38:	e35c0065 	cmp	ip, #101	; 0x65
    2b3c:	135c0045 	cmpne	ip, #69	; 0x45
    2b40:	0287a001 	addeq	sl, r7, #1
    2b44:	03a01002 	moveq	r1, #2
    2b48:	11a0a007 	movne	sl, r7
    2b4c:	13a01002 	movne	r1, #2
    2b50:	e88d0402 	stm	sp, {r1, sl}
    2b54:	e28d1e56 	add	r1, sp, #1376	; 0x560
    2b58:	e58d1008 	str	r1, [sp, #8]
    2b5c:	e28d1e56 	add	r1, sp, #1376	; 0x560
    2b60:	e2811004 	add	r1, r1, #4
    2b64:	e58d100c 	str	r1, [sp, #12]
    2b68:	e28d1e56 	add	r1, sp, #1376	; 0x560
    2b6c:	e2811008 	add	r1, r1, #8
    2b70:	e1a02008 	mov	r2, r8
    2b74:	e1a03004 	mov	r3, r4
    2b78:	e59d002c 	ldr	r0, [sp, #44]	; 0x2c
    2b7c:	e58d1010 	str	r1, [sp, #16]
    2b80:	eb0002fa 	bl	3770 <_dtoa_r>
    2b84:	e59dc054 	ldr	ip, [sp, #84]	; 0x54
    2b88:	e35c0047 	cmp	ip, #71	; 0x47
    2b8c:	135c0067 	cmpne	ip, #103	; 0x67
    2b90:	e58d0044 	str	r0, [sp, #68]	; 0x44
    2b94:	1a000003 	bne	2ba8 <_vfprintf_r+0x1a10>
    2b98:	e59dc024 	ldr	ip, [sp, #36]	; 0x24
    2b9c:	e31c0001 	tst	ip, #1
    2ba0:	059d5568 	ldreq	r5, [sp, #1384]	; 0x568
    2ba4:	0a000019 	beq	2c10 <_vfprintf_r+0x1a78>
    2ba8:	e59dc044 	ldr	ip, [sp, #68]	; 0x44
    2bac:	e3550000 	cmp	r5, #0
    2bb0:	e08c500a 	add	r5, ip, sl
    2bb4:	0a000004 	beq	2bcc <_vfprintf_r+0x1a34>
    2bb8:	e5dc3000 	ldrb	r3, [ip]
    2bbc:	e3530030 	cmp	r3, #48	; 0x30
    2bc0:	0a00013a 	beq	30b0 <_vfprintf_r+0x1f18>
    2bc4:	e59d3560 	ldr	r3, [sp, #1376]	; 0x560
    2bc8:	e0855003 	add	r5, r5, r3
    2bcc:	e1a00008 	mov	r0, r8
    2bd0:	e1a01004 	mov	r1, r4
    2bd4:	e3a02000 	mov	r2, #0
    2bd8:	e3a03000 	mov	r3, #0
    2bdc:	ebfff722 	bl	86c <__aeabi_dcmpeq>
    2be0:	e3500000 	cmp	r0, #0
    2be4:	158d5568 	strne	r5, [sp, #1384]	; 0x568
    2be8:	1a000008 	bne	2c10 <_vfprintf_r+0x1a78>
    2bec:	e59d3568 	ldr	r3, [sp, #1384]	; 0x568
    2bf0:	e1550003 	cmp	r5, r3
    2bf4:	91a05003 	movls	r5, r3
    2bf8:	9a000004 	bls	2c10 <_vfprintf_r+0x1a78>
    2bfc:	e3a02030 	mov	r2, #48	; 0x30
    2c00:	e4c32001 	strb	r2, [r3], #1
    2c04:	e1530005 	cmp	r3, r5
    2c08:	e58d3568 	str	r3, [sp, #1384]	; 0x568
    2c0c:	1afffffb 	bne	2c00 <_vfprintf_r+0x1a68>
    2c10:	e59d4028 	ldr	r4, [sp, #40]	; 0x28
    2c14:	e59d8044 	ldr	r8, [sp, #68]	; 0x44
    2c18:	e3540000 	cmp	r4, #0
    2c1c:	e0685005 	rsb	r5, r8, r5
    2c20:	e58d5040 	str	r5, [sp, #64]	; 0x40
    2c24:	0a00017a 	beq	3214 <_vfprintf_r+0x207c>
    2c28:	e59d1560 	ldr	r1, [sp, #1376]	; 0x560
    2c2c:	e3710003 	cmn	r1, #3
    2c30:	ba000001 	blt	2c3c <_vfprintf_r+0x1aa4>
    2c34:	e1570001 	cmp	r7, r1
    2c38:	aa00017c 	bge	3230 <_vfprintf_r+0x2098>
    2c3c:	e59dc054 	ldr	ip, [sp, #84]	; 0x54
    2c40:	e24cc002 	sub	ip, ip, #2
    2c44:	e58dc054 	str	ip, [sp, #84]	; 0x54
    2c48:	e2411001 	sub	r1, r1, #1
    2c4c:	e3510000 	cmp	r1, #0
    2c50:	e58d1560 	str	r1, [sp, #1376]	; 0x560
    2c54:	e59d8054 	ldr	r8, [sp, #84]	; 0x54
    2c58:	b2611000 	rsblt	r1, r1, #0
    2c5c:	b3a0302d 	movlt	r3, #45	; 0x2d
    2c60:	a3a0302b 	movge	r3, #43	; 0x2b
    2c64:	e3510009 	cmp	r1, #9
    2c68:	e5cd8558 	strb	r8, [sp, #1368]	; 0x558
    2c6c:	e5cd3559 	strb	r3, [sp, #1369]	; 0x559
    2c70:	da0001ab 	ble	3324 <_vfprintf_r+0x218c>
    2c74:	e28dcd12 	add	ip, sp, #1152	; 0x480
    2c78:	e28cc003 	add	ip, ip, #3
    2c7c:	e1a0000c 	mov	r0, ip
    2c80:	e51f3514 	ldr	r3, [pc, #-1300]	; 2774 <_vfprintf_r+0x15dc>
    2c84:	e0c24193 	smull	r4, r2, r3, r1
    2c88:	e1a03fc1 	asr	r3, r1, #31
    2c8c:	e0633142 	rsb	r3, r3, r2, asr #2
    2c90:	e0832103 	add	r2, r3, r3, lsl #2
    2c94:	e0412082 	sub	r2, r1, r2, lsl #1
    2c98:	e1a01003 	mov	r1, r3
    2c9c:	e3510009 	cmp	r1, #9
    2ca0:	e2823030 	add	r3, r2, #48	; 0x30
    2ca4:	e1a02000 	mov	r2, r0
    2ca8:	e5603001 	strb	r3, [r0, #-1]!
    2cac:	cafffff3 	bgt	2c80 <_vfprintf_r+0x1ae8>
    2cb0:	e2811030 	add	r1, r1, #48	; 0x30
    2cb4:	e5621002 	strb	r1, [r2, #-2]!
    2cb8:	e15c0002 	cmp	ip, r2
    2cbc:	928d1e55 	addls	r1, sp, #1360	; 0x550
    2cc0:	9281100a 	addls	r1, r1, #10
    2cc4:	9a000009 	bls	2cf0 <_vfprintf_r+0x1b58>
    2cc8:	e28d3e55 	add	r3, sp, #1360	; 0x550
    2ccc:	e28d0d12 	add	r0, sp, #1152	; 0x480
    2cd0:	e283300a 	add	r3, r3, #10
    2cd4:	e2800002 	add	r0, r0, #2
    2cd8:	ea000000 	b	2ce0 <_vfprintf_r+0x1b48>
    2cdc:	e5f21001 	ldrb	r1, [r2, #1]!
    2ce0:	e4c31001 	strb	r1, [r3], #1
    2ce4:	e1520000 	cmp	r2, r0
    2ce8:	e1a01003 	mov	r1, r3
    2cec:	1afffffa 	bne	2cdc <_vfprintf_r+0x1b44>
    2cf0:	e28d3e55 	add	r3, sp, #1360	; 0x550
    2cf4:	e59d8040 	ldr	r8, [sp, #64]	; 0x40
    2cf8:	e2833008 	add	r3, r3, #8
    2cfc:	e0633001 	rsb	r3, r3, r1
    2d00:	e083c008 	add	ip, r3, r8
    2d04:	e3580001 	cmp	r8, #1
    2d08:	e58d306c 	str	r3, [sp, #108]	; 0x6c
    2d0c:	e58dc038 	str	ip, [sp, #56]	; 0x38
    2d10:	da00018a 	ble	3340 <_vfprintf_r+0x21a8>
    2d14:	e59dc038 	ldr	ip, [sp, #56]	; 0x38
    2d18:	e28cc001 	add	ip, ip, #1
    2d1c:	e1cc4fcc 	bic	r4, ip, ip, asr #31
    2d20:	e3a08000 	mov	r8, #0
    2d24:	e58dc038 	str	ip, [sp, #56]	; 0x38
    2d28:	e58d4028 	str	r4, [sp, #40]	; 0x28
    2d2c:	e58d805c 	str	r8, [sp, #92]	; 0x5c
    2d30:	e59d8048 	ldr	r8, [sp, #72]	; 0x48
    2d34:	e3580000 	cmp	r8, #0
    2d38:	05dd356f 	ldrbeq	r3, [sp, #1391]	; 0x56f
    2d3c:	0afffaa0 	beq	17c4 <_vfprintf_r+0x62c>
    2d40:	e3a0302d 	mov	r3, #45	; 0x2d
    2d44:	e3a0c000 	mov	ip, #0
    2d48:	e5cd356f 	strb	r3, [sp, #1391]	; 0x56f
    2d4c:	e58dc048 	str	ip, [sp, #72]	; 0x48
    2d50:	eafffa9d 	b	17cc <_vfprintf_r+0x634>
    2d54:	e59dc024 	ldr	ip, [sp, #36]	; 0x24
    2d58:	e31c0040 	tst	ip, #64	; 0x40
    2d5c:	0a0000a4 	beq	2ff4 <_vfprintf_r+0x1e5c>
    2d60:	e59d403c 	ldr	r4, [sp, #60]	; 0x3c
    2d64:	e59d803c 	ldr	r8, [sp, #60]	; 0x3c
    2d68:	e1d430b0 	ldrh	r3, [r4]
    2d6c:	e3a05000 	mov	r5, #0
    2d70:	e1a04003 	mov	r4, r3
    2d74:	e2888004 	add	r8, r8, #4
    2d78:	e0533005 	subs	r3, r3, r5
    2d7c:	13a03001 	movne	r3, #1
    2d80:	e58d803c 	str	r8, [sp, #60]	; 0x3c
    2d84:	e3a02001 	mov	r2, #1
    2d88:	eafffb1a 	b	19f8 <_vfprintf_r+0x860>
    2d8c:	e59dc024 	ldr	ip, [sp, #36]	; 0x24
    2d90:	e31c0040 	tst	ip, #64	; 0x40
    2d94:	0a00008f 	beq	2fd8 <_vfprintf_r+0x1e40>
    2d98:	e59d403c 	ldr	r4, [sp, #60]	; 0x3c
    2d9c:	e1d430b0 	ldrh	r3, [r4]
    2da0:	eafffbb2 	b	1c70 <_vfprintf_r+0xad8>
    2da4:	e59dc024 	ldr	ip, [sp, #36]	; 0x24
    2da8:	e31c0040 	tst	ip, #64	; 0x40
    2dac:	0a00009a 	beq	301c <_vfprintf_r+0x1e84>
    2db0:	e59d403c 	ldr	r4, [sp, #60]	; 0x3c
    2db4:	e59d803c 	ldr	r8, [sp, #60]	; 0x3c
    2db8:	e1d430f0 	ldrsh	r3, [r4]
    2dbc:	e2888004 	add	r8, r8, #4
    2dc0:	e1a05fc3 	asr	r5, r3, #31
    2dc4:	e1a04003 	mov	r4, r3
    2dc8:	e1a00003 	mov	r0, r3
    2dcc:	e1a01005 	mov	r1, r5
    2dd0:	e58d803c 	str	r8, [sp, #60]	; 0x3c
    2dd4:	eafffa49 	b	1700 <_vfprintf_r+0x568>
    2dd8:	e59dc024 	ldr	ip, [sp, #36]	; 0x24
    2ddc:	e21c2040 	ands	r2, ip, #64	; 0x40
    2de0:	0a000096 	beq	3040 <_vfprintf_r+0x1ea8>
    2de4:	e59d403c 	ldr	r4, [sp, #60]	; 0x3c
    2de8:	e59d803c 	ldr	r8, [sp, #60]	; 0x3c
    2dec:	e1d430b0 	ldrh	r3, [r4]
    2df0:	e3a05000 	mov	r5, #0
    2df4:	e1a04003 	mov	r4, r3
    2df8:	e2888004 	add	r8, r8, #4
    2dfc:	e0533005 	subs	r3, r3, r5
    2e00:	13a03001 	movne	r3, #1
    2e04:	e58d803c 	str	r8, [sp, #60]	; 0x3c
    2e08:	e1a02001 	mov	r2, r1
    2e0c:	eafffaf9 	b	19f8 <_vfprintf_r+0x860>
    2e10:	e59dc024 	ldr	ip, [sp, #36]	; 0x24
    2e14:	e31c0010 	tst	ip, #16
    2e18:	1a000056 	bne	2f78 <_vfprintf_r+0x1de0>
    2e1c:	e59dc024 	ldr	ip, [sp, #36]	; 0x24
    2e20:	e31c0040 	tst	ip, #64	; 0x40
    2e24:	0a00010f 	beq	3268 <_vfprintf_r+0x20d0>
    2e28:	e59d403c 	ldr	r4, [sp, #60]	; 0x3c
    2e2c:	e59d8030 	ldr	r8, [sp, #48]	; 0x30
    2e30:	e5943000 	ldr	r3, [r4]
    2e34:	e2844004 	add	r4, r4, #4
    2e38:	e58d403c 	str	r4, [sp, #60]	; 0x3c
    2e3c:	e1c380b0 	strh	r8, [r3]
    2e40:	eafff910 	b	1288 <_vfprintf_r+0xf0>
    2e44:	e28d2d15 	add	r2, sp, #1344	; 0x540
    2e48:	e59d002c 	ldr	r0, [sp, #44]	; 0x2c
    2e4c:	e1a01009 	mov	r1, r9
    2e50:	e282200c 	add	r2, r2, #12
    2e54:	eb0011e8 	bl	75fc <__sprint_r>
    2e58:	e3500000 	cmp	r0, #0
    2e5c:	1afff9e6 	bne	15fc <_vfprintf_r+0x464>
    2e60:	e28d6e4e 	add	r6, sp, #1248	; 0x4e0
    2e64:	e59d5554 	ldr	r5, [sp, #1364]	; 0x554
    2e68:	e2866004 	add	r6, r6, #4
    2e6c:	eafffcbe 	b	216c <_vfprintf_r+0xfd4>
    2e70:	e59d4550 	ldr	r4, [sp, #1360]	; 0x550
    2e74:	e51f3704 	ldr	r3, [pc, #-1796]	; 2778 <_vfprintf_r+0x15e0>
    2e78:	e2844001 	add	r4, r4, #1
    2e7c:	e5863000 	str	r3, [r6]
    2e80:	e2855001 	add	r5, r5, #1
    2e84:	e3540007 	cmp	r4, #7
    2e88:	e3a03001 	mov	r3, #1
    2e8c:	e5863004 	str	r3, [r6, #4]
    2e90:	e58d5554 	str	r5, [sp, #1364]	; 0x554
    2e94:	e58d4550 	str	r4, [sp, #1360]	; 0x550
    2e98:	d2866008 	addle	r6, r6, #8
    2e9c:	ca000077 	bgt	3080 <_vfprintf_r+0x1ee8>
    2ea0:	e3570000 	cmp	r7, #0
    2ea4:	0a00006e 	beq	3064 <_vfprintf_r+0x1ecc>
    2ea8:	e59d4550 	ldr	r4, [sp, #1360]	; 0x550
    2eac:	e59d8068 	ldr	r8, [sp, #104]	; 0x68
    2eb0:	e2844001 	add	r4, r4, #1
    2eb4:	e59dc058 	ldr	ip, [sp, #88]	; 0x58
    2eb8:	e0855008 	add	r5, r5, r8
    2ebc:	e3540007 	cmp	r4, #7
    2ec0:	e586c000 	str	ip, [r6]
    2ec4:	e5868004 	str	r8, [r6, #4]
    2ec8:	e58d5554 	str	r5, [sp, #1364]	; 0x554
    2ecc:	e58d4550 	str	r4, [sp, #1360]	; 0x550
    2ed0:	d2866008 	addle	r6, r6, #8
    2ed4:	ca0000f2 	bgt	32a4 <_vfprintf_r+0x210c>
    2ed8:	e2677000 	rsb	r7, r7, #0
    2edc:	e3570000 	cmp	r7, #0
    2ee0:	da00009c 	ble	3158 <_vfprintf_r+0x1fc0>
    2ee4:	e3570010 	cmp	r7, #16
    2ee8:	e51f8774 	ldr	r8, [pc, #-1908]	; 277c <_vfprintf_r+0x15e4>
    2eec:	da000085 	ble	3108 <_vfprintf_r+0x1f70>
    2ef0:	e1a03004 	mov	r3, r4
    2ef4:	e3a0a010 	mov	sl, #16
    2ef8:	e59d402c 	ldr	r4, [sp, #44]	; 0x2c
    2efc:	ea000002 	b	2f0c <_vfprintf_r+0x1d74>
    2f00:	e2477010 	sub	r7, r7, #16
    2f04:	e3570010 	cmp	r7, #16
    2f08:	da00007d 	ble	3104 <_vfprintf_r+0x1f6c>
    2f0c:	e2833001 	add	r3, r3, #1
    2f10:	e3530007 	cmp	r3, #7
    2f14:	e2855010 	add	r5, r5, #16
    2f18:	e8860500 	stm	r6, {r8, sl}
    2f1c:	e58d5554 	str	r5, [sp, #1364]	; 0x554
    2f20:	e58d3550 	str	r3, [sp, #1360]	; 0x550
    2f24:	d2866008 	addle	r6, r6, #8
    2f28:	dafffff4 	ble	2f00 <_vfprintf_r+0x1d68>
    2f2c:	e28d2d15 	add	r2, sp, #1344	; 0x540
    2f30:	e1a00004 	mov	r0, r4
    2f34:	e1a01009 	mov	r1, r9
    2f38:	e282200c 	add	r2, r2, #12
    2f3c:	eb0011ae 	bl	75fc <__sprint_r>
    2f40:	e3500000 	cmp	r0, #0
    2f44:	1afff9ac 	bne	15fc <_vfprintf_r+0x464>
    2f48:	e28d3e55 	add	r3, sp, #1360	; 0x550
    2f4c:	e28d6e4e 	add	r6, sp, #1248	; 0x4e0
    2f50:	e8930028 	ldm	r3, {r3, r5}
    2f54:	e2866004 	add	r6, r6, #4
    2f58:	eaffffe8 	b	2f00 <_vfprintf_r+0x1d68>
    2f5c:	e59dc038 	ldr	ip, [sp, #56]	; 0x38
    2f60:	e1cccfcc 	bic	ip, ip, ip, asr #31
    2f64:	e58dc028 	str	ip, [sp, #40]	; 0x28
    2f68:	e5dd356f 	ldrb	r3, [sp, #1391]	; 0x56f
    2f6c:	e58d503c 	str	r5, [sp, #60]	; 0x3c
    2f70:	e58d405c 	str	r4, [sp, #92]	; 0x5c
    2f74:	eafffa12 	b	17c4 <_vfprintf_r+0x62c>
    2f78:	e59d403c 	ldr	r4, [sp, #60]	; 0x3c
    2f7c:	e59d8030 	ldr	r8, [sp, #48]	; 0x30
    2f80:	e5943000 	ldr	r3, [r4]
    2f84:	e2844004 	add	r4, r4, #4
    2f88:	e58d403c 	str	r4, [sp, #60]	; 0x3c
    2f8c:	e5838000 	str	r8, [r3]
    2f90:	eafff8bc 	b	1288 <_vfprintf_r+0xf0>
    2f94:	e59dc054 	ldr	ip, [sp, #84]	; 0x54
    2f98:	e3a04003 	mov	r4, #3
    2f9c:	e51f3824 	ldr	r3, [pc, #-2084]	; 2780 <_vfprintf_r+0x15e8>
    2fa0:	e51f8824 	ldr	r8, [pc, #-2084]	; 2784 <_vfprintf_r+0x15ec>
    2fa4:	e58d4028 	str	r4, [sp, #40]	; 0x28
    2fa8:	e35c0047 	cmp	ip, #71	; 0x47
    2fac:	e59d4024 	ldr	r4, [sp, #36]	; 0x24
    2fb0:	d1a08003 	movle	r8, r3
    2fb4:	e58d8044 	str	r8, [sp, #68]	; 0x44
    2fb8:	e3c44080 	bic	r4, r4, #128	; 0x80
    2fbc:	e3a08003 	mov	r8, #3
    2fc0:	e58d0048 	str	r0, [sp, #72]	; 0x48
    2fc4:	e58d4024 	str	r4, [sp, #36]	; 0x24
    2fc8:	e5dd356f 	ldrb	r3, [sp, #1391]	; 0x56f
    2fcc:	e58d8038 	str	r8, [sp, #56]	; 0x38
    2fd0:	e58d005c 	str	r0, [sp, #92]	; 0x5c
    2fd4:	eafff9fa 	b	17c4 <_vfprintf_r+0x62c>
    2fd8:	e59dc03c 	ldr	ip, [sp, #60]	; 0x3c
    2fdc:	e59c3000 	ldr	r3, [ip]
    2fe0:	e28cc004 	add	ip, ip, #4
    2fe4:	e1a04003 	mov	r4, r3
    2fe8:	e3a05000 	mov	r5, #0
    2fec:	e58dc03c 	str	ip, [sp, #60]	; 0x3c
    2ff0:	eafffaa1 	b	1a7c <_vfprintf_r+0x8e4>
    2ff4:	e59dc03c 	ldr	ip, [sp, #60]	; 0x3c
    2ff8:	e59c3000 	ldr	r3, [ip]
    2ffc:	e3a05000 	mov	r5, #0
    3000:	e1a04003 	mov	r4, r3
    3004:	e28cc004 	add	ip, ip, #4
    3008:	e0533005 	subs	r3, r3, r5
    300c:	13a03001 	movne	r3, #1
    3010:	e58dc03c 	str	ip, [sp, #60]	; 0x3c
    3014:	e3a02001 	mov	r2, #1
    3018:	eafffa76 	b	19f8 <_vfprintf_r+0x860>
    301c:	e59dc03c 	ldr	ip, [sp, #60]	; 0x3c
    3020:	e59c3000 	ldr	r3, [ip]
    3024:	e28cc004 	add	ip, ip, #4
    3028:	e1a05fc3 	asr	r5, r3, #31
    302c:	e1a04003 	mov	r4, r3
    3030:	e1a00003 	mov	r0, r3
    3034:	e1a01005 	mov	r1, r5
    3038:	e58dc03c 	str	ip, [sp, #60]	; 0x3c
    303c:	eafff9af 	b	1700 <_vfprintf_r+0x568>
    3040:	e59dc03c 	ldr	ip, [sp, #60]	; 0x3c
    3044:	e59c3000 	ldr	r3, [ip]
    3048:	e3a05000 	mov	r5, #0
    304c:	e1a04003 	mov	r4, r3
    3050:	e28cc004 	add	ip, ip, #4
    3054:	e0533005 	subs	r3, r3, r5
    3058:	13a03001 	movne	r3, #1
    305c:	e58dc03c 	str	ip, [sp, #60]	; 0x3c
    3060:	eafffa64 	b	19f8 <_vfprintf_r+0x860>
    3064:	e59d8040 	ldr	r8, [sp, #64]	; 0x40
    3068:	e3580000 	cmp	r8, #0
    306c:	1affff8d 	bne	2ea8 <_vfprintf_r+0x1d10>
    3070:	e59dc024 	ldr	ip, [sp, #36]	; 0x24
    3074:	e31c0001 	tst	ip, #1
    3078:	0afffbc9 	beq	1fa4 <_vfprintf_r+0xe0c>
    307c:	eaffff89 	b	2ea8 <_vfprintf_r+0x1d10>
    3080:	e28d2d15 	add	r2, sp, #1344	; 0x540
    3084:	e59d002c 	ldr	r0, [sp, #44]	; 0x2c
    3088:	e1a01009 	mov	r1, r9
    308c:	e282200c 	add	r2, r2, #12
    3090:	eb001159 	bl	75fc <__sprint_r>
    3094:	e3500000 	cmp	r0, #0
    3098:	1afff957 	bne	15fc <_vfprintf_r+0x464>
    309c:	e28d6e4e 	add	r6, sp, #1248	; 0x4e0
    30a0:	e59d7560 	ldr	r7, [sp, #1376]	; 0x560
    30a4:	e59d5554 	ldr	r5, [sp, #1364]	; 0x554
    30a8:	e2866004 	add	r6, r6, #4
    30ac:	eaffff7b 	b	2ea0 <_vfprintf_r+0x1d08>
    30b0:	e3a03000 	mov	r3, #0
    30b4:	e1a00008 	mov	r0, r8
    30b8:	e1a01004 	mov	r1, r4
    30bc:	e3a02000 	mov	r2, #0
    30c0:	ebfff5e9 	bl	86c <__aeabi_dcmpeq>
    30c4:	e3500000 	cmp	r0, #0
    30c8:	026a3001 	rsbeq	r3, sl, #1
    30cc:	058d3560 	streq	r3, [sp, #1376]	; 0x560
    30d0:	159d3560 	ldrne	r3, [sp, #1376]	; 0x560
    30d4:	eafffebb 	b	2bc8 <_vfprintf_r+0x1a30>
    30d8:	e28d2d15 	add	r2, sp, #1344	; 0x540
    30dc:	e59d002c 	ldr	r0, [sp, #44]	; 0x2c
    30e0:	e1a01009 	mov	r1, r9
    30e4:	e282200c 	add	r2, r2, #12
    30e8:	eb001143 	bl	75fc <__sprint_r>
    30ec:	e3500000 	cmp	r0, #0
    30f0:	1afff941 	bne	15fc <_vfprintf_r+0x464>
    30f4:	e28d6e4e 	add	r6, sp, #1248	; 0x4e0
    30f8:	e59d5554 	ldr	r5, [sp, #1364]	; 0x554
    30fc:	e2866004 	add	r6, r6, #4
    3100:	eafffc2c 	b	21b8 <_vfprintf_r+0x1020>
    3104:	e1a04003 	mov	r4, r3
    3108:	e2844001 	add	r4, r4, #1
    310c:	e0855007 	add	r5, r5, r7
    3110:	e3540007 	cmp	r4, #7
    3114:	e5868000 	str	r8, [r6]
    3118:	e5867004 	str	r7, [r6, #4]
    311c:	e58d5554 	str	r5, [sp, #1364]	; 0x554
    3120:	e58d4550 	str	r4, [sp, #1360]	; 0x550
    3124:	d2866008 	addle	r6, r6, #8
    3128:	da00000a 	ble	3158 <_vfprintf_r+0x1fc0>
    312c:	e28d2d15 	add	r2, sp, #1344	; 0x540
    3130:	e59d002c 	ldr	r0, [sp, #44]	; 0x2c
    3134:	e1a01009 	mov	r1, r9
    3138:	e282200c 	add	r2, r2, #12
    313c:	eb00112e 	bl	75fc <__sprint_r>
    3140:	e3500000 	cmp	r0, #0
    3144:	1afff92c 	bne	15fc <_vfprintf_r+0x464>
    3148:	e28d4e55 	add	r4, sp, #1360	; 0x550
    314c:	e28d6e4e 	add	r6, sp, #1248	; 0x4e0
    3150:	e8940030 	ldm	r4, {r4, r5}
    3154:	e2866004 	add	r6, r6, #4
    3158:	e2844001 	add	r4, r4, #1
    315c:	e59d8040 	ldr	r8, [sp, #64]	; 0x40
    3160:	eafffb86 	b	1f80 <_vfprintf_r+0xde8>
    3164:	eb00110c 	bl	759c <strlen>
    3168:	e58d4048 	str	r4, [sp, #72]	; 0x48
    316c:	e59d8048 	ldr	r8, [sp, #72]	; 0x48
    3170:	e1c04fc0 	bic	r4, r0, r0, asr #31
    3174:	e58d0038 	str	r0, [sp, #56]	; 0x38
    3178:	e58d4028 	str	r4, [sp, #40]	; 0x28
    317c:	e5dd356f 	ldrb	r3, [sp, #1391]	; 0x56f
    3180:	e58d503c 	str	r5, [sp, #60]	; 0x3c
    3184:	e58d805c 	str	r8, [sp, #92]	; 0x5c
    3188:	eafff98d 	b	17c4 <_vfprintf_r+0x62c>
    318c:	e28d2d15 	add	r2, sp, #1344	; 0x540
    3190:	e59d002c 	ldr	r0, [sp, #44]	; 0x2c
    3194:	e1a01009 	mov	r1, r9
    3198:	e282200c 	add	r2, r2, #12
    319c:	eb001116 	bl	75fc <__sprint_r>
    31a0:	e3500000 	cmp	r0, #0
    31a4:	1afff914 	bne	15fc <_vfprintf_r+0x464>
    31a8:	e28d6e4e 	add	r6, sp, #1248	; 0x4e0
    31ac:	e59d5554 	ldr	r5, [sp, #1364]	; 0x554
    31b0:	e2866004 	add	r6, r6, #4
    31b4:	eafffcfc 	b	25ac <_vfprintf_r+0x1414>
    31b8:	e28d2d15 	add	r2, sp, #1344	; 0x540
    31bc:	e59d002c 	ldr	r0, [sp, #44]	; 0x2c
    31c0:	e1a01009 	mov	r1, r9
    31c4:	e282200c 	add	r2, r2, #12
    31c8:	eb00110b 	bl	75fc <__sprint_r>
    31cc:	e3500000 	cmp	r0, #0
    31d0:	1afff909 	bne	15fc <_vfprintf_r+0x464>
    31d4:	e59d3560 	ldr	r3, [sp, #1376]	; 0x560
    31d8:	e59d4040 	ldr	r4, [sp, #64]	; 0x40
    31dc:	e28d6e4e 	add	r6, sp, #1248	; 0x4e0
    31e0:	e59d5554 	ldr	r5, [sp, #1364]	; 0x554
    31e4:	e0633004 	rsb	r3, r3, r4
    31e8:	e2866004 	add	r6, r6, #4
    31ec:	eafffdad 	b	28a8 <_vfprintf_r+0x1710>
    31f0:	e3570006 	cmp	r7, #6
    31f4:	23a07006 	movcs	r7, #6
    31f8:	e51f4a78 	ldr	r4, [pc, #-2680]	; 2788 <_vfprintf_r+0x15f0>
    31fc:	e1c7cfc7 	bic	ip, r7, r7, asr #31
    3200:	e58d7038 	str	r7, [sp, #56]	; 0x38
    3204:	e58dc028 	str	ip, [sp, #40]	; 0x28
    3208:	e58d503c 	str	r5, [sp, #60]	; 0x3c
    320c:	e58d4044 	str	r4, [sp, #68]	; 0x44
    3210:	eafffa61 	b	1b9c <_vfprintf_r+0xa04>
    3214:	e59d4054 	ldr	r4, [sp, #84]	; 0x54
    3218:	e3540065 	cmp	r4, #101	; 0x65
    321c:	da00005c 	ble	3394 <_vfprintf_r+0x21fc>
    3220:	e59dc038 	ldr	ip, [sp, #56]	; 0x38
    3224:	e35c0000 	cmp	ip, #0
    3228:	e59d1560 	ldr	r1, [sp, #1376]	; 0x560
    322c:	1a00004a 	bne	335c <_vfprintf_r+0x21c4>
    3230:	e59dc040 	ldr	ip, [sp, #64]	; 0x40
    3234:	e15c0001 	cmp	ip, r1
    3238:	ca000026 	bgt	32d8 <_vfprintf_r+0x2140>
    323c:	e59d4024 	ldr	r4, [sp, #36]	; 0x24
    3240:	e3140001 	tst	r4, #1
    3244:	12813001 	addne	r3, r1, #1
    3248:	1a000027 	bne	32ec <_vfprintf_r+0x2154>
    324c:	e1c18fc1 	bic	r8, r1, r1, asr #31
    3250:	e3a0c067 	mov	ip, #103	; 0x67
    3254:	e58d8028 	str	r8, [sp, #40]	; 0x28
    3258:	e58d1038 	str	r1, [sp, #56]	; 0x38
    325c:	e58dc054 	str	ip, [sp, #84]	; 0x54
    3260:	e58d105c 	str	r1, [sp, #92]	; 0x5c
    3264:	eafffeb1 	b	2d30 <_vfprintf_r+0x1b98>
    3268:	e59dc03c 	ldr	ip, [sp, #60]	; 0x3c
    326c:	e59d4030 	ldr	r4, [sp, #48]	; 0x30
    3270:	e59c3000 	ldr	r3, [ip]
    3274:	e28cc004 	add	ip, ip, #4
    3278:	e58dc03c 	str	ip, [sp, #60]	; 0x3c
    327c:	e5834000 	str	r4, [r3]
    3280:	eafff800 	b	1288 <_vfprintf_r+0xf0>
    3284:	e1c78fc7 	bic	r8, r7, r7, asr #31
    3288:	e58d0048 	str	r0, [sp, #72]	; 0x48
    328c:	e58d8028 	str	r8, [sp, #40]	; 0x28
    3290:	e5dd356f 	ldrb	r3, [sp, #1391]	; 0x56f
    3294:	e58d503c 	str	r5, [sp, #60]	; 0x3c
    3298:	e58d7038 	str	r7, [sp, #56]	; 0x38
    329c:	e58d005c 	str	r0, [sp, #92]	; 0x5c
    32a0:	eafff947 	b	17c4 <_vfprintf_r+0x62c>
    32a4:	e28d2d15 	add	r2, sp, #1344	; 0x540
    32a8:	e59d002c 	ldr	r0, [sp, #44]	; 0x2c
    32ac:	e1a01009 	mov	r1, r9
    32b0:	e282200c 	add	r2, r2, #12
    32b4:	eb0010d0 	bl	75fc <__sprint_r>
    32b8:	e3500000 	cmp	r0, #0
    32bc:	1afff8ce 	bne	15fc <_vfprintf_r+0x464>
    32c0:	e28d4e55 	add	r4, sp, #1360	; 0x550
    32c4:	e28d6e4e 	add	r6, sp, #1248	; 0x4e0
    32c8:	e59d7560 	ldr	r7, [sp, #1376]	; 0x560
    32cc:	e8940030 	ldm	r4, {r4, r5}
    32d0:	e2866004 	add	r6, r6, #4
    32d4:	eafffeff 	b	2ed8 <_vfprintf_r+0x1d40>
    32d8:	e3510000 	cmp	r1, #0
    32dc:	e59dc040 	ldr	ip, [sp, #64]	; 0x40
    32e0:	d2613002 	rsble	r3, r1, #2
    32e4:	c3a03001 	movgt	r3, #1
    32e8:	e083300c 	add	r3, r3, ip
    32ec:	e1c34fc3 	bic	r4, r3, r3, asr #31
    32f0:	e3a08067 	mov	r8, #103	; 0x67
    32f4:	e58d3038 	str	r3, [sp, #56]	; 0x38
    32f8:	e58d4028 	str	r4, [sp, #40]	; 0x28
    32fc:	e58d8054 	str	r8, [sp, #84]	; 0x54
    3300:	e58d105c 	str	r1, [sp, #92]	; 0x5c
    3304:	eafffe89 	b	2d30 <_vfprintf_r+0x1b98>
    3308:	e35c0047 	cmp	ip, #71	; 0x47
    330c:	135c0067 	cmpne	ip, #103	; 0x67
    3310:	13a0c000 	movne	ip, #0
    3314:	03a0c001 	moveq	ip, #1
    3318:	e58dc028 	str	ip, [sp, #40]	; 0x28
    331c:	e3a07006 	mov	r7, #6
    3320:	eafffdef 	b	2ae4 <_vfprintf_r+0x194c>
    3324:	e2811030 	add	r1, r1, #48	; 0x30
    3328:	e3a03030 	mov	r3, #48	; 0x30
    332c:	e5cd155b 	strb	r1, [sp, #1371]	; 0x55b
    3330:	e28d1e55 	add	r1, sp, #1360	; 0x550
    3334:	e5cd355a 	strb	r3, [sp, #1370]	; 0x55a
    3338:	e281100c 	add	r1, r1, #12
    333c:	eafffe6b 	b	2cf0 <_vfprintf_r+0x1b58>
    3340:	e59d4024 	ldr	r4, [sp, #36]	; 0x24
    3344:	e2143001 	ands	r3, r4, #1
    3348:	1afffe71 	bne	2d14 <_vfprintf_r+0x1b7c>
    334c:	e1cc8fcc 	bic	r8, ip, ip, asr #31
    3350:	e58d8028 	str	r8, [sp, #40]	; 0x28
    3354:	e58d305c 	str	r3, [sp, #92]	; 0x5c
    3358:	eafffe74 	b	2d30 <_vfprintf_r+0x1b98>
    335c:	e3510000 	cmp	r1, #0
    3360:	da00001f 	ble	33e4 <_vfprintf_r+0x224c>
    3364:	e3570000 	cmp	r7, #0
    3368:	1a000014 	bne	33c0 <_vfprintf_r+0x2228>
    336c:	e59d4024 	ldr	r4, [sp, #36]	; 0x24
    3370:	e3140001 	tst	r4, #1
    3374:	1a000011 	bne	33c0 <_vfprintf_r+0x2228>
    3378:	e1c18fc1 	bic	r8, r1, r1, asr #31
    337c:	e3a0c066 	mov	ip, #102	; 0x66
    3380:	e58d8028 	str	r8, [sp, #40]	; 0x28
    3384:	e58d1038 	str	r1, [sp, #56]	; 0x38
    3388:	e58dc054 	str	ip, [sp, #84]	; 0x54
    338c:	e58d105c 	str	r1, [sp, #92]	; 0x5c
    3390:	eafffe66 	b	2d30 <_vfprintf_r+0x1b98>
    3394:	e59d1560 	ldr	r1, [sp, #1376]	; 0x560
    3398:	eafffe2a 	b	2c48 <_vfprintf_r+0x1ab0>
    339c:	e59dc03c 	ldr	ip, [sp, #60]	; 0x3c
    33a0:	e59c7000 	ldr	r7, [ip]
    33a4:	e28c3004 	add	r3, ip, #4
    33a8:	e3570000 	cmp	r7, #0
    33ac:	e5db2001 	ldrb	r2, [fp, #1]
    33b0:	e58d303c 	str	r3, [sp, #60]	; 0x3c
    33b4:	e1a0b000 	mov	fp, r0
    33b8:	b3e07000 	mvnlt	r7, #0
    33bc:	eafff7d8 	b	1324 <_vfprintf_r+0x18c>
    33c0:	e2877001 	add	r7, r7, #1
    33c4:	e0817007 	add	r7, r1, r7
    33c8:	e1c74fc7 	bic	r4, r7, r7, asr #31
    33cc:	e3a08066 	mov	r8, #102	; 0x66
    33d0:	e58d7038 	str	r7, [sp, #56]	; 0x38
    33d4:	e58d4028 	str	r4, [sp, #40]	; 0x28
    33d8:	e58d8054 	str	r8, [sp, #84]	; 0x54
    33dc:	e58d105c 	str	r1, [sp, #92]	; 0x5c
    33e0:	eafffe52 	b	2d30 <_vfprintf_r+0x1b98>
    33e4:	e3570000 	cmp	r7, #0
    33e8:	1a000002 	bne	33f8 <_vfprintf_r+0x2260>
    33ec:	e59dc024 	ldr	ip, [sp, #36]	; 0x24
    33f0:	e31c0001 	tst	ip, #1
    33f4:	0a000001 	beq	3400 <_vfprintf_r+0x2268>
    33f8:	e2877002 	add	r7, r7, #2
    33fc:	eafffff1 	b	33c8 <_vfprintf_r+0x2230>
    3400:	e3a0c001 	mov	ip, #1
    3404:	e3a04066 	mov	r4, #102	; 0x66
    3408:	e58dc028 	str	ip, [sp, #40]	; 0x28
    340c:	e58d4054 	str	r4, [sp, #84]	; 0x54
    3410:	e58dc038 	str	ip, [sp, #56]	; 0x38
    3414:	e58d105c 	str	r1, [sp, #92]	; 0x5c
    3418:	eafffe44 	b	2d30 <_vfprintf_r+0x1b98>

0000341c <vfprintf>:
    341c:	e52d4004 	push	{r4}		; (str r4, [sp, #-4]!)
    3420:	e1a03002 	mov	r3, r2
    3424:	e59f2018 	ldr	r2, [pc, #24]	; 3444 <vfprintf+0x28>
    3428:	e1a04000 	mov	r4, r0
    342c:	e1a0c001 	mov	ip, r1
    3430:	e5920000 	ldr	r0, [r2]
    3434:	e1a01004 	mov	r1, r4
    3438:	e1a0200c 	mov	r2, ip
    343c:	e8bd0010 	pop	{r4}
    3440:	eafff754 	b	1198 <_vfprintf_r>
    3444:	40000000 	.word	0x40000000

00003448 <__swsetup_r>:
    3448:	e92d4038 	push	{r3, r4, r5, lr}
    344c:	e59f311c 	ldr	r3, [pc, #284]	; 3570 <__swsetup_r+0x128>
    3450:	e5933000 	ldr	r3, [r3]
    3454:	e3530000 	cmp	r3, #0
    3458:	e1a05000 	mov	r5, r0
    345c:	e1a04001 	mov	r4, r1
    3460:	0a000002 	beq	3470 <__swsetup_r+0x28>
    3464:	e5932038 	ldr	r2, [r3, #56]	; 0x38
    3468:	e3520000 	cmp	r2, #0
    346c:	0a000033 	beq	3540 <__swsetup_r+0xf8>
    3470:	e1d400bc 	ldrh	r0, [r4, #12]
    3474:	e3100008 	tst	r0, #8
    3478:	e1a03000 	mov	r3, r0
    347c:	15942010 	ldrne	r2, [r4, #16]
    3480:	1a000016 	bne	34e0 <__swsetup_r+0x98>
    3484:	e3100010 	tst	r0, #16
    3488:	03e00000 	mvneq	r0, #0
    348c:	0a00001d 	beq	3508 <__swsetup_r+0xc0>
    3490:	e3100004 	tst	r0, #4
    3494:	05942010 	ldreq	r2, [r4, #16]
    3498:	0a00000e 	beq	34d8 <__swsetup_r+0x90>
    349c:	e5941030 	ldr	r1, [r4, #48]	; 0x30
    34a0:	e3510000 	cmp	r1, #0
    34a4:	0a000007 	beq	34c8 <__swsetup_r+0x80>
    34a8:	e2843040 	add	r3, r4, #64	; 0x40
    34ac:	e1510003 	cmp	r1, r3
    34b0:	0a000002 	beq	34c0 <__swsetup_r+0x78>
    34b4:	e1a00005 	mov	r0, r5
    34b8:	eb0007e1 	bl	5444 <_free_r>
    34bc:	e1d400bc 	ldrh	r0, [r4, #12]
    34c0:	e3a03000 	mov	r3, #0
    34c4:	e5843030 	str	r3, [r4, #48]	; 0x30
    34c8:	e5942010 	ldr	r2, [r4, #16]
    34cc:	e3a03000 	mov	r3, #0
    34d0:	e884000c 	stm	r4, {r2, r3}
    34d4:	e3c00024 	bic	r0, r0, #36	; 0x24
    34d8:	e3803008 	orr	r3, r0, #8
    34dc:	e1c430bc 	strh	r3, [r4, #12]
    34e0:	e3520000 	cmp	r2, #0
    34e4:	0a000018 	beq	354c <__swsetup_r+0x104>
    34e8:	e2131001 	ands	r1, r3, #1
    34ec:	1a000007 	bne	3510 <__swsetup_r+0xc8>
    34f0:	e3130002 	tst	r3, #2
    34f4:	05941014 	ldreq	r1, [r4, #20]
    34f8:	e3520000 	cmp	r2, #0
    34fc:	e5841008 	str	r1, [r4, #8]
    3500:	13a00000 	movne	r0, #0
    3504:	0a000009 	beq	3530 <__swsetup_r+0xe8>
    3508:	e8bd4038 	pop	{r3, r4, r5, lr}
    350c:	e12fff1e 	bx	lr
    3510:	e5943014 	ldr	r3, [r4, #20]
    3514:	e3a01000 	mov	r1, #0
    3518:	e2633000 	rsb	r3, r3, #0
    351c:	e3520000 	cmp	r2, #0
    3520:	e5841008 	str	r1, [r4, #8]
    3524:	e5843018 	str	r3, [r4, #24]
    3528:	13a00000 	movne	r0, #0
    352c:	1afffff5 	bne	3508 <__swsetup_r+0xc0>
    3530:	e1d400bc 	ldrh	r0, [r4, #12]
    3534:	e2100080 	ands	r0, r0, #128	; 0x80
    3538:	13e00000 	mvnne	r0, #0
    353c:	eafffff1 	b	3508 <__swsetup_r+0xc0>
    3540:	e1a00003 	mov	r0, r3
    3544:	eb000704 	bl	515c <__sinit>
    3548:	eaffffc8 	b	3470 <__swsetup_r+0x28>
    354c:	e2031d0a 	and	r1, r3, #640	; 0x280
    3550:	e3510c02 	cmp	r1, #512	; 0x200
    3554:	0affffe3 	beq	34e8 <__swsetup_r+0xa0>
    3558:	e1a00005 	mov	r0, r5
    355c:	e1a01004 	mov	r1, r4
    3560:	eb0008c7 	bl	5884 <__smakebuf_r>
    3564:	e1d430bc 	ldrh	r3, [r4, #12]
    3568:	e5942010 	ldr	r2, [r4, #16]
    356c:	eaffffdd 	b	34e8 <__swsetup_r+0xa0>
    3570:	40000000 	.word	0x40000000
    3574:	00000000 	.word	0x00000000

00003578 <quorem>:
    3578:	e92d4ff0 	push	{r4, r5, r6, r7, r8, r9, sl, fp, lr}
    357c:	e5903010 	ldr	r3, [r0, #16]
    3580:	e5919010 	ldr	r9, [r1, #16]
    3584:	e1590003 	cmp	r9, r3
    3588:	e1a08000 	mov	r8, r0
    358c:	e24dd00c 	sub	sp, sp, #12
    3590:	e1a0a001 	mov	sl, r1
    3594:	c3a00000 	movgt	r0, #0
    3598:	ca000071 	bgt	3764 <quorem+0x1ec>
    359c:	e2893003 	add	r3, r9, #3
    35a0:	e1a03103 	lsl	r3, r3, #2
    35a4:	e0817003 	add	r7, r1, r3
    35a8:	e5971004 	ldr	r1, [r7, #4]
    35ac:	e0803003 	add	r3, r0, r3
    35b0:	e5930004 	ldr	r0, [r3, #4]
    35b4:	e2811001 	add	r1, r1, #1
    35b8:	ebfff2d9 	bl	124 <__aeabi_uidiv>
    35bc:	e2882014 	add	r2, r8, #20
    35c0:	e2506000 	subs	r6, r0, #0
    35c4:	e2877004 	add	r7, r7, #4
    35c8:	e28a5014 	add	r5, sl, #20
    35cc:	e2494001 	sub	r4, r9, #1
    35d0:	e58d2004 	str	r2, [sp, #4]
    35d4:	0a000031 	beq	36a0 <quorem+0x128>
    35d8:	e3a01000 	mov	r1, #0
    35dc:	e1a03005 	mov	r3, r5
    35e0:	e1a0e001 	mov	lr, r1
    35e4:	e4930004 	ldr	r0, [r3], #4
    35e8:	e1a0c800 	lsl	ip, r0, #16
    35ec:	e1a0c82c 	lsr	ip, ip, #16
    35f0:	e1a00820 	lsr	r0, r0, #16
    35f4:	e02c1c96 	mla	ip, r6, ip, r1
    35f8:	e0010096 	mul	r1, r6, r0
    35fc:	e5920000 	ldr	r0, [r2]
    3600:	e081182c 	add	r1, r1, ip, lsr #16
    3604:	e1a0b800 	lsl	fp, r0, #16
    3608:	e08ee82b 	add	lr, lr, fp, lsr #16
    360c:	e1a0c80c 	lsl	ip, ip, #16
    3610:	e1a0b801 	lsl	fp, r1, #16
    3614:	e04ec82c 	sub	ip, lr, ip, lsr #16
    3618:	e1a0e82b 	lsr	lr, fp, #16
    361c:	e06ee820 	rsb	lr, lr, r0, lsr #16
    3620:	e1a0080c 	lsl	r0, ip, #16
    3624:	e08ee84c 	add	lr, lr, ip, asr #16
    3628:	e1a00820 	lsr	r0, r0, #16
    362c:	e180080e 	orr	r0, r0, lr, lsl #16
    3630:	e1570003 	cmp	r7, r3
    3634:	e1a01821 	lsr	r1, r1, #16
    3638:	e1a0e84e 	asr	lr, lr, #16
    363c:	e4820004 	str	r0, [r2], #4
    3640:	2affffe7 	bcs	35e4 <quorem+0x6c>
    3644:	e2842004 	add	r2, r4, #4
    3648:	e0883102 	add	r3, r8, r2, lsl #2
    364c:	e5931004 	ldr	r1, [r3, #4]
    3650:	e3510000 	cmp	r1, #0
    3654:	1a000011 	bne	36a0 <quorem+0x128>
    3658:	e59d1004 	ldr	r1, [sp, #4]
    365c:	e1510003 	cmp	r1, r3
    3660:	2a00000d 	bcs	369c <quorem+0x124>
    3664:	e7982102 	ldr	r2, [r8, r2, lsl #2]
    3668:	e3520000 	cmp	r2, #0
    366c:	1a00000a 	bne	369c <quorem+0x124>
    3670:	e1e02001 	mvn	r2, r1
    3674:	e2499002 	sub	r9, r9, #2
    3678:	e0822003 	add	r2, r2, r3
    367c:	e0499122 	sub	r9, r9, r2, lsr #2
    3680:	ea000002 	b	3690 <quorem+0x118>
    3684:	e5332004 	ldr	r2, [r3, #-4]!
    3688:	e3520000 	cmp	r2, #0
    368c:	1a000002 	bne	369c <quorem+0x124>
    3690:	e2444001 	sub	r4, r4, #1
    3694:	e1540009 	cmp	r4, r9
    3698:	1afffff9 	bne	3684 <quorem+0x10c>
    369c:	e5884010 	str	r4, [r8, #16]
    36a0:	e1a00008 	mov	r0, r8
    36a4:	e1a0100a 	mov	r1, sl
    36a8:	eb000d56 	bl	6c08 <__mcmp>
    36ac:	e3500000 	cmp	r0, #0
    36b0:	ba00002a 	blt	3760 <quorem+0x1e8>
    36b4:	e59d3004 	ldr	r3, [sp, #4]
    36b8:	e2866001 	add	r6, r6, #1
    36bc:	e3a02000 	mov	r2, #0
    36c0:	e495c004 	ldr	ip, [r5], #4
    36c4:	e5930000 	ldr	r0, [r3]
    36c8:	e1a0180c 	lsl	r1, ip, #16
    36cc:	e1a0a800 	lsl	sl, r0, #16
    36d0:	e1a01821 	lsr	r1, r1, #16
    36d4:	e061182a 	rsb	r1, r1, sl, lsr #16
    36d8:	e0811002 	add	r1, r1, r2
    36dc:	e1a0282c 	lsr	r2, ip, #16
    36e0:	e0622820 	rsb	r2, r2, r0, lsr #16
    36e4:	e1a0a801 	lsl	sl, r1, #16
    36e8:	e0822841 	add	r2, r2, r1, asr #16
    36ec:	e1a0182a 	lsr	r1, sl, #16
    36f0:	e1811802 	orr	r1, r1, r2, lsl #16
    36f4:	e1570005 	cmp	r7, r5
    36f8:	e1a02842 	asr	r2, r2, #16
    36fc:	e4831004 	str	r1, [r3], #4
    3700:	2affffee 	bcs	36c0 <quorem+0x148>
    3704:	e2842004 	add	r2, r4, #4
    3708:	e0883102 	add	r3, r8, r2, lsl #2
    370c:	e5931004 	ldr	r1, [r3, #4]
    3710:	e3510000 	cmp	r1, #0
    3714:	1a000011 	bne	3760 <quorem+0x1e8>
    3718:	e59d1004 	ldr	r1, [sp, #4]
    371c:	e1510003 	cmp	r1, r3
    3720:	2a00000d 	bcs	375c <quorem+0x1e4>
    3724:	e7982102 	ldr	r2, [r8, r2, lsl #2]
    3728:	e3520000 	cmp	r2, #0
    372c:	1a00000a 	bne	375c <quorem+0x1e4>
    3730:	e1e01001 	mvn	r1, r1
    3734:	e0811003 	add	r1, r1, r3
    3738:	e1e01121 	mvn	r1, r1, lsr #2
    373c:	e0841001 	add	r1, r4, r1
    3740:	ea000002 	b	3750 <quorem+0x1d8>
    3744:	e5332004 	ldr	r2, [r3, #-4]!
    3748:	e3520000 	cmp	r2, #0
    374c:	1a000002 	bne	375c <quorem+0x1e4>
    3750:	e2444001 	sub	r4, r4, #1
    3754:	e1540001 	cmp	r4, r1
    3758:	1afffff9 	bne	3744 <quorem+0x1cc>
    375c:	e5884010 	str	r4, [r8, #16]
    3760:	e1a00006 	mov	r0, r6
    3764:	e28dd00c 	add	sp, sp, #12
    3768:	e8bd4ff0 	pop	{r4, r5, r6, r7, r8, r9, sl, fp, lr}
    376c:	e12fff1e 	bx	lr

00003770 <_dtoa_r>:
    3770:	e92d4ff0 	push	{r4, r5, r6, r7, r8, r9, sl, fp, lr}
    3774:	e5901040 	ldr	r1, [r0, #64]	; 0x40
    3778:	e24dd07c 	sub	sp, sp, #124	; 0x7c
    377c:	e3510000 	cmp	r1, #0
    3780:	e1a06000 	mov	r6, r0
    3784:	e59d50ac 	ldr	r5, [sp, #172]	; 0xac
    3788:	e1a0a002 	mov	sl, r2
    378c:	e1a0b003 	mov	fp, r3
    3790:	0a000007 	beq	37b4 <_dtoa_r+0x44>
    3794:	e5903044 	ldr	r3, [r0, #68]	; 0x44
    3798:	e3a02001 	mov	r2, #1
    379c:	e1a02312 	lsl	r2, r2, r3
    37a0:	e5813004 	str	r3, [r1, #4]
    37a4:	e5812008 	str	r2, [r1, #8]
    37a8:	eb000b63 	bl	653c <_Bfree>
    37ac:	e3a03000 	mov	r3, #0
    37b0:	e5863040 	str	r3, [r6, #64]	; 0x40
    37b4:	e25b4000 	subs	r4, fp, #0
    37b8:	b3a03001 	movlt	r3, #1
    37bc:	a3a03000 	movge	r3, #0
    37c0:	b5853000 	strlt	r3, [r5]
    37c4:	a5853000 	strge	r3, [r5]
    37c8:	e59f34b0 	ldr	r3, [pc, #1200]	; 3c80 <_dtoa_r+0x510>
    37cc:	b3c44102 	biclt	r4, r4, #-2147483648	; 0x80000000
    37d0:	e59f24a8 	ldr	r2, [pc, #1192]	; 3c80 <_dtoa_r+0x510>
    37d4:	e0043003 	and	r3, r4, r3
    37d8:	b1a0b004 	movlt	fp, r4
    37dc:	e1530002 	cmp	r3, r2
    37e0:	0a000018 	beq	3848 <_dtoa_r+0xd8>
    37e4:	e3a03000 	mov	r3, #0
    37e8:	e1a0000a 	mov	r0, sl
    37ec:	e1a0100b 	mov	r1, fp
    37f0:	e3a02000 	mov	r2, #0
    37f4:	ebfff41c 	bl	86c <__aeabi_dcmpeq>
    37f8:	e3500000 	cmp	r0, #0
    37fc:	e3a03001 	mov	r3, #1
    3800:	13a03000 	movne	r3, #0
    3804:	e31300ff 	tst	r3, #255	; 0xff
    3808:	e1a0800a 	mov	r8, sl
    380c:	e1a0900b 	mov	r9, fp
    3810:	1a00001c 	bne	3888 <_dtoa_r+0x118>
    3814:	e59d40b0 	ldr	r4, [sp, #176]	; 0xb0
    3818:	e59dc0a8 	ldr	ip, [sp, #168]	; 0xa8
    381c:	e3540000 	cmp	r4, #0
    3820:	e3a03001 	mov	r3, #1
    3824:	e58c3000 	str	r3, [ip]
    3828:	059f8430 	ldreq	r8, [pc, #1072]	; 3c60 <_dtoa_r+0x4f0>
    382c:	159f8430 	ldrne	r8, [pc, #1072]	; 3c64 <_dtoa_r+0x4f4>
    3830:	15848000 	strne	r8, [r4]
    3834:	12488001 	subne	r8, r8, #1
    3838:	e1a00008 	mov	r0, r8
    383c:	e28dd07c 	add	sp, sp, #124	; 0x7c
    3840:	e8bd4ff0 	pop	{r4, r5, r6, r7, r8, r9, sl, fp, lr}
    3844:	e12fff1e 	bx	lr
    3848:	e59f3418 	ldr	r3, [pc, #1048]	; 3c68 <_dtoa_r+0x4f8>
    384c:	e59dc0a8 	ldr	ip, [sp, #168]	; 0xa8
    3850:	e35a0000 	cmp	sl, #0
    3854:	e58c3000 	str	r3, [ip]
    3858:	159f840c 	ldrne	r8, [pc, #1036]	; 3c6c <_dtoa_r+0x4fc>
    385c:	0a00008f 	beq	3aa0 <_dtoa_r+0x330>
    3860:	e59d40b0 	ldr	r4, [sp, #176]	; 0xb0
    3864:	e3540000 	cmp	r4, #0
    3868:	0afffff2 	beq	3838 <_dtoa_r+0xc8>
    386c:	e5d83003 	ldrb	r3, [r8, #3]
    3870:	e59dc0b0 	ldr	ip, [sp, #176]	; 0xb0
    3874:	e3530000 	cmp	r3, #0
    3878:	12883008 	addne	r3, r8, #8
    387c:	02883003 	addeq	r3, r8, #3
    3880:	e58c3000 	str	r3, [ip]
    3884:	eaffffeb 	b	3838 <_dtoa_r+0xc8>
    3888:	e28d1074 	add	r1, sp, #116	; 0x74
    388c:	e58d1000 	str	r1, [sp]
    3890:	e1a00006 	mov	r0, r6
    3894:	e28d1070 	add	r1, sp, #112	; 0x70
    3898:	e1a0200a 	mov	r2, sl
    389c:	e1a0300b 	mov	r3, fp
    38a0:	e58d1004 	str	r1, [sp, #4]
    38a4:	eb000d8c 	bl	6edc <__d2b>
    38a8:	e1a05084 	lsl	r5, r4, #1
    38ac:	e1b05aa5 	lsrs	r5, r5, #21
    38b0:	e58d0044 	str	r0, [sp, #68]	; 0x44
    38b4:	1a000081 	bne	3ac0 <_dtoa_r+0x350>
    38b8:	e59d7070 	ldr	r7, [sp, #112]	; 0x70
    38bc:	e59d5074 	ldr	r5, [sp, #116]	; 0x74
    38c0:	e3e03e41 	mvn	r3, #1040	; 0x410
    38c4:	e0875005 	add	r5, r7, r5
    38c8:	e1550003 	cmp	r5, r3
    38cc:	a2850e41 	addge	r0, r5, #1040	; 0x410
    38d0:	a2800002 	addge	r0, r0, #2
    38d4:	a1a0003a 	lsrge	r0, sl, r0
    38d8:	b59f0390 	ldrlt	r0, [pc, #912]	; 3c70 <_dtoa_r+0x500>
    38dc:	a283301f 	addge	r3, r3, #31
    38e0:	a0653003 	rsbge	r3, r5, r3
    38e4:	b0650000 	rsblt	r0, r5, r0
    38e8:	a1800314 	orrge	r0, r0, r4, lsl r3
    38ec:	b1a0001a 	lsllt	r0, sl, r0
    38f0:	ebfff36a 	bl	6a0 <__aeabi_ui2d>
    38f4:	e1a03001 	mov	r3, r1
    38f8:	e1a02000 	mov	r2, r0
    38fc:	e58d2030 	str	r2, [sp, #48]	; 0x30
    3900:	e58d3034 	str	r3, [sp, #52]	; 0x34
    3904:	e59d3034 	ldr	r3, [sp, #52]	; 0x34
    3908:	e3a04001 	mov	r4, #1
    390c:	e243361f 	sub	r3, r3, #32505856	; 0x1f00000
    3910:	e58d3034 	str	r3, [sp, #52]	; 0x34
    3914:	e58d4064 	str	r4, [sp, #100]	; 0x64
    3918:	e2455001 	sub	r5, r5, #1
    391c:	e3a02000 	mov	r2, #0
    3920:	e59f334c 	ldr	r3, [pc, #844]	; 3c74 <_dtoa_r+0x504>
    3924:	e28d1030 	add	r1, sp, #48	; 0x30
    3928:	e8910003 	ldm	r1, {r0, r1}
    392c:	ebfff296 	bl	38c <__aeabi_dsub>
    3930:	e28f3e31 	add	r3, pc, #784	; 0x310
    3934:	e893000c 	ldm	r3, {r2, r3}
    3938:	eb001888 	bl	9b60 <__aeabi_dmul>
    393c:	e28f3fc3 	add	r3, pc, #780	; 0x30c
    3940:	e893000c 	ldm	r3, {r2, r3}
    3944:	ebfff291 	bl	390 <__adddf3>
    3948:	e1a08000 	mov	r8, r0
    394c:	e1a00005 	mov	r0, r5
    3950:	e1a09001 	mov	r9, r1
    3954:	ebfff35a 	bl	6c4 <__aeabi_i2d>
    3958:	e28f3fbe 	add	r3, pc, #760	; 0x2f8
    395c:	e893000c 	ldm	r3, {r2, r3}
    3960:	eb00187e 	bl	9b60 <__aeabi_dmul>
    3964:	e1a02000 	mov	r2, r0
    3968:	e1a03001 	mov	r3, r1
    396c:	e1a00008 	mov	r0, r8
    3970:	e1a01009 	mov	r1, r9
    3974:	ebfff285 	bl	390 <__adddf3>
    3978:	e1a08000 	mov	r8, r0
    397c:	e1a09001 	mov	r9, r1
    3980:	eb00199d 	bl	9ffc <__aeabi_d2iz>
    3984:	e1a01009 	mov	r1, r9
    3988:	e58d001c 	str	r0, [sp, #28]
    398c:	e3a02000 	mov	r2, #0
    3990:	e1a00008 	mov	r0, r8
    3994:	e3a03000 	mov	r3, #0
    3998:	ebfff3b9 	bl	884 <__aeabi_dcmplt>
    399c:	e3500000 	cmp	r0, #0
    39a0:	0a000008 	beq	39c8 <_dtoa_r+0x258>
    39a4:	e59d001c 	ldr	r0, [sp, #28]
    39a8:	ebfff345 	bl	6c4 <__aeabi_i2d>
    39ac:	e1a02008 	mov	r2, r8
    39b0:	e1a03009 	mov	r3, r9
    39b4:	ebfff3ac 	bl	86c <__aeabi_dcmpeq>
    39b8:	e3500000 	cmp	r0, #0
    39bc:	059dc01c 	ldreq	ip, [sp, #28]
    39c0:	024cc001 	subeq	ip, ip, #1
    39c4:	058dc01c 	streq	ip, [sp, #28]
    39c8:	e59d401c 	ldr	r4, [sp, #28]
    39cc:	e3540016 	cmp	r4, #22
    39d0:	83a0c001 	movhi	ip, #1
    39d4:	858dc054 	strhi	ip, [sp, #84]	; 0x54
    39d8:	8a00000b 	bhi	3a0c <_dtoa_r+0x29c>
    39dc:	e59f32ac 	ldr	r3, [pc, #684]	; 3c90 <_dtoa_r+0x520>
    39e0:	e0833184 	add	r3, r3, r4, lsl #3
    39e4:	e8930003 	ldm	r3, {r0, r1}
    39e8:	e1a0200a 	mov	r2, sl
    39ec:	e1a0300b 	mov	r3, fp
    39f0:	ebfff3b5 	bl	8cc <__aeabi_dcmpgt>
    39f4:	e3500000 	cmp	r0, #0
    39f8:	159dc01c 	ldrne	ip, [sp, #28]
    39fc:	e3a04000 	mov	r4, #0
    3a00:	124cc001 	subne	ip, ip, #1
    3a04:	158dc01c 	strne	ip, [sp, #28]
    3a08:	e58d4054 	str	r4, [sp, #84]	; 0x54
    3a0c:	e0655007 	rsb	r5, r5, r7
    3a10:	e2555001 	subs	r5, r5, #1
    3a14:	43a0c000 	movmi	ip, #0
    3a18:	458dc02c 	strmi	ip, [sp, #44]	; 0x2c
    3a1c:	e59dc01c 	ldr	ip, [sp, #28]
    3a20:	42655000 	rsbmi	r5, r5, #0
    3a24:	53a04000 	movpl	r4, #0
    3a28:	458d5040 	strmi	r5, [sp, #64]	; 0x40
    3a2c:	558d502c 	strpl	r5, [sp, #44]	; 0x2c
    3a30:	558d4040 	strpl	r4, [sp, #64]	; 0x40
    3a34:	e35c0000 	cmp	ip, #0
    3a38:	ba00017e 	blt	4038 <_dtoa_r+0x8c8>
    3a3c:	e59d402c 	ldr	r4, [sp, #44]	; 0x2c
    3a40:	e58dc050 	str	ip, [sp, #80]	; 0x50
    3a44:	e084400c 	add	r4, r4, ip
    3a48:	e3a0c000 	mov	ip, #0
    3a4c:	e58d402c 	str	r4, [sp, #44]	; 0x2c
    3a50:	e58dc048 	str	ip, [sp, #72]	; 0x48
    3a54:	e59d40a0 	ldr	r4, [sp, #160]	; 0xa0
    3a58:	e3540009 	cmp	r4, #9
    3a5c:	83a0c000 	movhi	ip, #0
    3a60:	858dc0a0 	strhi	ip, [sp, #160]	; 0xa0
    3a64:	8a000025 	bhi	3b00 <_dtoa_r+0x390>
    3a68:	e3540005 	cmp	r4, #5
    3a6c:	c2444004 	subgt	r4, r4, #4
    3a70:	c58d40a0 	strgt	r4, [sp, #160]	; 0xa0
    3a74:	e59dc0a0 	ldr	ip, [sp, #160]	; 0xa0
    3a78:	e24c3002 	sub	r3, ip, #2
    3a7c:	c3a04000 	movgt	r4, #0
    3a80:	d3a04001 	movle	r4, #1
    3a84:	e3530003 	cmp	r3, #3
    3a88:	979ff103 	ldrls	pc, [pc, r3, lsl #2]
    3a8c:	ea00001b 	b	3b00 <_dtoa_r+0x390>
    3a90:	00004510 	.word	0x00004510
    3a94:	000044d8 	.word	0x000044d8
    3a98:	00004130 	.word	0x00004130
    3a9c:	0000451c 	.word	0x0000451c
    3aa0:	e3c484ff 	bic	r8, r4, #-16777216	; 0xff000000
    3aa4:	e3c8860f 	bic	r8, r8, #15728640	; 0xf00000
    3aa8:	e59f31bc 	ldr	r3, [pc, #444]	; 3c6c <_dtoa_r+0x4fc>
    3aac:	e59f21c4 	ldr	r2, [pc, #452]	; 3c78 <_dtoa_r+0x508>
    3ab0:	e3580000 	cmp	r8, #0
    3ab4:	01a08002 	moveq	r8, r2
    3ab8:	11a08003 	movne	r8, r3
    3abc:	eaffff67 	b	3860 <_dtoa_r+0xf0>
    3ac0:	e1a0200b 	mov	r2, fp
    3ac4:	e1a0100a 	mov	r1, sl
    3ac8:	e58d1030 	str	r1, [sp, #48]	; 0x30
    3acc:	e58d2034 	str	r2, [sp, #52]	; 0x34
    3ad0:	e59d2034 	ldr	r2, [sp, #52]	; 0x34
    3ad4:	e3c234ff 	bic	r3, r2, #-16777216	; 0xff000000
    3ad8:	e3c3360f 	bic	r3, r3, #15728640	; 0xf00000
    3adc:	e38335ff 	orr	r3, r3, #1069547520	; 0x3fc00000
    3ae0:	e2455fff 	sub	r5, r5, #1020	; 0x3fc
    3ae4:	e3833603 	orr	r3, r3, #3145728	; 0x300000
    3ae8:	e3a04000 	mov	r4, #0
    3aec:	e58d3034 	str	r3, [sp, #52]	; 0x34
    3af0:	e2455003 	sub	r5, r5, #3
    3af4:	e59d7070 	ldr	r7, [sp, #112]	; 0x70
    3af8:	e58d4064 	str	r4, [sp, #100]	; 0x64
    3afc:	eaffff86 	b	391c <_dtoa_r+0x1ac>
    3b00:	e3a04000 	mov	r4, #0
    3b04:	e5864044 	str	r4, [r6, #68]	; 0x44
    3b08:	e1a00006 	mov	r0, r6
    3b0c:	e1a01004 	mov	r1, r4
    3b10:	eb000a68 	bl	64b8 <_Balloc>
    3b14:	e3e0c000 	mvn	ip, #0
    3b18:	e58dc03c 	str	ip, [sp, #60]	; 0x3c
    3b1c:	e3a0c001 	mov	ip, #1
    3b20:	e58dc04c 	str	ip, [sp, #76]	; 0x4c
    3b24:	e3e0c000 	mvn	ip, #0
    3b28:	e58d0038 	str	r0, [sp, #56]	; 0x38
    3b2c:	e5860040 	str	r0, [r6, #64]	; 0x40
    3b30:	e58dc060 	str	ip, [sp, #96]	; 0x60
    3b34:	e58d40a4 	str	r4, [sp, #164]	; 0xa4
    3b38:	e59dc01c 	ldr	ip, [sp, #28]
    3b3c:	e59d3074 	ldr	r3, [sp, #116]	; 0x74
    3b40:	e35c000e 	cmp	ip, #14
    3b44:	c3a04000 	movgt	r4, #0
    3b48:	d3a04001 	movle	r4, #1
    3b4c:	e3530000 	cmp	r3, #0
    3b50:	b3a04000 	movlt	r4, #0
    3b54:	e3540000 	cmp	r4, #0
    3b58:	0a000099 	beq	3dc4 <_dtoa_r+0x654>
    3b5c:	e59dc0a4 	ldr	ip, [sp, #164]	; 0xa4
    3b60:	e1a04fac 	lsr	r4, ip, #31
    3b64:	e59dc03c 	ldr	ip, [sp, #60]	; 0x3c
    3b68:	e59f3120 	ldr	r3, [pc, #288]	; 3c90 <_dtoa_r+0x520>
    3b6c:	e35c0000 	cmp	ip, #0
    3b70:	c3a04000 	movgt	r4, #0
    3b74:	d2044001 	andle	r4, r4, #1
    3b78:	e59dc01c 	ldr	ip, [sp, #28]
    3b7c:	e083318c 	add	r3, r3, ip, lsl #3
    3b80:	e8930006 	ldm	r3, {r1, r2}
    3b84:	e3540000 	cmp	r4, #0
    3b88:	e58d1010 	str	r1, [sp, #16]
    3b8c:	e58d2014 	str	r2, [sp, #20]
    3b90:	1a000151 	bne	40dc <_dtoa_r+0x96c>
    3b94:	e1a03002 	mov	r3, r2
    3b98:	e1a0000a 	mov	r0, sl
    3b9c:	e1a02001 	mov	r2, r1
    3ba0:	e1a0100b 	mov	r1, fp
    3ba4:	eb001891 	bl	9df0 <__aeabi_ddiv>
    3ba8:	eb001913 	bl	9ffc <__aeabi_d2iz>
    3bac:	e1a05000 	mov	r5, r0
    3bb0:	ebfff2c3 	bl	6c4 <__aeabi_i2d>
    3bb4:	e28d3010 	add	r3, sp, #16
    3bb8:	e893000c 	ldm	r3, {r2, r3}
    3bbc:	eb0017e7 	bl	9b60 <__aeabi_dmul>
    3bc0:	e1a03001 	mov	r3, r1
    3bc4:	e1a02000 	mov	r2, r0
    3bc8:	e1a0100b 	mov	r1, fp
    3bcc:	e1a0000a 	mov	r0, sl
    3bd0:	ebfff1ed 	bl	38c <__aeabi_dsub>
    3bd4:	e59dc038 	ldr	ip, [sp, #56]	; 0x38
    3bd8:	e2853030 	add	r3, r5, #48	; 0x30
    3bdc:	e4cc3001 	strb	r3, [ip], #1
    3be0:	e58dc020 	str	ip, [sp, #32]
    3be4:	e59dc03c 	ldr	ip, [sp, #60]	; 0x3c
    3be8:	e35c0001 	cmp	ip, #1
    3bec:	e1a08000 	mov	r8, r0
    3bf0:	e1a09001 	mov	r9, r1
    3bf4:	e59d7020 	ldr	r7, [sp, #32]
    3bf8:	0a00004b 	beq	3d2c <_dtoa_r+0x5bc>
    3bfc:	e3a02000 	mov	r2, #0
    3c00:	e59f308c 	ldr	r3, [pc, #140]	; 3c94 <_dtoa_r+0x524>
    3c04:	eb0017d5 	bl	9b60 <__aeabi_dmul>
    3c08:	e3a03000 	mov	r3, #0
    3c0c:	e3a02000 	mov	r2, #0
    3c10:	e1a08000 	mov	r8, r0
    3c14:	e1a09001 	mov	r9, r1
    3c18:	ebfff313 	bl	86c <__aeabi_dcmpeq>
    3c1c:	e3500000 	cmp	r0, #0
    3c20:	e3a03001 	mov	r3, #1
    3c24:	11a03004 	movne	r3, r4
    3c28:	e31300ff 	tst	r3, #255	; 0xff
    3c2c:	0a00044f 	beq	4d70 <_dtoa_r+0x1600>
    3c30:	e28d1038 	add	r1, sp, #56	; 0x38
    3c34:	e8911002 	ldm	r1, {r1, ip}
    3c38:	e59d4020 	ldr	r4, [sp, #32]
    3c3c:	e08ca001 	add	sl, ip, r1
    3c40:	ea000020 	b	3cc8 <_dtoa_r+0x558>
    3c44:	e1a00000 	nop			; (mov r0, r0)
    3c48:	636f4361 	.word	0x636f4361
    3c4c:	3fd287a7 	.word	0x3fd287a7
    3c50:	8b60c8b3 	.word	0x8b60c8b3
    3c54:	3fc68a28 	.word	0x3fc68a28
    3c58:	509f79fb 	.word	0x509f79fb
    3c5c:	3fd34413 	.word	0x3fd34413
    3c60:	0000ac78 	.word	0x0000ac78
    3c64:	0000ac79 	.word	0x0000ac79
    3c68:	0000270f 	.word	0x0000270f
    3c6c:	0000ac88 	.word	0x0000ac88
    3c70:	fffffbee 	.word	0xfffffbee
    3c74:	3ff80000 	.word	0x3ff80000
    3c78:	0000ac7c 	.word	0x0000ac7c
    3c7c:	3ff00000 	.word	0x3ff00000
    3c80:	7ff00000 	.word	0x7ff00000
    3c84:	401c0000 	.word	0x401c0000
    3c88:	40140000 	.word	0x40140000
    3c8c:	0000abf0 	.word	0x0000abf0
    3c90:	0000ab00 	.word	0x0000ab00
    3c94:	40240000 	.word	0x40240000
    3c98:	3fe00000 	.word	0x3fe00000
    3c9c:	eb0017af 	bl	9b60 <__aeabi_dmul>
    3ca0:	e3a03000 	mov	r3, #0
    3ca4:	e3a02000 	mov	r2, #0
    3ca8:	e1a08000 	mov	r8, r0
    3cac:	e1a09001 	mov	r9, r1
    3cb0:	ebfff2ed 	bl	86c <__aeabi_dcmpeq>
    3cb4:	e3500000 	cmp	r0, #0
    3cb8:	e3a03001 	mov	r3, #1
    3cbc:	13a03000 	movne	r3, #0
    3cc0:	e31300ff 	tst	r3, #255	; 0xff
    3cc4:	0a000394 	beq	4b1c <_dtoa_r+0x13ac>
    3cc8:	e28d3010 	add	r3, sp, #16
    3ccc:	e893000c 	ldm	r3, {r2, r3}
    3cd0:	e1a00008 	mov	r0, r8
    3cd4:	e1a01009 	mov	r1, r9
    3cd8:	eb001844 	bl	9df0 <__aeabi_ddiv>
    3cdc:	eb0018c6 	bl	9ffc <__aeabi_d2iz>
    3ce0:	e1a05000 	mov	r5, r0
    3ce4:	ebfff276 	bl	6c4 <__aeabi_i2d>
    3ce8:	e28d3010 	add	r3, sp, #16
    3cec:	e893000c 	ldm	r3, {r2, r3}
    3cf0:	eb00179a 	bl	9b60 <__aeabi_dmul>
    3cf4:	e1a02000 	mov	r2, r0
    3cf8:	e1a03001 	mov	r3, r1
    3cfc:	e1a00008 	mov	r0, r8
    3d00:	e1a01009 	mov	r1, r9
    3d04:	ebfff1a0 	bl	38c <__aeabi_dsub>
    3d08:	e285c030 	add	ip, r5, #48	; 0x30
    3d0c:	e4c4c001 	strb	ip, [r4], #1
    3d10:	e154000a 	cmp	r4, sl
    3d14:	e1a08000 	mov	r8, r0
    3d18:	e1a09001 	mov	r9, r1
    3d1c:	e3a02000 	mov	r2, #0
    3d20:	e51f3094 	ldr	r3, [pc, #-148]	; 3c94 <_dtoa_r+0x524>
    3d24:	e1a07004 	mov	r7, r4
    3d28:	1affffdb 	bne	3c9c <_dtoa_r+0x52c>
    3d2c:	e1a02008 	mov	r2, r8
    3d30:	e1a03009 	mov	r3, r9
    3d34:	e1a00008 	mov	r0, r8
    3d38:	e1a01009 	mov	r1, r9
    3d3c:	ebfff193 	bl	390 <__adddf3>
    3d40:	e1a08000 	mov	r8, r0
    3d44:	e1a09001 	mov	r9, r1
    3d48:	e1a02008 	mov	r2, r8
    3d4c:	e28d1010 	add	r1, sp, #16
    3d50:	e8910003 	ldm	r1, {r0, r1}
    3d54:	e1a03009 	mov	r3, r9
    3d58:	ebfff2c9 	bl	884 <__aeabi_dcmplt>
    3d5c:	e3500000 	cmp	r0, #0
    3d60:	0a00039d 	beq	4bdc <_dtoa_r+0x146c>
    3d64:	e59d401c 	ldr	r4, [sp, #28]
    3d68:	e5575001 	ldrb	r5, [r7, #-1]
    3d6c:	e59d8038 	ldr	r8, [sp, #56]	; 0x38
    3d70:	e58d4068 	str	r4, [sp, #104]	; 0x68
    3d74:	e59d2020 	ldr	r2, [sp, #32]
    3d78:	ea000001 	b	3d84 <_dtoa_r+0x614>
    3d7c:	e5575002 	ldrb	r5, [r7, #-2]
    3d80:	e2477001 	sub	r7, r7, #1
    3d84:	e3550039 	cmp	r5, #57	; 0x39
    3d88:	e1a03007 	mov	r3, r7
    3d8c:	1a0003a3 	bne	4c20 <_dtoa_r+0x14b0>
    3d90:	e1570002 	cmp	r7, r2
    3d94:	1afffff8 	bne	3d7c <_dtoa_r+0x60c>
    3d98:	e59dc020 	ldr	ip, [sp, #32]
    3d9c:	e59d4068 	ldr	r4, [sp, #104]	; 0x68
    3da0:	e58d3038 	str	r3, [sp, #56]	; 0x38
    3da4:	e3a03030 	mov	r3, #48	; 0x30
    3da8:	e54c3001 	strb	r3, [ip, #-1]
    3dac:	e2844001 	add	r4, r4, #1
    3db0:	e1a0300c 	mov	r3, ip
    3db4:	e3a05031 	mov	r5, #49	; 0x31
    3db8:	e58d401c 	str	r4, [sp, #28]
    3dbc:	e5435001 	strb	r5, [r3, #-1]
    3dc0:	ea00008d 	b	3ffc <_dtoa_r+0x88c>
    3dc4:	e59dc04c 	ldr	ip, [sp, #76]	; 0x4c
    3dc8:	e35c0000 	cmp	ip, #0
    3dcc:	1a0000a2 	bne	405c <_dtoa_r+0x8ec>
    3dd0:	e59d4048 	ldr	r4, [sp, #72]	; 0x48
    3dd4:	e59d5040 	ldr	r5, [sp, #64]	; 0x40
    3dd8:	e59d904c 	ldr	r9, [sp, #76]	; 0x4c
    3ddc:	e59dc02c 	ldr	ip, [sp, #44]	; 0x2c
    3de0:	e35c0000 	cmp	ip, #0
    3de4:	c3550000 	cmpgt	r5, #0
    3de8:	da000009 	ble	3e14 <_dtoa_r+0x6a4>
    3dec:	e1a0300c 	mov	r3, ip
    3df0:	e59dc040 	ldr	ip, [sp, #64]	; 0x40
    3df4:	e1530005 	cmp	r3, r5
    3df8:	a1a03005 	movge	r3, r5
    3dfc:	e063c00c 	rsb	ip, r3, ip
    3e00:	e58dc040 	str	ip, [sp, #64]	; 0x40
    3e04:	e59dc02c 	ldr	ip, [sp, #44]	; 0x2c
    3e08:	e063c00c 	rsb	ip, r3, ip
    3e0c:	e58dc02c 	str	ip, [sp, #44]	; 0x2c
    3e10:	e0635005 	rsb	r5, r3, r5
    3e14:	e59dc048 	ldr	ip, [sp, #72]	; 0x48
    3e18:	e35c0000 	cmp	ip, #0
    3e1c:	da000015 	ble	3e78 <_dtoa_r+0x708>
    3e20:	e59dc04c 	ldr	ip, [sp, #76]	; 0x4c
    3e24:	e35c0000 	cmp	ip, #0
    3e28:	0a00033e 	beq	4b28 <_dtoa_r+0x13b8>
    3e2c:	e3540000 	cmp	r4, #0
    3e30:	da00000d 	ble	3e6c <_dtoa_r+0x6fc>
    3e34:	e1a01009 	mov	r1, r9
    3e38:	e1a02004 	mov	r2, r4
    3e3c:	e1a00006 	mov	r0, r6
    3e40:	eb000af4 	bl	6a18 <__pow5mult>
    3e44:	e1a09000 	mov	r9, r0
    3e48:	e1a01009 	mov	r1, r9
    3e4c:	e59d2044 	ldr	r2, [sp, #68]	; 0x44
    3e50:	e1a00006 	mov	r0, r6
    3e54:	eb000a71 	bl	6820 <__multiply>
    3e58:	e59d1044 	ldr	r1, [sp, #68]	; 0x44
    3e5c:	e1a07000 	mov	r7, r0
    3e60:	e1a00006 	mov	r0, r6
    3e64:	eb0009b4 	bl	653c <_Bfree>
    3e68:	e58d7044 	str	r7, [sp, #68]	; 0x44
    3e6c:	e59dc048 	ldr	ip, [sp, #72]	; 0x48
    3e70:	e05c2004 	subs	r2, ip, r4
    3e74:	1a000346 	bne	4b94 <_dtoa_r+0x1424>
    3e78:	e1a00006 	mov	r0, r6
    3e7c:	e3a01001 	mov	r1, #1
    3e80:	eb000a5d 	bl	67fc <__i2b>
    3e84:	e59dc050 	ldr	ip, [sp, #80]	; 0x50
    3e88:	e35c0000 	cmp	ip, #0
    3e8c:	e1a04000 	mov	r4, r0
    3e90:	da000004 	ble	3ea8 <_dtoa_r+0x738>
    3e94:	e1a01004 	mov	r1, r4
    3e98:	e1a00006 	mov	r0, r6
    3e9c:	e1a0200c 	mov	r2, ip
    3ea0:	eb000adc 	bl	6a18 <__pow5mult>
    3ea4:	e1a04000 	mov	r4, r0
    3ea8:	e59dc0a0 	ldr	ip, [sp, #160]	; 0xa0
    3eac:	e35c0001 	cmp	ip, #1
    3eb0:	da00019c 	ble	4528 <_dtoa_r+0xdb8>
    3eb4:	e3a07000 	mov	r7, #0
    3eb8:	e59dc050 	ldr	ip, [sp, #80]	; 0x50
    3ebc:	e35c0000 	cmp	ip, #0
    3ec0:	03a03001 	moveq	r3, #1
    3ec4:	1a0002ab 	bne	4978 <_dtoa_r+0x1208>
    3ec8:	e59dc02c 	ldr	ip, [sp, #44]	; 0x2c
    3ecc:	e083300c 	add	r3, r3, ip
    3ed0:	e213301f 	ands	r3, r3, #31
    3ed4:	03a0301c 	moveq	r3, #28
    3ed8:	0a000003 	beq	3eec <_dtoa_r+0x77c>
    3edc:	e2632020 	rsb	r2, r3, #32
    3ee0:	e3520004 	cmp	r2, #4
    3ee4:	c263301c 	rsbgt	r3, r3, #28
    3ee8:	da0003b7 	ble	4dcc <_dtoa_r+0x165c>
    3eec:	e59dc040 	ldr	ip, [sp, #64]	; 0x40
    3ef0:	e08cc003 	add	ip, ip, r3
    3ef4:	e58dc040 	str	ip, [sp, #64]	; 0x40
    3ef8:	e59dc02c 	ldr	ip, [sp, #44]	; 0x2c
    3efc:	e08cc003 	add	ip, ip, r3
    3f00:	e58dc02c 	str	ip, [sp, #44]	; 0x2c
    3f04:	e0855003 	add	r5, r5, r3
    3f08:	e59dc040 	ldr	ip, [sp, #64]	; 0x40
    3f0c:	e35c0000 	cmp	ip, #0
    3f10:	da000004 	ble	3f28 <_dtoa_r+0x7b8>
    3f14:	e1a00006 	mov	r0, r6
    3f18:	e59d1044 	ldr	r1, [sp, #68]	; 0x44
    3f1c:	e1a0200c 	mov	r2, ip
    3f20:	eb000af9 	bl	6b0c <__lshift>
    3f24:	e58d0044 	str	r0, [sp, #68]	; 0x44
    3f28:	e59dc02c 	ldr	ip, [sp, #44]	; 0x2c
    3f2c:	e35c0000 	cmp	ip, #0
    3f30:	da000004 	ble	3f48 <_dtoa_r+0x7d8>
    3f34:	e1a01004 	mov	r1, r4
    3f38:	e1a00006 	mov	r0, r6
    3f3c:	e1a0200c 	mov	r2, ip
    3f40:	eb000af1 	bl	6b0c <__lshift>
    3f44:	e1a04000 	mov	r4, r0
    3f48:	e59dc054 	ldr	ip, [sp, #84]	; 0x54
    3f4c:	e35c0000 	cmp	ip, #0
    3f50:	1a00028e 	bne	4990 <_dtoa_r+0x1220>
    3f54:	e59dc03c 	ldr	ip, [sp, #60]	; 0x3c
    3f58:	e59d10a0 	ldr	r1, [sp, #160]	; 0xa0
    3f5c:	e35c0000 	cmp	ip, #0
    3f60:	c3a03000 	movgt	r3, #0
    3f64:	d3a03001 	movle	r3, #1
    3f68:	e3510002 	cmp	r1, #2
    3f6c:	d3a03000 	movle	r3, #0
    3f70:	e3530000 	cmp	r3, #0
    3f74:	0a0001a3 	beq	4608 <_dtoa_r+0xe98>
    3f78:	e35c0000 	cmp	ip, #0
    3f7c:	1a000065 	bne	4118 <_dtoa_r+0x9a8>
    3f80:	e1a01004 	mov	r1, r4
    3f84:	e3a02005 	mov	r2, #5
    3f88:	e1a0300c 	mov	r3, ip
    3f8c:	e1a00006 	mov	r0, r6
    3f90:	eb000970 	bl	6558 <__multadd>
    3f94:	e1a04000 	mov	r4, r0
    3f98:	e1a01004 	mov	r1, r4
    3f9c:	e59d0044 	ldr	r0, [sp, #68]	; 0x44
    3fa0:	eb000b18 	bl	6c08 <__mcmp>
    3fa4:	e3500000 	cmp	r0, #0
    3fa8:	da00005a 	ble	4118 <_dtoa_r+0x9a8>
    3fac:	e59d3038 	ldr	r3, [sp, #56]	; 0x38
    3fb0:	e59dc01c 	ldr	ip, [sp, #28]
    3fb4:	e3a02031 	mov	r2, #49	; 0x31
    3fb8:	e4c32001 	strb	r2, [r3], #1
    3fbc:	e28cc001 	add	ip, ip, #1
    3fc0:	e59d8038 	ldr	r8, [sp, #56]	; 0x38
    3fc4:	e58dc01c 	str	ip, [sp, #28]
    3fc8:	e58d3038 	str	r3, [sp, #56]	; 0x38
    3fcc:	e3a05000 	mov	r5, #0
    3fd0:	e1a00006 	mov	r0, r6
    3fd4:	e1a01004 	mov	r1, r4
    3fd8:	eb000957 	bl	653c <_Bfree>
    3fdc:	e3590000 	cmp	r9, #0
    3fe0:	0a000005 	beq	3ffc <_dtoa_r+0x88c>
    3fe4:	e1550009 	cmp	r5, r9
    3fe8:	13550000 	cmpne	r5, #0
    3fec:	1a0001e4 	bne	4784 <_dtoa_r+0x1014>
    3ff0:	e1a00006 	mov	r0, r6
    3ff4:	e1a01009 	mov	r1, r9
    3ff8:	eb00094f 	bl	653c <_Bfree>
    3ffc:	e1a00006 	mov	r0, r6
    4000:	e59d1044 	ldr	r1, [sp, #68]	; 0x44
    4004:	eb00094c 	bl	653c <_Bfree>
    4008:	e59dc01c 	ldr	ip, [sp, #28]
    400c:	e59d40b0 	ldr	r4, [sp, #176]	; 0xb0
    4010:	e28c3001 	add	r3, ip, #1
    4014:	e3540000 	cmp	r4, #0
    4018:	e59dc038 	ldr	ip, [sp, #56]	; 0x38
    401c:	e59d40a8 	ldr	r4, [sp, #168]	; 0xa8
    4020:	e3a02000 	mov	r2, #0
    4024:	e5cc2000 	strb	r2, [ip]
    4028:	e5843000 	str	r3, [r4]
    402c:	159d40b0 	ldrne	r4, [sp, #176]	; 0xb0
    4030:	1584c000 	strne	ip, [r4]
    4034:	eafffdff 	b	3838 <_dtoa_r+0xc8>
    4038:	e59dc01c 	ldr	ip, [sp, #28]
    403c:	e59d4040 	ldr	r4, [sp, #64]	; 0x40
    4040:	e06c4004 	rsb	r4, ip, r4
    4044:	e58d4040 	str	r4, [sp, #64]	; 0x40
    4048:	e26c4000 	rsb	r4, ip, #0
    404c:	e3a0c000 	mov	ip, #0
    4050:	e58d4048 	str	r4, [sp, #72]	; 0x48
    4054:	e58dc050 	str	ip, [sp, #80]	; 0x50
    4058:	eafffe7d 	b	3a54 <_dtoa_r+0x2e4>
    405c:	e59dc0a0 	ldr	ip, [sp, #160]	; 0xa0
    4060:	e35c0001 	cmp	ip, #1
    4064:	da0002cf 	ble	4ba8 <_dtoa_r+0x1438>
    4068:	e59dc03c 	ldr	ip, [sp, #60]	; 0x3c
    406c:	e24c2001 	sub	r2, ip, #1
    4070:	e59dc048 	ldr	ip, [sp, #72]	; 0x48
    4074:	e15c0002 	cmp	ip, r2
    4078:	b59dc048 	ldrlt	ip, [sp, #72]	; 0x48
    407c:	b06c3002 	rsblt	r3, ip, r2
    4080:	b59dc050 	ldrlt	ip, [sp, #80]	; 0x50
    4084:	b08cc003 	addlt	ip, ip, r3
    4088:	a062400c 	rsbge	r4, r2, ip
    408c:	b58dc050 	strlt	ip, [sp, #80]	; 0x50
    4090:	e59dc03c 	ldr	ip, [sp, #60]	; 0x3c
    4094:	b58d2048 	strlt	r2, [sp, #72]	; 0x48
    4098:	e35c0000 	cmp	ip, #0
    409c:	b59d1040 	ldrlt	r1, [sp, #64]	; 0x40
    40a0:	a28d303c 	addge	r3, sp, #60	; 0x3c
    40a4:	a8930028 	ldmge	r3, {r3, r5}
    40a8:	b06c5001 	rsblt	r5, ip, r1
    40ac:	b3a03000 	movlt	r3, #0
    40b0:	e59dc040 	ldr	ip, [sp, #64]	; 0x40
    40b4:	e08cc003 	add	ip, ip, r3
    40b8:	e58dc040 	str	ip, [sp, #64]	; 0x40
    40bc:	e59dc02c 	ldr	ip, [sp, #44]	; 0x2c
    40c0:	e1a00006 	mov	r0, r6
    40c4:	e08cc003 	add	ip, ip, r3
    40c8:	e3a01001 	mov	r1, #1
    40cc:	e58dc02c 	str	ip, [sp, #44]	; 0x2c
    40d0:	eb0009c9 	bl	67fc <__i2b>
    40d4:	e1a09000 	mov	r9, r0
    40d8:	eaffff3f 	b	3ddc <_dtoa_r+0x66c>
    40dc:	e59d403c 	ldr	r4, [sp, #60]	; 0x3c
    40e0:	e3540000 	cmp	r4, #0
    40e4:	1a0002b9 	bne	4bd0 <_dtoa_r+0x1460>
    40e8:	e3a02000 	mov	r2, #0
    40ec:	e51f346c 	ldr	r3, [pc, #-1132]	; 3c88 <_dtoa_r+0x518>
    40f0:	e28d1010 	add	r1, sp, #16
    40f4:	e8910003 	ldm	r1, {r0, r1}
    40f8:	eb001698 	bl	9b60 <__aeabi_dmul>
    40fc:	e1a0200a 	mov	r2, sl
    4100:	e1a0300b 	mov	r3, fp
    4104:	ebfff1ea 	bl	8b4 <__aeabi_dcmpge>
    4108:	e59d403c 	ldr	r4, [sp, #60]	; 0x3c
    410c:	e3500000 	cmp	r0, #0
    4110:	e1a09004 	mov	r9, r4
    4114:	0affffa4 	beq	3fac <_dtoa_r+0x83c>
    4118:	e59dc0a4 	ldr	ip, [sp, #164]	; 0xa4
    411c:	e1e0c00c 	mvn	ip, ip
    4120:	e58dc01c 	str	ip, [sp, #28]
    4124:	e59d8038 	ldr	r8, [sp, #56]	; 0x38
    4128:	e3a05000 	mov	r5, #0
    412c:	eaffffa7 	b	3fd0 <_dtoa_r+0x860>
    4130:	e3a0c001 	mov	ip, #1
    4134:	e58dc04c 	str	ip, [sp, #76]	; 0x4c
    4138:	e59dc0a4 	ldr	ip, [sp, #164]	; 0xa4
    413c:	e35c0000 	cmp	ip, #0
    4140:	da000226 	ble	49e0 <_dtoa_r+0x1270>
    4144:	e58dc060 	str	ip, [sp, #96]	; 0x60
    4148:	e58dc03c 	str	ip, [sp, #60]	; 0x3c
    414c:	e35c000e 	cmp	ip, #14
    4150:	83a04000 	movhi	r4, #0
    4154:	92044001 	andls	r4, r4, #1
    4158:	e3a01000 	mov	r1, #0
    415c:	e35c0017 	cmp	ip, #23
    4160:	e5861044 	str	r1, [r6, #68]	; 0x44
    4164:	9a000008 	bls	418c <_dtoa_r+0xa1c>
    4168:	e3a02001 	mov	r2, #1
    416c:	e3a03004 	mov	r3, #4
    4170:	e1a03083 	lsl	r3, r3, #1
    4174:	e2830014 	add	r0, r3, #20
    4178:	e150000c 	cmp	r0, ip
    417c:	e1a01002 	mov	r1, r2
    4180:	e2822001 	add	r2, r2, #1
    4184:	9afffff9 	bls	4170 <_dtoa_r+0xa00>
    4188:	e5861044 	str	r1, [r6, #68]	; 0x44
    418c:	e1a00006 	mov	r0, r6
    4190:	eb0008c8 	bl	64b8 <_Balloc>
    4194:	e3540000 	cmp	r4, #0
    4198:	e58d0038 	str	r0, [sp, #56]	; 0x38
    419c:	e5860040 	str	r0, [r6, #64]	; 0x40
    41a0:	0afffe64 	beq	3b38 <_dtoa_r+0x3c8>
    41a4:	e59d401c 	ldr	r4, [sp, #28]
    41a8:	e1a0100a 	mov	r1, sl
    41ac:	e1a0200b 	mov	r2, fp
    41b0:	e3540000 	cmp	r4, #0
    41b4:	e58da020 	str	sl, [sp, #32]
    41b8:	e58db024 	str	fp, [sp, #36]	; 0x24
    41bc:	e58d1030 	str	r1, [sp, #48]	; 0x30
    41c0:	e58d2034 	str	r2, [sp, #52]	; 0x34
    41c4:	da000185 	ble	47e0 <_dtoa_r+0x1070>
    41c8:	e51f3540 	ldr	r3, [pc, #-1344]	; 3c90 <_dtoa_r+0x520>
    41cc:	e204200f 	and	r2, r4, #15
    41d0:	e1a04244 	asr	r4, r4, #4
    41d4:	e0833182 	add	r3, r3, r2, lsl #3
    41d8:	e3140010 	tst	r4, #16
    41dc:	e8930300 	ldm	r3, {r8, r9}
    41e0:	03a07002 	moveq	r7, #2
    41e4:	0a000009 	beq	4210 <_dtoa_r+0xaa0>
    41e8:	e51f3564 	ldr	r3, [pc, #-1380]	; 3c8c <_dtoa_r+0x51c>
    41ec:	e1a0000a 	mov	r0, sl
    41f0:	e1a0100b 	mov	r1, fp
    41f4:	e2833020 	add	r3, r3, #32
    41f8:	e893000c 	ldm	r3, {r2, r3}
    41fc:	eb0016fb 	bl	9df0 <__aeabi_ddiv>
    4200:	e58d0020 	str	r0, [sp, #32]
    4204:	e58d1024 	str	r1, [sp, #36]	; 0x24
    4208:	e204400f 	and	r4, r4, #15
    420c:	e3a07003 	mov	r7, #3
    4210:	e3540000 	cmp	r4, #0
    4214:	0a00000c 	beq	424c <_dtoa_r+0xadc>
    4218:	e51f5594 	ldr	r5, [pc, #-1428]	; 3c8c <_dtoa_r+0x51c>
    421c:	e1a00008 	mov	r0, r8
    4220:	e1a01009 	mov	r1, r9
    4224:	e3140001 	tst	r4, #1
    4228:	0a000002 	beq	4238 <_dtoa_r+0xac8>
    422c:	e895000c 	ldm	r5, {r2, r3}
    4230:	eb00164a 	bl	9b60 <__aeabi_dmul>
    4234:	e2877001 	add	r7, r7, #1
    4238:	e1b040c4 	asrs	r4, r4, #1
    423c:	e2855008 	add	r5, r5, #8
    4240:	1afffff7 	bne	4224 <_dtoa_r+0xab4>
    4244:	e1a08000 	mov	r8, r0
    4248:	e1a09001 	mov	r9, r1
    424c:	e28d1020 	add	r1, sp, #32
    4250:	e8910003 	ldm	r1, {r0, r1}
    4254:	e1a02008 	mov	r2, r8
    4258:	e1a03009 	mov	r3, r9
    425c:	eb0016e3 	bl	9df0 <__aeabi_ddiv>
    4260:	e58d0020 	str	r0, [sp, #32]
    4264:	e58d1024 	str	r1, [sp, #36]	; 0x24
    4268:	e59d4054 	ldr	r4, [sp, #84]	; 0x54
    426c:	e3540000 	cmp	r4, #0
    4270:	0a0000c0 	beq	4578 <_dtoa_r+0xe08>
    4274:	e51f3600 	ldr	r3, [pc, #-1536]	; 3c7c <_dtoa_r+0x50c>
    4278:	e28d1020 	add	r1, sp, #32
    427c:	e8910003 	ldm	r1, {r0, r1}
    4280:	e3a02000 	mov	r2, #0
    4284:	ebfff17e 	bl	884 <__aeabi_dcmplt>
    4288:	e59dc03c 	ldr	ip, [sp, #60]	; 0x3c
    428c:	e3500000 	cmp	r0, #0
    4290:	e3a03001 	mov	r3, #1
    4294:	03a03000 	moveq	r3, #0
    4298:	e35c0000 	cmp	ip, #0
    429c:	d3a03000 	movle	r3, #0
    42a0:	c2033001 	andgt	r3, r3, #1
    42a4:	e3530000 	cmp	r3, #0
    42a8:	0a0000b2 	beq	4578 <_dtoa_r+0xe08>
    42ac:	e59d4060 	ldr	r4, [sp, #96]	; 0x60
    42b0:	e3540000 	cmp	r4, #0
    42b4:	da000137 	ble	4798 <_dtoa_r+0x1028>
    42b8:	e3a02000 	mov	r2, #0
    42bc:	e51f3630 	ldr	r3, [pc, #-1584]	; 3c94 <_dtoa_r+0x524>
    42c0:	e28d1020 	add	r1, sp, #32
    42c4:	e8910003 	ldm	r1, {r0, r1}
    42c8:	eb001624 	bl	9b60 <__aeabi_dmul>
    42cc:	e58d0020 	str	r0, [sp, #32]
    42d0:	e58d1024 	str	r1, [sp, #36]	; 0x24
    42d4:	e2870001 	add	r0, r7, #1
    42d8:	ebfff0f9 	bl	6c4 <__aeabi_i2d>
    42dc:	e1a02000 	mov	r2, r0
    42e0:	e1a03001 	mov	r3, r1
    42e4:	e28d1020 	add	r1, sp, #32
    42e8:	e8910003 	ldm	r1, {r0, r1}
    42ec:	eb00161b 	bl	9b60 <__aeabi_dmul>
    42f0:	e3a02000 	mov	r2, #0
    42f4:	e51f3678 	ldr	r3, [pc, #-1656]	; 3c84 <_dtoa_r+0x514>
    42f8:	ebfff024 	bl	390 <__adddf3>
    42fc:	e59dc01c 	ldr	ip, [sp, #28]
    4300:	e24cc001 	sub	ip, ip, #1
    4304:	e58dc068 	str	ip, [sp, #104]	; 0x68
    4308:	e59dc060 	ldr	ip, [sp, #96]	; 0x60
    430c:	e1a08000 	mov	r8, r0
    4310:	e241950d 	sub	r9, r1, #54525952	; 0x3400000
    4314:	e59d404c 	ldr	r4, [sp, #76]	; 0x4c
    4318:	e3540000 	cmp	r4, #0
    431c:	0a00014b 	beq	4850 <_dtoa_r+0x10e0>
    4320:	e51f3698 	ldr	r3, [pc, #-1688]	; 3c90 <_dtoa_r+0x520>
    4324:	e083318c 	add	r3, r3, ip, lsl #3
    4328:	e913000c 	ldmdb	r3, {r2, r3}
    432c:	e3a00000 	mov	r0, #0
    4330:	e51f16a0 	ldr	r1, [pc, #-1696]	; 3c98 <_dtoa_r+0x528>
    4334:	e58dc00c 	str	ip, [sp, #12]
    4338:	eb0016ac 	bl	9df0 <__aeabi_ddiv>
    433c:	e1a02008 	mov	r2, r8
    4340:	e1a03009 	mov	r3, r9
    4344:	ebfff010 	bl	38c <__aeabi_dsub>
    4348:	e1a0a000 	mov	sl, r0
    434c:	e1a0b001 	mov	fp, r1
    4350:	e28d1020 	add	r1, sp, #32
    4354:	e8910003 	ldm	r1, {r0, r1}
    4358:	eb001727 	bl	9ffc <__aeabi_d2iz>
    435c:	e1a05000 	mov	r5, r0
    4360:	ebfff0d7 	bl	6c4 <__aeabi_i2d>
    4364:	e1a02000 	mov	r2, r0
    4368:	e1a03001 	mov	r3, r1
    436c:	e28d1020 	add	r1, sp, #32
    4370:	e8910003 	ldm	r1, {r0, r1}
    4374:	ebfff004 	bl	38c <__aeabi_dsub>
    4378:	e2855030 	add	r5, r5, #48	; 0x30
    437c:	e59d4038 	ldr	r4, [sp, #56]	; 0x38
    4380:	e20550ff 	and	r5, r5, #255	; 0xff
    4384:	e1a08000 	mov	r8, r0
    4388:	e1a09001 	mov	r9, r1
    438c:	e4c45001 	strb	r5, [r4], #1
    4390:	e1a0000a 	mov	r0, sl
    4394:	e1a0100b 	mov	r1, fp
    4398:	e1a02008 	mov	r2, r8
    439c:	e1a03009 	mov	r3, r9
    43a0:	e58d4020 	str	r4, [sp, #32]
    43a4:	ebfff148 	bl	8cc <__aeabi_dcmpgt>
    43a8:	e3500000 	cmp	r0, #0
    43ac:	e59d7020 	ldr	r7, [sp, #32]
    43b0:	1a000276 	bne	4d90 <_dtoa_r+0x1620>
    43b4:	e1a02008 	mov	r2, r8
    43b8:	e1a03009 	mov	r3, r9
    43bc:	e3a00000 	mov	r0, #0
    43c0:	e51f174c 	ldr	r1, [pc, #-1868]	; 3c7c <_dtoa_r+0x50c>
    43c4:	ebffeff0 	bl	38c <__aeabi_dsub>
    43c8:	e1a02000 	mov	r2, r0
    43cc:	e1a03001 	mov	r3, r1
    43d0:	e1a0000a 	mov	r0, sl
    43d4:	e1a0100b 	mov	r1, fp
    43d8:	ebfff13b 	bl	8cc <__aeabi_dcmpgt>
    43dc:	e3500000 	cmp	r0, #0
    43e0:	e59dc00c 	ldr	ip, [sp, #12]
    43e4:	1a00020b 	bne	4c18 <_dtoa_r+0x14a8>
    43e8:	e35c0001 	cmp	ip, #1
    43ec:	da0000e9 	ble	4798 <_dtoa_r+0x1028>
    43f0:	e59d1038 	ldr	r1, [sp, #56]	; 0x38
    43f4:	e081c00c 	add	ip, r1, ip
    43f8:	e59d4020 	ldr	r4, [sp, #32]
    43fc:	e58dc058 	str	ip, [sp, #88]	; 0x58
    4400:	e58d606c 	str	r6, [sp, #108]	; 0x6c
    4404:	ea000008 	b	442c <_dtoa_r+0xcbc>
    4408:	ebffefdf 	bl	38c <__aeabi_dsub>
    440c:	e1a0200a 	mov	r2, sl
    4410:	e1a0300b 	mov	r3, fp
    4414:	ebfff11a 	bl	884 <__aeabi_dcmplt>
    4418:	e3500000 	cmp	r0, #0
    441c:	1a0001fc 	bne	4c14 <_dtoa_r+0x14a4>
    4420:	e59dc058 	ldr	ip, [sp, #88]	; 0x58
    4424:	e154000c 	cmp	r4, ip
    4428:	0a0000d9 	beq	4794 <_dtoa_r+0x1024>
    442c:	e3a02000 	mov	r2, #0
    4430:	e51f37a4 	ldr	r3, [pc, #-1956]	; 3c94 <_dtoa_r+0x524>
    4434:	e1a0000a 	mov	r0, sl
    4438:	e1a0100b 	mov	r1, fp
    443c:	eb0015c7 	bl	9b60 <__aeabi_dmul>
    4440:	e3a02000 	mov	r2, #0
    4444:	e51f37b8 	ldr	r3, [pc, #-1976]	; 3c94 <_dtoa_r+0x524>
    4448:	e1a0a000 	mov	sl, r0
    444c:	e1a0b001 	mov	fp, r1
    4450:	e1a00008 	mov	r0, r8
    4454:	e1a01009 	mov	r1, r9
    4458:	eb0015c0 	bl	9b60 <__aeabi_dmul>
    445c:	e1a07001 	mov	r7, r1
    4460:	e1a06000 	mov	r6, r0
    4464:	eb0016e4 	bl	9ffc <__aeabi_d2iz>
    4468:	e1a05000 	mov	r5, r0
    446c:	ebfff094 	bl	6c4 <__aeabi_i2d>
    4470:	e1a02000 	mov	r2, r0
    4474:	e1a03001 	mov	r3, r1
    4478:	e1a00006 	mov	r0, r6
    447c:	e1a01007 	mov	r1, r7
    4480:	ebffefc1 	bl	38c <__aeabi_dsub>
    4484:	e2855030 	add	r5, r5, #48	; 0x30
    4488:	e20550ff 	and	r5, r5, #255	; 0xff
    448c:	e4c45001 	strb	r5, [r4], #1
    4490:	e1a0200a 	mov	r2, sl
    4494:	e1a0300b 	mov	r3, fp
    4498:	e1a09001 	mov	r9, r1
    449c:	e1a08000 	mov	r8, r0
    44a0:	ebfff0f7 	bl	884 <__aeabi_dcmplt>
    44a4:	e3500000 	cmp	r0, #0
    44a8:	e1a02008 	mov	r2, r8
    44ac:	e1a03009 	mov	r3, r9
    44b0:	e3a00000 	mov	r0, #0
    44b4:	e51f1840 	ldr	r1, [pc, #-2112]	; 3c7c <_dtoa_r+0x50c>
    44b8:	e1a07004 	mov	r7, r4
    44bc:	0affffd1 	beq	4408 <_dtoa_r+0xc98>
    44c0:	e59dc068 	ldr	ip, [sp, #104]	; 0x68
    44c4:	e59d8038 	ldr	r8, [sp, #56]	; 0x38
    44c8:	e59d606c 	ldr	r6, [sp, #108]	; 0x6c
    44cc:	e58dc01c 	str	ip, [sp, #28]
    44d0:	e58d4038 	str	r4, [sp, #56]	; 0x38
    44d4:	eafffec8 	b	3ffc <_dtoa_r+0x88c>
    44d8:	e3a0c000 	mov	ip, #0
    44dc:	e58dc04c 	str	ip, [sp, #76]	; 0x4c
    44e0:	e59dc0a4 	ldr	ip, [sp, #164]	; 0xa4
    44e4:	e59d101c 	ldr	r1, [sp, #28]
    44e8:	e08cc001 	add	ip, ip, r1
    44ec:	e58dc060 	str	ip, [sp, #96]	; 0x60
    44f0:	e28cc001 	add	ip, ip, #1
    44f4:	e35c0000 	cmp	ip, #0
    44f8:	da000140 	ble	4a00 <_dtoa_r+0x1290>
    44fc:	e35c000e 	cmp	ip, #14
    4500:	83a04000 	movhi	r4, #0
    4504:	92044001 	andls	r4, r4, #1
    4508:	e58dc03c 	str	ip, [sp, #60]	; 0x3c
    450c:	eaffff11 	b	4158 <_dtoa_r+0x9e8>
    4510:	e3a0c000 	mov	ip, #0
    4514:	e58dc04c 	str	ip, [sp, #76]	; 0x4c
    4518:	eaffff06 	b	4138 <_dtoa_r+0x9c8>
    451c:	e3a0c001 	mov	ip, #1
    4520:	e58dc04c 	str	ip, [sp, #76]	; 0x4c
    4524:	eaffffed 	b	44e0 <_dtoa_r+0xd70>
    4528:	e35a0000 	cmp	sl, #0
    452c:	1afffe60 	bne	3eb4 <_dtoa_r+0x744>
    4530:	e3cb34ff 	bic	r3, fp, #-16777216	; 0xff000000
    4534:	e3c3360f 	bic	r3, r3, #15728640	; 0xf00000
    4538:	e3530000 	cmp	r3, #0
    453c:	11a0700a 	movne	r7, sl
    4540:	1afffe5c 	bne	3eb8 <_dtoa_r+0x748>
    4544:	e51f38cc 	ldr	r3, [pc, #-2252]	; 3c80 <_dtoa_r+0x510>
    4548:	e00b3003 	and	r3, fp, r3
    454c:	e3530000 	cmp	r3, #0
    4550:	01a07003 	moveq	r7, r3
    4554:	0afffe57 	beq	3eb8 <_dtoa_r+0x748>
    4558:	e59dc040 	ldr	ip, [sp, #64]	; 0x40
    455c:	e28cc001 	add	ip, ip, #1
    4560:	e58dc040 	str	ip, [sp, #64]	; 0x40
    4564:	e59dc02c 	ldr	ip, [sp, #44]	; 0x2c
    4568:	e28cc001 	add	ip, ip, #1
    456c:	e58dc02c 	str	ip, [sp, #44]	; 0x2c
    4570:	e3a07001 	mov	r7, #1
    4574:	eafffe4f 	b	3eb8 <_dtoa_r+0x748>
    4578:	e1a00007 	mov	r0, r7
    457c:	ebfff050 	bl	6c4 <__aeabi_i2d>
    4580:	e28d3020 	add	r3, sp, #32
    4584:	e893000c 	ldm	r3, {r2, r3}
    4588:	eb001574 	bl	9b60 <__aeabi_dmul>
    458c:	e3a02000 	mov	r2, #0
    4590:	e51f3914 	ldr	r3, [pc, #-2324]	; 3c84 <_dtoa_r+0x514>
    4594:	ebffef7d 	bl	390 <__adddf3>
    4598:	e59dc03c 	ldr	ip, [sp, #60]	; 0x3c
    459c:	e241450d 	sub	r4, r1, #54525952	; 0x3400000
    45a0:	e35c0000 	cmp	ip, #0
    45a4:	e1a08000 	mov	r8, r0
    45a8:	e1a09004 	mov	r9, r4
    45ac:	1a000087 	bne	47d0 <_dtoa_r+0x1060>
    45b0:	e3a02000 	mov	r2, #0
    45b4:	e51f3934 	ldr	r3, [pc, #-2356]	; 3c88 <_dtoa_r+0x518>
    45b8:	e28d1020 	add	r1, sp, #32
    45bc:	e8910003 	ldm	r1, {r0, r1}
    45c0:	ebffef71 	bl	38c <__aeabi_dsub>
    45c4:	e1a02008 	mov	r2, r8
    45c8:	e1a03004 	mov	r3, r4
    45cc:	e1a0a000 	mov	sl, r0
    45d0:	e1a0b001 	mov	fp, r1
    45d4:	ebfff0bc 	bl	8cc <__aeabi_dcmpgt>
    45d8:	e3500000 	cmp	r0, #0
    45dc:	1a0000e2 	bne	496c <_dtoa_r+0x11fc>
    45e0:	e1a02008 	mov	r2, r8
    45e4:	e2843102 	add	r3, r4, #-2147483648	; 0x80000000
    45e8:	e1a0000a 	mov	r0, sl
    45ec:	e1a0100b 	mov	r1, fp
    45f0:	ebfff0a3 	bl	884 <__aeabi_dcmplt>
    45f4:	e3500000 	cmp	r0, #0
    45f8:	0a000066 	beq	4798 <_dtoa_r+0x1028>
    45fc:	e59d403c 	ldr	r4, [sp, #60]	; 0x3c
    4600:	e1a09004 	mov	r9, r4
    4604:	eafffec3 	b	4118 <_dtoa_r+0x9a8>
    4608:	e59dc04c 	ldr	ip, [sp, #76]	; 0x4c
    460c:	e35c0000 	cmp	ip, #0
    4610:	0a0000ff 	beq	4a14 <_dtoa_r+0x12a4>
    4614:	e3550000 	cmp	r5, #0
    4618:	da000004 	ble	4630 <_dtoa_r+0xec0>
    461c:	e1a01009 	mov	r1, r9
    4620:	e1a00006 	mov	r0, r6
    4624:	e1a02005 	mov	r2, r5
    4628:	eb000937 	bl	6b0c <__lshift>
    462c:	e1a09000 	mov	r9, r0
    4630:	e3570000 	cmp	r7, #0
    4634:	01a07009 	moveq	r7, r9
    4638:	1a000199 	bne	4ca4 <_dtoa_r+0x1534>
    463c:	e59dc038 	ldr	ip, [sp, #56]	; 0x38
    4640:	e3a08001 	mov	r8, #1
    4644:	e58dc028 	str	ip, [sp, #40]	; 0x28
    4648:	e00ac008 	and	ip, sl, r8
    464c:	e58d402c 	str	r4, [sp, #44]	; 0x2c
    4650:	e58dc040 	str	ip, [sp, #64]	; 0x40
    4654:	e59d4044 	ldr	r4, [sp, #68]	; 0x44
    4658:	e1a05009 	mov	r5, r9
    465c:	e59d102c 	ldr	r1, [sp, #44]	; 0x2c
    4660:	e1a00004 	mov	r0, r4
    4664:	ebfffbc3 	bl	3578 <quorem>
    4668:	e1a01005 	mov	r1, r5
    466c:	e58d0030 	str	r0, [sp, #48]	; 0x30
    4670:	e1a00004 	mov	r0, r4
    4674:	eb000963 	bl	6c08 <__mcmp>
    4678:	e1a02007 	mov	r2, r7
    467c:	e1a0a000 	mov	sl, r0
    4680:	e59d102c 	ldr	r1, [sp, #44]	; 0x2c
    4684:	e1a00006 	mov	r0, r6
    4688:	eb000977 	bl	6c6c <__mdiff>
    468c:	e59d2030 	ldr	r2, [sp, #48]	; 0x30
    4690:	e590300c 	ldr	r3, [r0, #12]
    4694:	e2822030 	add	r2, r2, #48	; 0x30
    4698:	e3530000 	cmp	r3, #0
    469c:	e1a09000 	mov	r9, r0
    46a0:	e58d2020 	str	r2, [sp, #32]
    46a4:	13a0b001 	movne	fp, #1
    46a8:	0a000030 	beq	4770 <_dtoa_r+0x1000>
    46ac:	e1a00006 	mov	r0, r6
    46b0:	e1a01009 	mov	r1, r9
    46b4:	eb0007a0 	bl	653c <_Bfree>
    46b8:	e59dc0a0 	ldr	ip, [sp, #160]	; 0xa0
    46bc:	e19bc00c 	orrs	ip, fp, ip
    46c0:	1a000002 	bne	46d0 <_dtoa_r+0xf60>
    46c4:	e59dc040 	ldr	ip, [sp, #64]	; 0x40
    46c8:	e35c0000 	cmp	ip, #0
    46cc:	0a00019f 	beq	4d50 <_dtoa_r+0x15e0>
    46d0:	e35a0000 	cmp	sl, #0
    46d4:	ba00015a 	blt	4c44 <_dtoa_r+0x14d4>
    46d8:	e59dc0a0 	ldr	ip, [sp, #160]	; 0xa0
    46dc:	e19ac00c 	orrs	ip, sl, ip
    46e0:	1a000002 	bne	46f0 <_dtoa_r+0xf80>
    46e4:	e59dc040 	ldr	ip, [sp, #64]	; 0x40
    46e8:	e35c0000 	cmp	ip, #0
    46ec:	0a000154 	beq	4c44 <_dtoa_r+0x14d4>
    46f0:	e35b0000 	cmp	fp, #0
    46f4:	ca000184 	bgt	4d0c <_dtoa_r+0x159c>
    46f8:	e59d1028 	ldr	r1, [sp, #40]	; 0x28
    46fc:	e59dc020 	ldr	ip, [sp, #32]
    4700:	e4c1c001 	strb	ip, [r1], #1
    4704:	e59dc03c 	ldr	ip, [sp, #60]	; 0x3c
    4708:	e158000c 	cmp	r8, ip
    470c:	e58d1028 	str	r1, [sp, #40]	; 0x28
    4710:	e1a0a001 	mov	sl, r1
    4714:	0a000177 	beq	4cf8 <_dtoa_r+0x1588>
    4718:	e1a01004 	mov	r1, r4
    471c:	e1a00006 	mov	r0, r6
    4720:	e3a0200a 	mov	r2, #10
    4724:	e3a03000 	mov	r3, #0
    4728:	eb00078a 	bl	6558 <__multadd>
    472c:	e1550007 	cmp	r5, r7
    4730:	e1a04000 	mov	r4, r0
    4734:	0a00001c 	beq	47ac <_dtoa_r+0x103c>
    4738:	e1a01005 	mov	r1, r5
    473c:	e3a0200a 	mov	r2, #10
    4740:	e3a03000 	mov	r3, #0
    4744:	e1a00006 	mov	r0, r6
    4748:	eb000782 	bl	6558 <__multadd>
    474c:	e1a01007 	mov	r1, r7
    4750:	e1a05000 	mov	r5, r0
    4754:	e3a0200a 	mov	r2, #10
    4758:	e1a00006 	mov	r0, r6
    475c:	e3a03000 	mov	r3, #0
    4760:	eb00077c 	bl	6558 <__multadd>
    4764:	e2888001 	add	r8, r8, #1
    4768:	e1a07000 	mov	r7, r0
    476c:	eaffffba 	b	465c <_dtoa_r+0xeec>
    4770:	e1a00004 	mov	r0, r4
    4774:	e1a01009 	mov	r1, r9
    4778:	eb000922 	bl	6c08 <__mcmp>
    477c:	e1a0b000 	mov	fp, r0
    4780:	eaffffc9 	b	46ac <_dtoa_r+0xf3c>
    4784:	e1a00006 	mov	r0, r6
    4788:	e1a01005 	mov	r1, r5
    478c:	eb00076a 	bl	653c <_Bfree>
    4790:	eafffe16 	b	3ff0 <_dtoa_r+0x880>
    4794:	e59d606c 	ldr	r6, [sp, #108]	; 0x6c
    4798:	e28d2030 	add	r2, sp, #48	; 0x30
    479c:	e8920006 	ldm	r2, {r1, r2}
    47a0:	e1a0a001 	mov	sl, r1
    47a4:	e1a0b002 	mov	fp, r2
    47a8:	eafffce2 	b	3b38 <_dtoa_r+0x3c8>
    47ac:	e1a01005 	mov	r1, r5
    47b0:	e1a00006 	mov	r0, r6
    47b4:	e3a0200a 	mov	r2, #10
    47b8:	e3a03000 	mov	r3, #0
    47bc:	eb000765 	bl	6558 <__multadd>
    47c0:	e2888001 	add	r8, r8, #1
    47c4:	e1a05000 	mov	r5, r0
    47c8:	e1a07000 	mov	r7, r0
    47cc:	eaffffa2 	b	465c <_dtoa_r+0xeec>
    47d0:	e59d401c 	ldr	r4, [sp, #28]
    47d4:	e59dc03c 	ldr	ip, [sp, #60]	; 0x3c
    47d8:	e58d4068 	str	r4, [sp, #104]	; 0x68
    47dc:	eafffecc 	b	4314 <_dtoa_r+0xba4>
    47e0:	e59dc01c 	ldr	ip, [sp, #28]
    47e4:	e26c4000 	rsb	r4, ip, #0
    47e8:	e3540000 	cmp	r4, #0
    47ec:	0a0000c8 	beq	4b14 <_dtoa_r+0x13a4>
    47f0:	e51f3b68 	ldr	r3, [pc, #-2920]	; 3c90 <_dtoa_r+0x520>
    47f4:	e204200f 	and	r2, r4, #15
    47f8:	e0833182 	add	r3, r3, r2, lsl #3
    47fc:	e28d1020 	add	r1, sp, #32
    4800:	e8910003 	ldm	r1, {r0, r1}
    4804:	e893000c 	ldm	r3, {r2, r3}
    4808:	eb0014d4 	bl	9b60 <__aeabi_dmul>
    480c:	e1b04244 	asrs	r4, r4, #4
    4810:	e58d0020 	str	r0, [sp, #32]
    4814:	e58d1024 	str	r1, [sp, #36]	; 0x24
    4818:	0a0000bd 	beq	4b14 <_dtoa_r+0x13a4>
    481c:	e51f5b98 	ldr	r5, [pc, #-2968]	; 3c8c <_dtoa_r+0x51c>
    4820:	e3a07002 	mov	r7, #2
    4824:	e3140001 	tst	r4, #1
    4828:	0a000002 	beq	4838 <_dtoa_r+0x10c8>
    482c:	e895000c 	ldm	r5, {r2, r3}
    4830:	eb0014ca 	bl	9b60 <__aeabi_dmul>
    4834:	e2877001 	add	r7, r7, #1
    4838:	e1b040c4 	asrs	r4, r4, #1
    483c:	e2855008 	add	r5, r5, #8
    4840:	1afffff7 	bne	4824 <_dtoa_r+0x10b4>
    4844:	e58d0020 	str	r0, [sp, #32]
    4848:	e58d1024 	str	r1, [sp, #36]	; 0x24
    484c:	eafffe85 	b	4268 <_dtoa_r+0xaf8>
    4850:	e51f1bc8 	ldr	r1, [pc, #-3016]	; 3c90 <_dtoa_r+0x520>
    4854:	e24ca001 	sub	sl, ip, #1
    4858:	e081118a 	add	r1, r1, sl, lsl #3
    485c:	e1a02008 	mov	r2, r8
    4860:	e1a03009 	mov	r3, r9
    4864:	e8910003 	ldm	r1, {r0, r1}
    4868:	e58dc00c 	str	ip, [sp, #12]
    486c:	eb0014bb 	bl	9b60 <__aeabi_dmul>
    4870:	e58d0058 	str	r0, [sp, #88]	; 0x58
    4874:	e58d105c 	str	r1, [sp, #92]	; 0x5c
    4878:	e28d1020 	add	r1, sp, #32
    487c:	e8910003 	ldm	r1, {r0, r1}
    4880:	eb0015dd 	bl	9ffc <__aeabi_d2iz>
    4884:	e1a04000 	mov	r4, r0
    4888:	ebffef8d 	bl	6c4 <__aeabi_i2d>
    488c:	e1a03001 	mov	r3, r1
    4890:	e1a02000 	mov	r2, r0
    4894:	e28d1020 	add	r1, sp, #32
    4898:	e8910003 	ldm	r1, {r0, r1}
    489c:	ebffeeba 	bl	38c <__aeabi_dsub>
    48a0:	e1a09001 	mov	r9, r1
    48a4:	e59d1038 	ldr	r1, [sp, #56]	; 0x38
    48a8:	e2843030 	add	r3, r4, #48	; 0x30
    48ac:	e4c13001 	strb	r3, [r1], #1
    48b0:	e59dc00c 	ldr	ip, [sp, #12]
    48b4:	e35c0001 	cmp	ip, #1
    48b8:	e1a08000 	mov	r8, r0
    48bc:	e58d1020 	str	r1, [sp, #32]
    48c0:	e1a07001 	mov	r7, r1
    48c4:	0a000019 	beq	4930 <_dtoa_r+0x11c0>
    48c8:	e59d4038 	ldr	r4, [sp, #56]	; 0x38
    48cc:	e2447001 	sub	r7, r4, #1
    48d0:	e087700c 	add	r7, r7, ip
    48d4:	e1a00008 	mov	r0, r8
    48d8:	e1a01009 	mov	r1, r9
    48dc:	e3a02000 	mov	r2, #0
    48e0:	e51f3c54 	ldr	r3, [pc, #-3156]	; 3c94 <_dtoa_r+0x524>
    48e4:	eb00149d 	bl	9b60 <__aeabi_dmul>
    48e8:	e1a09001 	mov	r9, r1
    48ec:	e1a08000 	mov	r8, r0
    48f0:	eb0015c1 	bl	9ffc <__aeabi_d2iz>
    48f4:	e1a05000 	mov	r5, r0
    48f8:	ebffef71 	bl	6c4 <__aeabi_i2d>
    48fc:	e2855030 	add	r5, r5, #48	; 0x30
    4900:	e1a02000 	mov	r2, r0
    4904:	e1a03001 	mov	r3, r1
    4908:	e1a00008 	mov	r0, r8
    490c:	e1a01009 	mov	r1, r9
    4910:	ebffee9d 	bl	38c <__aeabi_dsub>
    4914:	e5e45001 	strb	r5, [r4, #1]!
    4918:	e1540007 	cmp	r4, r7
    491c:	1affffee 	bne	48dc <_dtoa_r+0x116c>
    4920:	e59dc020 	ldr	ip, [sp, #32]
    4924:	e1a08000 	mov	r8, r0
    4928:	e1a09001 	mov	r9, r1
    492c:	e08c700a 	add	r7, ip, sl
    4930:	e3a02000 	mov	r2, #0
    4934:	e51f3ca4 	ldr	r3, [pc, #-3236]	; 3c98 <_dtoa_r+0x528>
    4938:	e28d1058 	add	r1, sp, #88	; 0x58
    493c:	e8910003 	ldm	r1, {r0, r1}
    4940:	ebffee92 	bl	390 <__adddf3>
    4944:	e1a02000 	mov	r2, r0
    4948:	e1a03001 	mov	r3, r1
    494c:	e1a00008 	mov	r0, r8
    4950:	e1a01009 	mov	r1, r9
    4954:	ebffefdc 	bl	8cc <__aeabi_dcmpgt>
    4958:	e3500000 	cmp	r0, #0
    495c:	0a000077 	beq	4b40 <_dtoa_r+0x13d0>
    4960:	e5575001 	ldrb	r5, [r7, #-1]
    4964:	e59d8038 	ldr	r8, [sp, #56]	; 0x38
    4968:	eafffd01 	b	3d74 <_dtoa_r+0x604>
    496c:	e59d403c 	ldr	r4, [sp, #60]	; 0x3c
    4970:	e1a09004 	mov	r9, r4
    4974:	eafffd8c 	b	3fac <_dtoa_r+0x83c>
    4978:	e5943010 	ldr	r3, [r4, #16]
    497c:	e0843103 	add	r3, r4, r3, lsl #2
    4980:	e5930010 	ldr	r0, [r3, #16]
    4984:	eb000764 	bl	671c <__hi0bits>
    4988:	e2603020 	rsb	r3, r0, #32
    498c:	eafffd4d 	b	3ec8 <_dtoa_r+0x758>
    4990:	e59d0044 	ldr	r0, [sp, #68]	; 0x44
    4994:	e1a01004 	mov	r1, r4
    4998:	eb00089a 	bl	6c08 <__mcmp>
    499c:	e3500000 	cmp	r0, #0
    49a0:	aafffd6b 	bge	3f54 <_dtoa_r+0x7e4>
    49a4:	e1a00006 	mov	r0, r6
    49a8:	e59d1044 	ldr	r1, [sp, #68]	; 0x44
    49ac:	e3a0200a 	mov	r2, #10
    49b0:	e3a03000 	mov	r3, #0
    49b4:	eb0006e7 	bl	6558 <__multadd>
    49b8:	e59dc04c 	ldr	ip, [sp, #76]	; 0x4c
    49bc:	e35c0000 	cmp	ip, #0
    49c0:	e59dc01c 	ldr	ip, [sp, #28]
    49c4:	e24cc001 	sub	ip, ip, #1
    49c8:	e58d0044 	str	r0, [sp, #68]	; 0x44
    49cc:	e58dc01c 	str	ip, [sp, #28]
    49d0:	1a0000f4 	bne	4da8 <_dtoa_r+0x1638>
    49d4:	e59dc060 	ldr	ip, [sp, #96]	; 0x60
    49d8:	e58dc03c 	str	ip, [sp, #60]	; 0x3c
    49dc:	eafffd5c 	b	3f54 <_dtoa_r+0x7e4>
    49e0:	e3a03001 	mov	r3, #1
    49e4:	e58d3060 	str	r3, [sp, #96]	; 0x60
    49e8:	e58d303c 	str	r3, [sp, #60]	; 0x3c
    49ec:	e58d30a4 	str	r3, [sp, #164]	; 0xa4
    49f0:	e3a01000 	mov	r1, #0
    49f4:	e5861044 	str	r1, [r6, #68]	; 0x44
    49f8:	e0034004 	and	r4, r3, r4
    49fc:	eafffde2 	b	418c <_dtoa_r+0xa1c>
    4a00:	e35c000e 	cmp	ip, #14
    4a04:	83a03000 	movhi	r3, #0
    4a08:	93a03001 	movls	r3, #1
    4a0c:	e58dc03c 	str	ip, [sp, #60]	; 0x3c
    4a10:	eafffff6 	b	49f0 <_dtoa_r+0x1280>
    4a14:	e59d504c 	ldr	r5, [sp, #76]	; 0x4c
    4a18:	e59da03c 	ldr	sl, [sp, #60]	; 0x3c
    4a1c:	e59db044 	ldr	fp, [sp, #68]	; 0x44
    4a20:	e59d7038 	ldr	r7, [sp, #56]	; 0x38
    4a24:	ea000005 	b	4a40 <_dtoa_r+0x12d0>
    4a28:	e1a0100b 	mov	r1, fp
    4a2c:	e1a00006 	mov	r0, r6
    4a30:	e3a0200a 	mov	r2, #10
    4a34:	e3a03000 	mov	r3, #0
    4a38:	eb0006c6 	bl	6558 <__multadd>
    4a3c:	e1a0b000 	mov	fp, r0
    4a40:	e1a01004 	mov	r1, r4
    4a44:	e1a0000b 	mov	r0, fp
    4a48:	ebfffaca 	bl	3578 <quorem>
    4a4c:	e2800030 	add	r0, r0, #48	; 0x30
    4a50:	e7c70005 	strb	r0, [r7, r5]
    4a54:	e2855001 	add	r5, r5, #1
    4a58:	e15a0005 	cmp	sl, r5
    4a5c:	cafffff1 	bgt	4a28 <_dtoa_r+0x12b8>
    4a60:	e28da038 	add	sl, sp, #56	; 0x38
    4a64:	e89a1400 	ldm	sl, {sl, ip}
    4a68:	e58db044 	str	fp, [sp, #68]	; 0x44
    4a6c:	e1a08000 	mov	r8, r0
    4a70:	e35c0001 	cmp	ip, #1
    4a74:	a08aa00c 	addge	sl, sl, ip
    4a78:	b28aa001 	addlt	sl, sl, #1
    4a7c:	e3a05000 	mov	r5, #0
    4a80:	e3a02001 	mov	r2, #1
    4a84:	e59d1044 	ldr	r1, [sp, #68]	; 0x44
    4a88:	e1a00006 	mov	r0, r6
    4a8c:	eb00081e 	bl	6b0c <__lshift>
    4a90:	e1a01004 	mov	r1, r4
    4a94:	e58d0044 	str	r0, [sp, #68]	; 0x44
    4a98:	eb00085a 	bl	6c08 <__mcmp>
    4a9c:	e3500000 	cmp	r0, #0
    4aa0:	da000011 	ble	4aec <_dtoa_r+0x137c>
    4aa4:	e55a3001 	ldrb	r3, [sl, #-1]
    4aa8:	e59dc038 	ldr	ip, [sp, #56]	; 0x38
    4aac:	e28c2001 	add	r2, ip, #1
    4ab0:	ea000001 	b	4abc <_dtoa_r+0x134c>
    4ab4:	e55a3002 	ldrb	r3, [sl, #-2]
    4ab8:	e24aa001 	sub	sl, sl, #1
    4abc:	e3530039 	cmp	r3, #57	; 0x39
    4ac0:	1a000087 	bne	4ce4 <_dtoa_r+0x1574>
    4ac4:	e15a0002 	cmp	sl, r2
    4ac8:	1afffff9 	bne	4ab4 <_dtoa_r+0x1344>
    4acc:	e59dc01c 	ldr	ip, [sp, #28]
    4ad0:	e3a03031 	mov	r3, #49	; 0x31
    4ad4:	e28cc001 	add	ip, ip, #1
    4ad8:	e59d8038 	ldr	r8, [sp, #56]	; 0x38
    4adc:	e58dc01c 	str	ip, [sp, #28]
    4ae0:	e54a3001 	strb	r3, [sl, #-1]
    4ae4:	e58da038 	str	sl, [sp, #56]	; 0x38
    4ae8:	eafffd38 	b	3fd0 <_dtoa_r+0x860>
    4aec:	1a000001 	bne	4af8 <_dtoa_r+0x1388>
    4af0:	e3180001 	tst	r8, #1
    4af4:	1affffea 	bne	4aa4 <_dtoa_r+0x1334>
    4af8:	e1a0200a 	mov	r2, sl
    4afc:	e57a3001 	ldrb	r3, [sl, #-1]!
    4b00:	e3530030 	cmp	r3, #48	; 0x30
    4b04:	0afffffb 	beq	4af8 <_dtoa_r+0x1388>
    4b08:	e59d8038 	ldr	r8, [sp, #56]	; 0x38
    4b0c:	e58d2038 	str	r2, [sp, #56]	; 0x38
    4b10:	eafffd2e 	b	3fd0 <_dtoa_r+0x860>
    4b14:	e3a07002 	mov	r7, #2
    4b18:	eafffdd2 	b	4268 <_dtoa_r+0xaf8>
    4b1c:	e59d8038 	ldr	r8, [sp, #56]	; 0x38
    4b20:	e58d4038 	str	r4, [sp, #56]	; 0x38
    4b24:	eafffd34 	b	3ffc <_dtoa_r+0x88c>
    4b28:	e28d1044 	add	r1, sp, #68	; 0x44
    4b2c:	e1a00006 	mov	r0, r6
    4b30:	e8910006 	ldm	r1, {r1, r2}
    4b34:	eb0007b7 	bl	6a18 <__pow5mult>
    4b38:	e58d0044 	str	r0, [sp, #68]	; 0x44
    4b3c:	eafffccd 	b	3e78 <_dtoa_r+0x708>
    4b40:	e28d3058 	add	r3, sp, #88	; 0x58
    4b44:	e893000c 	ldm	r3, {r2, r3}
    4b48:	e3a00000 	mov	r0, #0
    4b4c:	e51f1ebc 	ldr	r1, [pc, #-3772]	; 3c98 <_dtoa_r+0x528>
    4b50:	ebffee0d 	bl	38c <__aeabi_dsub>
    4b54:	e1a02000 	mov	r2, r0
    4b58:	e1a03001 	mov	r3, r1
    4b5c:	e1a00008 	mov	r0, r8
    4b60:	e1a01009 	mov	r1, r9
    4b64:	ebffef46 	bl	884 <__aeabi_dcmplt>
    4b68:	e3500000 	cmp	r0, #0
    4b6c:	0affff09 	beq	4798 <_dtoa_r+0x1028>
    4b70:	e1a02007 	mov	r2, r7
    4b74:	e5773001 	ldrb	r3, [r7, #-1]!
    4b78:	e3530030 	cmp	r3, #48	; 0x30
    4b7c:	0afffffb 	beq	4b70 <_dtoa_r+0x1400>
    4b80:	e59d4068 	ldr	r4, [sp, #104]	; 0x68
    4b84:	e59d8038 	ldr	r8, [sp, #56]	; 0x38
    4b88:	e58d401c 	str	r4, [sp, #28]
    4b8c:	e58d2038 	str	r2, [sp, #56]	; 0x38
    4b90:	eafffd19 	b	3ffc <_dtoa_r+0x88c>
    4b94:	e1a00006 	mov	r0, r6
    4b98:	e59d1044 	ldr	r1, [sp, #68]	; 0x44
    4b9c:	eb00079d 	bl	6a18 <__pow5mult>
    4ba0:	e58d0044 	str	r0, [sp, #68]	; 0x44
    4ba4:	eafffcb3 	b	3e78 <_dtoa_r+0x708>
    4ba8:	e59d4064 	ldr	r4, [sp, #100]	; 0x64
    4bac:	e3540000 	cmp	r4, #0
    4bb0:	059d3070 	ldreq	r3, [sp, #112]	; 0x70
    4bb4:	12833e43 	addne	r3, r3, #1072	; 0x430
    4bb8:	12833003 	addne	r3, r3, #3
    4bbc:	159d4048 	ldrne	r4, [sp, #72]	; 0x48
    4bc0:	059d4048 	ldreq	r4, [sp, #72]	; 0x48
    4bc4:	02633036 	rsbeq	r3, r3, #54	; 0x36
    4bc8:	e59d5040 	ldr	r5, [sp, #64]	; 0x40
    4bcc:	eafffd37 	b	40b0 <_dtoa_r+0x940>
    4bd0:	e3a04000 	mov	r4, #0
    4bd4:	e1a09004 	mov	r9, r4
    4bd8:	eafffd4e 	b	4118 <_dtoa_r+0x9a8>
    4bdc:	e28d1010 	add	r1, sp, #16
    4be0:	e8910003 	ldm	r1, {r0, r1}
    4be4:	e1a02008 	mov	r2, r8
    4be8:	e1a03009 	mov	r3, r9
    4bec:	ebffef1e 	bl	86c <__aeabi_dcmpeq>
    4bf0:	e3500000 	cmp	r0, #0
    4bf4:	0a00000f 	beq	4c38 <_dtoa_r+0x14c8>
    4bf8:	e3150001 	tst	r5, #1
    4bfc:	0a00000d 	beq	4c38 <_dtoa_r+0x14c8>
    4c00:	e59dc01c 	ldr	ip, [sp, #28]
    4c04:	e5575001 	ldrb	r5, [r7, #-1]
    4c08:	e59d8038 	ldr	r8, [sp, #56]	; 0x38
    4c0c:	e58dc068 	str	ip, [sp, #104]	; 0x68
    4c10:	eafffc57 	b	3d74 <_dtoa_r+0x604>
    4c14:	e59d606c 	ldr	r6, [sp, #108]	; 0x6c
    4c18:	e59d8038 	ldr	r8, [sp, #56]	; 0x38
    4c1c:	eafffc54 	b	3d74 <_dtoa_r+0x604>
    4c20:	e59d4068 	ldr	r4, [sp, #104]	; 0x68
    4c24:	e2855001 	add	r5, r5, #1
    4c28:	e58d7038 	str	r7, [sp, #56]	; 0x38
    4c2c:	e58d401c 	str	r4, [sp, #28]
    4c30:	e5435001 	strb	r5, [r3, #-1]
    4c34:	eafffcf0 	b	3ffc <_dtoa_r+0x88c>
    4c38:	e59d8038 	ldr	r8, [sp, #56]	; 0x38
    4c3c:	e58d7038 	str	r7, [sp, #56]	; 0x38
    4c40:	eafffced 	b	3ffc <_dtoa_r+0x88c>
    4c44:	e35b0000 	cmp	fp, #0
    4c48:	e58d4044 	str	r4, [sp, #68]	; 0x44
    4c4c:	e59d8020 	ldr	r8, [sp, #32]
    4c50:	e59d402c 	ldr	r4, [sp, #44]	; 0x2c
    4c54:	da00000c 	ble	4c8c <_dtoa_r+0x151c>
    4c58:	e3a02001 	mov	r2, #1
    4c5c:	e59d1044 	ldr	r1, [sp, #68]	; 0x44
    4c60:	e1a00006 	mov	r0, r6
    4c64:	eb0007a8 	bl	6b0c <__lshift>
    4c68:	e1a01004 	mov	r1, r4
    4c6c:	e58d0044 	str	r0, [sp, #68]	; 0x44
    4c70:	eb0007e4 	bl	6c08 <__mcmp>
    4c74:	e3500000 	cmp	r0, #0
    4c78:	da000040 	ble	4d80 <_dtoa_r+0x1610>
    4c7c:	e3580039 	cmp	r8, #57	; 0x39
    4c80:	0a00002d 	beq	4d3c <_dtoa_r+0x15cc>
    4c84:	e59d3030 	ldr	r3, [sp, #48]	; 0x30
    4c88:	e2838031 	add	r8, r3, #49	; 0x31
    4c8c:	e59d3028 	ldr	r3, [sp, #40]	; 0x28
    4c90:	e4c38001 	strb	r8, [r3], #1
    4c94:	e59d8038 	ldr	r8, [sp, #56]	; 0x38
    4c98:	e1a09007 	mov	r9, r7
    4c9c:	e58d3038 	str	r3, [sp, #56]	; 0x38
    4ca0:	eafffcca 	b	3fd0 <_dtoa_r+0x860>
    4ca4:	e5991004 	ldr	r1, [r9, #4]
    4ca8:	e1a00006 	mov	r0, r6
    4cac:	eb000601 	bl	64b8 <_Balloc>
    4cb0:	e5992010 	ldr	r2, [r9, #16]
    4cb4:	e2822002 	add	r2, r2, #2
    4cb8:	e1a05000 	mov	r5, r0
    4cbc:	e1a02102 	lsl	r2, r2, #2
    4cc0:	e289100c 	add	r1, r9, #12
    4cc4:	e280000c 	add	r0, r0, #12
    4cc8:	eb000548 	bl	61f0 <memcpy>
    4ccc:	e1a00006 	mov	r0, r6
    4cd0:	e1a01005 	mov	r1, r5
    4cd4:	e3a02001 	mov	r2, #1
    4cd8:	eb00078b 	bl	6b0c <__lshift>
    4cdc:	e1a07000 	mov	r7, r0
    4ce0:	eafffe55 	b	463c <_dtoa_r+0xecc>
    4ce4:	e2833001 	add	r3, r3, #1
    4ce8:	e59d8038 	ldr	r8, [sp, #56]	; 0x38
    4cec:	e54a3001 	strb	r3, [sl, #-1]
    4cf0:	e58da038 	str	sl, [sp, #56]	; 0x38
    4cf4:	eafffcb5 	b	3fd0 <_dtoa_r+0x860>
    4cf8:	e58d4044 	str	r4, [sp, #68]	; 0x44
    4cfc:	e59d8020 	ldr	r8, [sp, #32]
    4d00:	e59d402c 	ldr	r4, [sp, #44]	; 0x2c
    4d04:	e1a09007 	mov	r9, r7
    4d08:	eaffff5c 	b	4a80 <_dtoa_r+0x1310>
    4d0c:	e59d8020 	ldr	r8, [sp, #32]
    4d10:	e3580039 	cmp	r8, #57	; 0x39
    4d14:	e58d4044 	str	r4, [sp, #68]	; 0x44
    4d18:	e59d402c 	ldr	r4, [sp, #44]	; 0x2c
    4d1c:	0a000006 	beq	4d3c <_dtoa_r+0x15cc>
    4d20:	e59d3028 	ldr	r3, [sp, #40]	; 0x28
    4d24:	e2888001 	add	r8, r8, #1
    4d28:	e4c38001 	strb	r8, [r3], #1
    4d2c:	e59d8038 	ldr	r8, [sp, #56]	; 0x38
    4d30:	e1a09007 	mov	r9, r7
    4d34:	e58d3038 	str	r3, [sp, #56]	; 0x38
    4d38:	eafffca4 	b	3fd0 <_dtoa_r+0x860>
    4d3c:	e59da028 	ldr	sl, [sp, #40]	; 0x28
    4d40:	e3a03039 	mov	r3, #57	; 0x39
    4d44:	e4ca3001 	strb	r3, [sl], #1
    4d48:	e1a09007 	mov	r9, r7
    4d4c:	eaffff55 	b	4aa8 <_dtoa_r+0x1338>
    4d50:	e59d8020 	ldr	r8, [sp, #32]
    4d54:	e3580039 	cmp	r8, #57	; 0x39
    4d58:	e58d4044 	str	r4, [sp, #68]	; 0x44
    4d5c:	e59d402c 	ldr	r4, [sp, #44]	; 0x2c
    4d60:	0afffff5 	beq	4d3c <_dtoa_r+0x15cc>
    4d64:	e35a0000 	cmp	sl, #0
    4d68:	caffffc5 	bgt	4c84 <_dtoa_r+0x1514>
    4d6c:	eaffffc6 	b	4c8c <_dtoa_r+0x151c>
    4d70:	e59d4020 	ldr	r4, [sp, #32]
    4d74:	e59d8038 	ldr	r8, [sp, #56]	; 0x38
    4d78:	e58d4038 	str	r4, [sp, #56]	; 0x38
    4d7c:	eafffc9e 	b	3ffc <_dtoa_r+0x88c>
    4d80:	1affffc1 	bne	4c8c <_dtoa_r+0x151c>
    4d84:	e3180001 	tst	r8, #1
    4d88:	0affffbf 	beq	4c8c <_dtoa_r+0x151c>
    4d8c:	eaffffba 	b	4c7c <_dtoa_r+0x150c>
    4d90:	e59d4068 	ldr	r4, [sp, #104]	; 0x68
    4d94:	e59dc020 	ldr	ip, [sp, #32]
    4d98:	e59d8038 	ldr	r8, [sp, #56]	; 0x38
    4d9c:	e58d401c 	str	r4, [sp, #28]
    4da0:	e58dc038 	str	ip, [sp, #56]	; 0x38
    4da4:	eafffc94 	b	3ffc <_dtoa_r+0x88c>
    4da8:	e1a01009 	mov	r1, r9
    4dac:	e1a00006 	mov	r0, r6
    4db0:	e3a0200a 	mov	r2, #10
    4db4:	e3a03000 	mov	r3, #0
    4db8:	eb0005e6 	bl	6558 <__multadd>
    4dbc:	e59dc060 	ldr	ip, [sp, #96]	; 0x60
    4dc0:	e1a09000 	mov	r9, r0
    4dc4:	e58dc03c 	str	ip, [sp, #60]	; 0x3c
    4dc8:	eafffc61 	b	3f54 <_dtoa_r+0x7e4>
    4dcc:	1263303c 	rsbne	r3, r3, #60	; 0x3c
    4dd0:	0afffc4c 	beq	3f08 <_dtoa_r+0x798>
    4dd4:	eafffc44 	b	3eec <_dtoa_r+0x77c>

00004dd8 <_fflush_r>:
    4dd8:	e92d40f8 	push	{r3, r4, r5, r6, r7, lr}
    4ddc:	e2505000 	subs	r5, r0, #0
    4de0:	e1a04001 	mov	r4, r1
    4de4:	0a000002 	beq	4df4 <_fflush_r+0x1c>
    4de8:	e5953038 	ldr	r3, [r5, #56]	; 0x38
    4dec:	e3530000 	cmp	r3, #0
    4df0:	0a00005b 	beq	4f64 <_fflush_r+0x18c>
    4df4:	e1d470bc 	ldrh	r7, [r4, #12]
    4df8:	e3570000 	cmp	r7, #0
    4dfc:	0a000056 	beq	4f5c <_fflush_r+0x184>
    4e00:	e1a03807 	lsl	r3, r7, #16
    4e04:	e1a03843 	asr	r3, r3, #16
    4e08:	e2130008 	ands	r0, r3, #8
    4e0c:	0a00001e 	beq	4e8c <_fflush_r+0xb4>
    4e10:	e5947010 	ldr	r7, [r4, #16]
    4e14:	e3570000 	cmp	r7, #0
    4e18:	0a00004f 	beq	4f5c <_fflush_r+0x184>
    4e1c:	e5946000 	ldr	r6, [r4]
    4e20:	e3130003 	tst	r3, #3
    4e24:	05943014 	ldreq	r3, [r4, #20]
    4e28:	e0676006 	rsb	r6, r7, r6
    4e2c:	13a03000 	movne	r3, #0
    4e30:	e3560000 	cmp	r6, #0
    4e34:	e5847000 	str	r7, [r4]
    4e38:	e5843008 	str	r3, [r4, #8]
    4e3c:	ca000003 	bgt	4e50 <_fflush_r+0x78>
    4e40:	ea000060 	b	4fc8 <_fflush_r+0x1f0>
    4e44:	e3560000 	cmp	r6, #0
    4e48:	e0877000 	add	r7, r7, r0
    4e4c:	da00005d 	ble	4fc8 <_fflush_r+0x1f0>
    4e50:	e1a03006 	mov	r3, r6
    4e54:	e1a02007 	mov	r2, r7
    4e58:	e1a00005 	mov	r0, r5
    4e5c:	e594101c 	ldr	r1, [r4, #28]
    4e60:	e594c024 	ldr	ip, [r4, #36]	; 0x24
    4e64:	e1a0e00f 	mov	lr, pc
    4e68:	e12fff1c 	bx	ip
    4e6c:	e3500000 	cmp	r0, #0
    4e70:	e0606006 	rsb	r6, r0, r6
    4e74:	cafffff2 	bgt	4e44 <_fflush_r+0x6c>
    4e78:	e1d430bc 	ldrh	r3, [r4, #12]
    4e7c:	e3833040 	orr	r3, r3, #64	; 0x40
    4e80:	e1c430bc 	strh	r3, [r4, #12]
    4e84:	e3e00000 	mvn	r0, #0
    4e88:	ea000031 	b	4f54 <_fflush_r+0x17c>
    4e8c:	e5943004 	ldr	r3, [r4, #4]
    4e90:	e3877b02 	orr	r7, r7, #2048	; 0x800
    4e94:	e3530000 	cmp	r3, #0
    4e98:	e1c470bc 	strh	r7, [r4, #12]
    4e9c:	da00004b 	ble	4fd0 <_fflush_r+0x1f8>
    4ea0:	e594c028 	ldr	ip, [r4, #40]	; 0x28
    4ea4:	e35c0000 	cmp	ip, #0
    4ea8:	01a0000c 	moveq	r0, ip
    4eac:	0a000028 	beq	4f54 <_fflush_r+0x17c>
    4eb0:	e1a01007 	mov	r1, r7
    4eb4:	e3a03000 	mov	r3, #0
    4eb8:	e2177a01 	ands	r7, r7, #4096	; 0x1000
    4ebc:	e5956000 	ldr	r6, [r5]
    4ec0:	15942050 	ldrne	r2, [r4, #80]	; 0x50
    4ec4:	e5853000 	str	r3, [r5]
    4ec8:	0a00002b 	beq	4f7c <_fflush_r+0x1a4>
    4ecc:	e3110004 	tst	r1, #4
    4ed0:	0a000005 	beq	4eec <_fflush_r+0x114>
    4ed4:	e5941030 	ldr	r1, [r4, #48]	; 0x30
    4ed8:	e5943004 	ldr	r3, [r4, #4]
    4edc:	e3510000 	cmp	r1, #0
    4ee0:	e0632002 	rsb	r2, r3, r2
    4ee4:	1594303c 	ldrne	r3, [r4, #60]	; 0x3c
    4ee8:	10632002 	rsbne	r2, r3, r2
    4eec:	e1a00005 	mov	r0, r5
    4ef0:	e594101c 	ldr	r1, [r4, #28]
    4ef4:	e3a03000 	mov	r3, #0
    4ef8:	e1a0e00f 	mov	lr, pc
    4efc:	e12fff1c 	bx	ip
    4f00:	e3700001 	cmn	r0, #1
    4f04:	0a000028 	beq	4fac <_fflush_r+0x1d4>
    4f08:	e1d430bc 	ldrh	r3, [r4, #12]
    4f0c:	e5942010 	ldr	r2, [r4, #16]
    4f10:	e3c33b02 	bic	r3, r3, #2048	; 0x800
    4f14:	e3130a01 	tst	r3, #4096	; 0x1000
    4f18:	e1c430bc 	strh	r3, [r4, #12]
    4f1c:	e3a03000 	mov	r3, #0
    4f20:	e884000c 	stm	r4, {r2, r3}
    4f24:	1a000010 	bne	4f6c <_fflush_r+0x194>
    4f28:	e5941030 	ldr	r1, [r4, #48]	; 0x30
    4f2c:	e3510000 	cmp	r1, #0
    4f30:	e5856000 	str	r6, [r5]
    4f34:	01a00001 	moveq	r0, r1
    4f38:	0a000005 	beq	4f54 <_fflush_r+0x17c>
    4f3c:	e2843040 	add	r3, r4, #64	; 0x40
    4f40:	e1510003 	cmp	r1, r3
    4f44:	11a00005 	movne	r0, r5
    4f48:	1b00013d 	blne	5444 <_free_r>
    4f4c:	e3a00000 	mov	r0, #0
    4f50:	e5840030 	str	r0, [r4, #48]	; 0x30
    4f54:	e8bd40f8 	pop	{r3, r4, r5, r6, r7, lr}
    4f58:	e12fff1e 	bx	lr
    4f5c:	e1a00007 	mov	r0, r7
    4f60:	eafffffb 	b	4f54 <_fflush_r+0x17c>
    4f64:	eb00007c 	bl	515c <__sinit>
    4f68:	eaffffa1 	b	4df4 <_fflush_r+0x1c>
    4f6c:	e3700001 	cmn	r0, #1
    4f70:	0a00001a 	beq	4fe0 <_fflush_r+0x208>
    4f74:	e5840050 	str	r0, [r4, #80]	; 0x50
    4f78:	eaffffea 	b	4f28 <_fflush_r+0x150>
    4f7c:	e1a02007 	mov	r2, r7
    4f80:	e1a00005 	mov	r0, r5
    4f84:	e594101c 	ldr	r1, [r4, #28]
    4f88:	e3a03001 	mov	r3, #1
    4f8c:	e1a0e00f 	mov	lr, pc
    4f90:	e12fff1c 	bx	ip
    4f94:	e3700001 	cmn	r0, #1
    4f98:	e1a02000 	mov	r2, r0
    4f9c:	0a000013 	beq	4ff0 <_fflush_r+0x218>
    4fa0:	e1d410bc 	ldrh	r1, [r4, #12]
    4fa4:	e594c028 	ldr	ip, [r4, #40]	; 0x28
    4fa8:	eaffffc7 	b	4ecc <_fflush_r+0xf4>
    4fac:	e5953000 	ldr	r3, [r5]
    4fb0:	e353001d 	cmp	r3, #29
    4fb4:	8affffaf 	bhi	4e78 <_fflush_r+0xa0>
    4fb8:	e59f205c 	ldr	r2, [pc, #92]	; 501c <_fflush_r+0x244>
    4fbc:	e1b02312 	lsls	r2, r2, r3
    4fc0:	4affffd0 	bmi	4f08 <_fflush_r+0x130>
    4fc4:	eaffffab 	b	4e78 <_fflush_r+0xa0>
    4fc8:	e3a00000 	mov	r0, #0
    4fcc:	eaffffe0 	b	4f54 <_fflush_r+0x17c>
    4fd0:	e594303c 	ldr	r3, [r4, #60]	; 0x3c
    4fd4:	e3530000 	cmp	r3, #0
    4fd8:	caffffb0 	bgt	4ea0 <_fflush_r+0xc8>
    4fdc:	eaffffdc 	b	4f54 <_fflush_r+0x17c>
    4fe0:	e5953000 	ldr	r3, [r5]
    4fe4:	e3530000 	cmp	r3, #0
    4fe8:	05840050 	streq	r0, [r4, #80]	; 0x50
    4fec:	eaffffcd 	b	4f28 <_fflush_r+0x150>
    4ff0:	e5953000 	ldr	r3, [r5]
    4ff4:	e3530000 	cmp	r3, #0
    4ff8:	0affffe8 	beq	4fa0 <_fflush_r+0x1c8>
    4ffc:	e353001d 	cmp	r3, #29
    5000:	13530016 	cmpne	r3, #22
    5004:	11d430bc 	ldrhne	r3, [r4, #12]
    5008:	13833040 	orrne	r3, r3, #64	; 0x40
    500c:	05856000 	streq	r6, [r5]
    5010:	01a00007 	moveq	r0, r7
    5014:	11c430bc 	strhne	r3, [r4, #12]
    5018:	eaffffcd 	b	4f54 <_fflush_r+0x17c>
    501c:	80000204 	.word	0x80000204

00005020 <fflush>:
    5020:	e2501000 	subs	r1, r0, #0
    5024:	e92d4008 	push	{r3, lr}
    5028:	0a000003 	beq	503c <fflush+0x1c>
    502c:	e59f3020 	ldr	r3, [pc, #32]	; 5054 <fflush+0x34>
    5030:	e5930000 	ldr	r0, [r3]
    5034:	e8bd4008 	pop	{r3, lr}
    5038:	eaffff66 	b	4dd8 <_fflush_r>
    503c:	e59f3014 	ldr	r3, [pc, #20]	; 5058 <fflush+0x38>
    5040:	e59f1014 	ldr	r1, [pc, #20]	; 505c <fflush+0x3c>
    5044:	e5930000 	ldr	r0, [r3]
    5048:	eb0001b7 	bl	572c <_fwalk_reent>
    504c:	e8bd4008 	pop	{r3, lr}
    5050:	e12fff1e 	bx	lr
    5054:	40000000 	.word	0x40000000
    5058:	0000aaec 	.word	0x0000aaec
    505c:	00004dd8 	.word	0x00004dd8

00005060 <__fp_lock>:
    5060:	e3a00000 	mov	r0, #0
    5064:	e12fff1e 	bx	lr

00005068 <__fp_unlock>:
    5068:	e3a00000 	mov	r0, #0
    506c:	e12fff1e 	bx	lr

00005070 <_cleanup_r>:
    5070:	e92d4008 	push	{r3, lr}
    5074:	e59f1008 	ldr	r1, [pc, #8]	; 5084 <_cleanup_r+0x14>
    5078:	eb00018a 	bl	56a8 <_fwalk>
    507c:	e8bd4008 	pop	{r3, lr}
    5080:	e12fff1e 	bx	lr
    5084:	00008a64 	.word	0x00008a64

00005088 <std.isra.0>:
    5088:	e3a03000 	mov	r3, #0
    508c:	e92d4010 	push	{r4, lr}
    5090:	e1a04000 	mov	r4, r0
    5094:	e1c010bc 	strh	r1, [r0, #12]
    5098:	e1c020be 	strh	r2, [r0, #14]
    509c:	e5803000 	str	r3, [r0]
    50a0:	e5803004 	str	r3, [r0, #4]
    50a4:	e5803008 	str	r3, [r0, #8]
    50a8:	e5803064 	str	r3, [r0, #100]	; 0x64
    50ac:	e5803010 	str	r3, [r0, #16]
    50b0:	e5803014 	str	r3, [r0, #20]
    50b4:	e5803018 	str	r3, [r0, #24]
    50b8:	e1a01003 	mov	r1, r3
    50bc:	e280005c 	add	r0, r0, #92	; 0x5c
    50c0:	e3a02008 	mov	r2, #8
    50c4:	eb0004b6 	bl	63a4 <memset>
    50c8:	e59f3024 	ldr	r3, [pc, #36]	; 50f4 <std.isra.0+0x6c>
    50cc:	e5843020 	str	r3, [r4, #32]
    50d0:	e59f3020 	ldr	r3, [pc, #32]	; 50f8 <std.isra.0+0x70>
    50d4:	e5843024 	str	r3, [r4, #36]	; 0x24
    50d8:	e59f301c 	ldr	r3, [pc, #28]	; 50fc <std.isra.0+0x74>
    50dc:	e5843028 	str	r3, [r4, #40]	; 0x28
    50e0:	e59f3018 	ldr	r3, [pc, #24]	; 5100 <std.isra.0+0x78>
    50e4:	e584401c 	str	r4, [r4, #28]
    50e8:	e584302c 	str	r3, [r4, #44]	; 0x2c
    50ec:	e8bd4010 	pop	{r4, lr}
    50f0:	e12fff1e 	bx	lr
    50f4:	00007290 	.word	0x00007290
    50f8:	000072cc 	.word	0x000072cc
    50fc:	00007324 	.word	0x00007324
    5100:	00007358 	.word	0x00007358

00005104 <__sfmoreglue>:
    5104:	e92d4070 	push	{r4, r5, r6, lr}
    5108:	e0816081 	add	r6, r1, r1, lsl #1
    510c:	e0816106 	add	r6, r1, r6, lsl #2
    5110:	e1a06186 	lsl	r6, r6, #3
    5114:	e1a05001 	mov	r5, r1
    5118:	e286100c 	add	r1, r6, #12
    511c:	eb000230 	bl	59e4 <_malloc_r>
    5120:	e2504000 	subs	r4, r0, #0
    5124:	0a000005 	beq	5140 <__sfmoreglue+0x3c>
    5128:	e284000c 	add	r0, r4, #12
    512c:	e3a01000 	mov	r1, #0
    5130:	e8840022 	stm	r4, {r1, r5}
    5134:	e5840008 	str	r0, [r4, #8]
    5138:	e1a02006 	mov	r2, r6
    513c:	eb000498 	bl	63a4 <memset>
    5140:	e1a00004 	mov	r0, r4
    5144:	e8bd4070 	pop	{r4, r5, r6, lr}
    5148:	e12fff1e 	bx	lr

0000514c <_cleanup>:
    514c:	e59f3004 	ldr	r3, [pc, #4]	; 5158 <_cleanup+0xc>
    5150:	e5930000 	ldr	r0, [r3]
    5154:	eaffffc5 	b	5070 <_cleanup_r>
    5158:	0000aaec 	.word	0x0000aaec

0000515c <__sinit>:
    515c:	e92d4038 	push	{r3, r4, r5, lr}
    5160:	e5903038 	ldr	r3, [r0, #56]	; 0x38
    5164:	e3530000 	cmp	r3, #0
    5168:	e1a04000 	mov	r4, r0
    516c:	0a000001 	beq	5178 <__sinit+0x1c>
    5170:	e8bd4038 	pop	{r3, r4, r5, lr}
    5174:	e12fff1e 	bx	lr
    5178:	e59fe050 	ldr	lr, [pc, #80]	; 51d0 <__sinit+0x74>
    517c:	e280cfbb 	add	ip, r0, #748	; 0x2ec
    5180:	e3a05001 	mov	r5, #1
    5184:	e1a02003 	mov	r2, r3
    5188:	e58432e0 	str	r3, [r4, #736]	; 0x2e0
    518c:	e3a03003 	mov	r3, #3
    5190:	e584e03c 	str	lr, [r4, #60]	; 0x3c
    5194:	e58432e4 	str	r3, [r4, #740]	; 0x2e4
    5198:	e584c2e8 	str	ip, [r4, #744]	; 0x2e8
    519c:	e5900004 	ldr	r0, [r0, #4]
    51a0:	e3a01004 	mov	r1, #4
    51a4:	e5845038 	str	r5, [r4, #56]	; 0x38
    51a8:	ebffffb6 	bl	5088 <std.isra.0>
    51ac:	e5940008 	ldr	r0, [r4, #8]
    51b0:	e1a02005 	mov	r2, r5
    51b4:	e3a01009 	mov	r1, #9
    51b8:	ebffffb2 	bl	5088 <std.isra.0>
    51bc:	e594000c 	ldr	r0, [r4, #12]
    51c0:	e3a01012 	mov	r1, #18
    51c4:	e3a02002 	mov	r2, #2
    51c8:	e8bd4038 	pop	{r3, r4, r5, lr}
    51cc:	eaffffad 	b	5088 <std.isra.0>
    51d0:	00005070 	.word	0x00005070

000051d4 <__sfp>:
    51d4:	e59f3110 	ldr	r3, [pc, #272]	; 52ec <__sfp+0x118>
    51d8:	e92d4070 	push	{r4, r5, r6, lr}
    51dc:	e5935000 	ldr	r5, [r3]
    51e0:	e5953038 	ldr	r3, [r5, #56]	; 0x38
    51e4:	e3530000 	cmp	r3, #0
    51e8:	e1a06000 	mov	r6, r0
    51ec:	0a000031 	beq	52b8 <__sfp+0xe4>
    51f0:	e2855e2e 	add	r5, r5, #736	; 0x2e0
    51f4:	e5953004 	ldr	r3, [r5, #4]
    51f8:	e2533001 	subs	r3, r3, #1
    51fc:	e5950008 	ldr	r0, [r5, #8]
    5200:	4a00000f 	bmi	5244 <__sfp+0x70>
    5204:	e1d020fc 	ldrsh	r2, [r0, #12]
    5208:	e3520000 	cmp	r2, #0
    520c:	0a000011 	beq	5258 <__sfp+0x84>
    5210:	e280c068 	add	ip, r0, #104	; 0x68
    5214:	e1a0200c 	mov	r2, ip
    5218:	e1a04000 	mov	r4, r0
    521c:	ea000003 	b	5230 <__sfp+0x5c>
    5220:	e1511cf4 	ldrsh	r1, [r1, #-196]	; 0xffffff3c
    5224:	e3510000 	cmp	r1, #0
    5228:	e2844068 	add	r4, r4, #104	; 0x68
    522c:	0a00000a 	beq	525c <__sfp+0x88>
    5230:	e2822068 	add	r2, r2, #104	; 0x68
    5234:	e0601002 	rsb	r1, r0, r2
    5238:	e2533001 	subs	r3, r3, #1
    523c:	e081100c 	add	r1, r1, ip
    5240:	2afffff6 	bcs	5220 <__sfp+0x4c>
    5244:	e5950000 	ldr	r0, [r5]
    5248:	e3500000 	cmp	r0, #0
    524c:	0a00001c 	beq	52c4 <__sfp+0xf0>
    5250:	e1a05000 	mov	r5, r0
    5254:	eaffffe6 	b	51f4 <__sfp+0x20>
    5258:	e1a04000 	mov	r4, r0
    525c:	e3e03000 	mvn	r3, #0
    5260:	e3a05000 	mov	r5, #0
    5264:	e1c430be 	strh	r3, [r4, #14]
    5268:	e3a03001 	mov	r3, #1
    526c:	e1c430bc 	strh	r3, [r4, #12]
    5270:	e5845064 	str	r5, [r4, #100]	; 0x64
    5274:	e5845000 	str	r5, [r4]
    5278:	e5845008 	str	r5, [r4, #8]
    527c:	e5845004 	str	r5, [r4, #4]
    5280:	e5845010 	str	r5, [r4, #16]
    5284:	e5845014 	str	r5, [r4, #20]
    5288:	e5845018 	str	r5, [r4, #24]
    528c:	e284005c 	add	r0, r4, #92	; 0x5c
    5290:	e1a01005 	mov	r1, r5
    5294:	e3a02008 	mov	r2, #8
    5298:	eb000441 	bl	63a4 <memset>
    529c:	e5845030 	str	r5, [r4, #48]	; 0x30
    52a0:	e5845034 	str	r5, [r4, #52]	; 0x34
    52a4:	e5845044 	str	r5, [r4, #68]	; 0x44
    52a8:	e5845048 	str	r5, [r4, #72]	; 0x48
    52ac:	e1a00004 	mov	r0, r4
    52b0:	e8bd4070 	pop	{r4, r5, r6, lr}
    52b4:	e12fff1e 	bx	lr
    52b8:	e1a00005 	mov	r0, r5
    52bc:	ebffffa6 	bl	515c <__sinit>
    52c0:	eaffffca 	b	51f0 <__sfp+0x1c>
    52c4:	e1a00006 	mov	r0, r6
    52c8:	e3a01004 	mov	r1, #4
    52cc:	ebffff8c 	bl	5104 <__sfmoreglue>
    52d0:	e3500000 	cmp	r0, #0
    52d4:	e5850000 	str	r0, [r5]
    52d8:	1affffdc 	bne	5250 <__sfp+0x7c>
    52dc:	e3a0300c 	mov	r3, #12
    52e0:	e5863000 	str	r3, [r6]
    52e4:	e1a04000 	mov	r4, r0
    52e8:	eaffffef 	b	52ac <__sfp+0xd8>
    52ec:	0000aaec 	.word	0x0000aaec

000052f0 <__sfp_lock_acquire>:
    52f0:	e12fff1e 	bx	lr

000052f4 <__sfp_lock_release>:
    52f4:	e12fff1e 	bx	lr

000052f8 <__sinit_lock_acquire>:
    52f8:	e12fff1e 	bx	lr

000052fc <__sinit_lock_release>:
    52fc:	e12fff1e 	bx	lr

00005300 <__fp_lock_all>:
    5300:	e92d4008 	push	{r3, lr}
    5304:	e59f3010 	ldr	r3, [pc, #16]	; 531c <__fp_lock_all+0x1c>
    5308:	e59f1010 	ldr	r1, [pc, #16]	; 5320 <__fp_lock_all+0x20>
    530c:	e5930000 	ldr	r0, [r3]
    5310:	eb0000e4 	bl	56a8 <_fwalk>
    5314:	e8bd4008 	pop	{r3, lr}
    5318:	e12fff1e 	bx	lr
    531c:	40000000 	.word	0x40000000
    5320:	00005060 	.word	0x00005060

00005324 <__fp_unlock_all>:
    5324:	e92d4008 	push	{r3, lr}
    5328:	e59f3010 	ldr	r3, [pc, #16]	; 5340 <__fp_unlock_all+0x1c>
    532c:	e59f1010 	ldr	r1, [pc, #16]	; 5344 <__fp_unlock_all+0x20>
    5330:	e5930000 	ldr	r0, [r3]
    5334:	eb0000db 	bl	56a8 <_fwalk>
    5338:	e8bd4008 	pop	{r3, lr}
    533c:	e12fff1e 	bx	lr
    5340:	40000000 	.word	0x40000000
    5344:	00005068 	.word	0x00005068

00005348 <_malloc_trim_r>:
    5348:	e92d40f8 	push	{r3, r4, r5, r6, r7, lr}
    534c:	e59f50e4 	ldr	r5, [pc, #228]	; 5438 <_malloc_trim_r+0xf0>
    5350:	e1a07001 	mov	r7, r1
    5354:	e1a04000 	mov	r4, r0
    5358:	eb000454 	bl	64b0 <__malloc_lock>
    535c:	e5953008 	ldr	r3, [r5, #8]
    5360:	e5936004 	ldr	r6, [r3, #4]
    5364:	e3c66003 	bic	r6, r6, #3
    5368:	e2863efe 	add	r3, r6, #4064	; 0xfe0
    536c:	e283300f 	add	r3, r3, #15
    5370:	e0677003 	rsb	r7, r7, r3
    5374:	e1a07627 	lsr	r7, r7, #12
    5378:	e2477001 	sub	r7, r7, #1
    537c:	e1a07607 	lsl	r7, r7, #12
    5380:	e3570a01 	cmp	r7, #4096	; 0x1000
    5384:	e1a00004 	mov	r0, r4
    5388:	ba000006 	blt	53a8 <_malloc_trim_r+0x60>
    538c:	e3a01000 	mov	r1, #0
    5390:	eb0007ae 	bl	7250 <_sbrk_r>
    5394:	e5953008 	ldr	r3, [r5, #8]
    5398:	e0833006 	add	r3, r3, r6
    539c:	e1500003 	cmp	r0, r3
    53a0:	e1a00004 	mov	r0, r4
    53a4:	0a000003 	beq	53b8 <_malloc_trim_r+0x70>
    53a8:	eb000441 	bl	64b4 <__malloc_unlock>
    53ac:	e3a00000 	mov	r0, #0
    53b0:	e8bd40f8 	pop	{r3, r4, r5, r6, r7, lr}
    53b4:	e12fff1e 	bx	lr
    53b8:	e2671000 	rsb	r1, r7, #0
    53bc:	eb0007a3 	bl	7250 <_sbrk_r>
    53c0:	e3700001 	cmn	r0, #1
    53c4:	0a00000b 	beq	53f8 <_malloc_trim_r+0xb0>
    53c8:	e59f306c 	ldr	r3, [pc, #108]	; 543c <_malloc_trim_r+0xf4>
    53cc:	e5931000 	ldr	r1, [r3]
    53d0:	e5952008 	ldr	r2, [r5, #8]
    53d4:	e0676006 	rsb	r6, r7, r6
    53d8:	e3866001 	orr	r6, r6, #1
    53dc:	e0677001 	rsb	r7, r7, r1
    53e0:	e1a00004 	mov	r0, r4
    53e4:	e5826004 	str	r6, [r2, #4]
    53e8:	e5837000 	str	r7, [r3]
    53ec:	eb000430 	bl	64b4 <__malloc_unlock>
    53f0:	e3a00001 	mov	r0, #1
    53f4:	eaffffed 	b	53b0 <_malloc_trim_r+0x68>
    53f8:	e1a00004 	mov	r0, r4
    53fc:	e3a01000 	mov	r1, #0
    5400:	eb000792 	bl	7250 <_sbrk_r>
    5404:	e5953008 	ldr	r3, [r5, #8]
    5408:	e0632000 	rsb	r2, r3, r0
    540c:	e352000f 	cmp	r2, #15
    5410:	da000006 	ble	5430 <_malloc_trim_r+0xe8>
    5414:	e59f1024 	ldr	r1, [pc, #36]	; 5440 <_malloc_trim_r+0xf8>
    5418:	e5911000 	ldr	r1, [r1]
    541c:	e0610000 	rsb	r0, r1, r0
    5420:	e59f1014 	ldr	r1, [pc, #20]	; 543c <_malloc_trim_r+0xf4>
    5424:	e3822001 	orr	r2, r2, #1
    5428:	e5810000 	str	r0, [r1]
    542c:	e5832004 	str	r2, [r3, #4]
    5430:	e1a00004 	mov	r0, r4
    5434:	eaffffdb 	b	53a8 <_malloc_trim_r+0x60>
    5438:	400004ac 	.word	0x400004ac
    543c:	400008d4 	.word	0x400008d4
    5440:	400008b4 	.word	0x400008b4

00005444 <_free_r>:
    5444:	e92d40f8 	push	{r3, r4, r5, r6, r7, lr}
    5448:	e2515000 	subs	r5, r1, #0
    544c:	e1a04000 	mov	r4, r0
    5450:	0a00005c 	beq	55c8 <_free_r+0x184>
    5454:	eb000415 	bl	64b0 <__malloc_lock>
    5458:	e5150004 	ldr	r0, [r5, #-4]
    545c:	e59fc230 	ldr	ip, [pc, #560]	; 5694 <_free_r+0x250>
    5460:	e2451008 	sub	r1, r5, #8
    5464:	e3c03001 	bic	r3, r0, #1
    5468:	e0812003 	add	r2, r1, r3
    546c:	e59c6008 	ldr	r6, [ip, #8]
    5470:	e592e004 	ldr	lr, [r2, #4]
    5474:	e1560002 	cmp	r6, r2
    5478:	e3cee003 	bic	lr, lr, #3
    547c:	0a000060 	beq	5604 <_free_r+0x1c0>
    5480:	e2100001 	ands	r0, r0, #1
    5484:	e582e004 	str	lr, [r2, #4]
    5488:	13a00000 	movne	r0, #0
    548c:	1a000009 	bne	54b8 <_free_r+0x74>
    5490:	e5156008 	ldr	r6, [r5, #-8]
    5494:	e0661001 	rsb	r1, r6, r1
    5498:	e5915008 	ldr	r5, [r1, #8]
    549c:	e28c7008 	add	r7, ip, #8
    54a0:	e1550007 	cmp	r5, r7
    54a4:	e0833006 	add	r3, r3, r6
    54a8:	1591600c 	ldrne	r6, [r1, #12]
    54ac:	1585600c 	strne	r6, [r5, #12]
    54b0:	15865008 	strne	r5, [r6, #8]
    54b4:	03a00001 	moveq	r0, #1
    54b8:	e082500e 	add	r5, r2, lr
    54bc:	e5955004 	ldr	r5, [r5, #4]
    54c0:	e3150001 	tst	r5, #1
    54c4:	1a000009 	bne	54f0 <_free_r+0xac>
    54c8:	e3500000 	cmp	r0, #0
    54cc:	e083300e 	add	r3, r3, lr
    54d0:	e592e008 	ldr	lr, [r2, #8]
    54d4:	1a000002 	bne	54e4 <_free_r+0xa0>
    54d8:	e59f51b8 	ldr	r5, [pc, #440]	; 5698 <_free_r+0x254>
    54dc:	e15e0005 	cmp	lr, r5
    54e0:	0a00005d 	beq	565c <_free_r+0x218>
    54e4:	e592200c 	ldr	r2, [r2, #12]
    54e8:	e58e200c 	str	r2, [lr, #12]
    54ec:	e582e008 	str	lr, [r2, #8]
    54f0:	e3832001 	orr	r2, r3, #1
    54f4:	e3500000 	cmp	r0, #0
    54f8:	e5812004 	str	r2, [r1, #4]
    54fc:	e7813003 	str	r3, [r1, r3]
    5500:	1a00002e 	bne	55c0 <_free_r+0x17c>
    5504:	e3530c02 	cmp	r3, #512	; 0x200
    5508:	3a000030 	bcc	55d0 <_free_r+0x18c>
    550c:	e1a024a3 	lsr	r2, r3, #9
    5510:	e3520004 	cmp	r2, #4
    5514:	91a0e323 	lsrls	lr, r3, #6
    5518:	928ee038 	addls	lr, lr, #56	; 0x38
    551c:	91a0018e 	lslls	r0, lr, #3
    5520:	9a000014 	bls	5578 <_free_r+0x134>
    5524:	e3520014 	cmp	r2, #20
    5528:	9282e05b 	addls	lr, r2, #91	; 0x5b
    552c:	91a0018e 	lslls	r0, lr, #3
    5530:	9a000010 	bls	5578 <_free_r+0x134>
    5534:	e3520054 	cmp	r2, #84	; 0x54
    5538:	91a0e623 	lsrls	lr, r3, #12
    553c:	928ee06e 	addls	lr, lr, #110	; 0x6e
    5540:	91a0018e 	lslls	r0, lr, #3
    5544:	9a00000b 	bls	5578 <_free_r+0x134>
    5548:	e3520f55 	cmp	r2, #340	; 0x154
    554c:	91a0e7a3 	lsrls	lr, r3, #15
    5550:	928ee077 	addls	lr, lr, #119	; 0x77
    5554:	91a0018e 	lslls	r0, lr, #3
    5558:	9a000006 	bls	5578 <_free_r+0x134>
    555c:	e59f0138 	ldr	r0, [pc, #312]	; 569c <_free_r+0x258>
    5560:	e1520000 	cmp	r2, r0
    5564:	91a0e923 	lsrls	lr, r3, #18
    5568:	928ee07c 	addls	lr, lr, #124	; 0x7c
    556c:	91a0018e 	lslls	r0, lr, #3
    5570:	83a00e3f 	movhi	r0, #1008	; 0x3f0
    5574:	83a0e07e 	movhi	lr, #126	; 0x7e
    5578:	e08cc000 	add	ip, ip, r0
    557c:	e59c2008 	ldr	r2, [ip, #8]
    5580:	e152000c 	cmp	r2, ip
    5584:	e59f0108 	ldr	r0, [pc, #264]	; 5694 <_free_r+0x250>
    5588:	1a000003 	bne	559c <_free_r+0x158>
    558c:	ea000039 	b	5678 <_free_r+0x234>
    5590:	e5922008 	ldr	r2, [r2, #8]
    5594:	e15c0002 	cmp	ip, r2
    5598:	0a000003 	beq	55ac <_free_r+0x168>
    559c:	e5920004 	ldr	r0, [r2, #4]
    55a0:	e3c00003 	bic	r0, r0, #3
    55a4:	e1530000 	cmp	r3, r0
    55a8:	3afffff8 	bcc	5590 <_free_r+0x14c>
    55ac:	e592300c 	ldr	r3, [r2, #12]
    55b0:	e581300c 	str	r3, [r1, #12]
    55b4:	e5812008 	str	r2, [r1, #8]
    55b8:	e582100c 	str	r1, [r2, #12]
    55bc:	e5831008 	str	r1, [r3, #8]
    55c0:	e1a00004 	mov	r0, r4
    55c4:	eb0003ba 	bl	64b4 <__malloc_unlock>
    55c8:	e8bd40f8 	pop	{r3, r4, r5, r6, r7, lr}
    55cc:	e12fff1e 	bx	lr
    55d0:	e59c2004 	ldr	r2, [ip, #4]
    55d4:	e1a031a3 	lsr	r3, r3, #3
    55d8:	e1a00143 	asr	r0, r3, #2
    55dc:	e3a0e001 	mov	lr, #1
    55e0:	e182001e 	orr	r0, r2, lr, lsl r0
    55e4:	e08c3183 	add	r3, ip, r3, lsl #3
    55e8:	e5932008 	ldr	r2, [r3, #8]
    55ec:	e581300c 	str	r3, [r1, #12]
    55f0:	e5812008 	str	r2, [r1, #8]
    55f4:	e58c0004 	str	r0, [ip, #4]
    55f8:	e5831008 	str	r1, [r3, #8]
    55fc:	e582100c 	str	r1, [r2, #12]
    5600:	eaffffee 	b	55c0 <_free_r+0x17c>
    5604:	e3100001 	tst	r0, #1
    5608:	e08e3003 	add	r3, lr, r3
    560c:	1a000006 	bne	562c <_free_r+0x1e8>
    5610:	e5152008 	ldr	r2, [r5, #-8]
    5614:	e0621001 	rsb	r1, r2, r1
    5618:	e591000c 	ldr	r0, [r1, #12]
    561c:	e591e008 	ldr	lr, [r1, #8]
    5620:	e58e000c 	str	r0, [lr, #12]
    5624:	e580e008 	str	lr, [r0, #8]
    5628:	e0833002 	add	r3, r3, r2
    562c:	e59f206c 	ldr	r2, [pc, #108]	; 56a0 <_free_r+0x25c>
    5630:	e5920000 	ldr	r0, [r2]
    5634:	e3832001 	orr	r2, r3, #1
    5638:	e1530000 	cmp	r3, r0
    563c:	e5812004 	str	r2, [r1, #4]
    5640:	e58c1008 	str	r1, [ip, #8]
    5644:	3affffdd 	bcc	55c0 <_free_r+0x17c>
    5648:	e59f3054 	ldr	r3, [pc, #84]	; 56a4 <_free_r+0x260>
    564c:	e1a00004 	mov	r0, r4
    5650:	e5931000 	ldr	r1, [r3]
    5654:	ebffff3b 	bl	5348 <_malloc_trim_r>
    5658:	eaffffd8 	b	55c0 <_free_r+0x17c>
    565c:	e3832001 	orr	r2, r3, #1
    5660:	e58c1014 	str	r1, [ip, #20]
    5664:	e58c1010 	str	r1, [ip, #16]
    5668:	e581e00c 	str	lr, [r1, #12]
    566c:	e9814004 	stmib	r1, {r2, lr}
    5670:	e7813003 	str	r3, [r1, r3]
    5674:	eaffffd1 	b	55c0 <_free_r+0x17c>
    5678:	e5903004 	ldr	r3, [r0, #4]
    567c:	e1a0e14e 	asr	lr, lr, #2
    5680:	e3a0c001 	mov	ip, #1
    5684:	e183ce1c 	orr	ip, r3, ip, lsl lr
    5688:	e1a03002 	mov	r3, r2
    568c:	e580c004 	str	ip, [r0, #4]
    5690:	eaffffc6 	b	55b0 <_free_r+0x16c>
    5694:	400004ac 	.word	0x400004ac
    5698:	400004b4 	.word	0x400004b4
    569c:	00000554 	.word	0x00000554
    56a0:	400008b8 	.word	0x400008b8
    56a4:	400008d0 	.word	0x400008d0

000056a8 <_fwalk>:
    56a8:	e92d41f0 	push	{r4, r5, r6, r7, r8, lr}
    56ac:	e1a06000 	mov	r6, r0
    56b0:	e1a08001 	mov	r8, r1
    56b4:	ebffff0d 	bl	52f0 <__sfp_lock_acquire>
    56b8:	e2966e2e 	adds	r6, r6, #736	; 0x2e0
    56bc:	01a07006 	moveq	r7, r6
    56c0:	0a000015 	beq	571c <_fwalk+0x74>
    56c4:	e3a07000 	mov	r7, #0
    56c8:	e5965004 	ldr	r5, [r6, #4]
    56cc:	e2555001 	subs	r5, r5, #1
    56d0:	e5964008 	ldr	r4, [r6, #8]
    56d4:	4a00000d 	bmi	5710 <_fwalk+0x68>
    56d8:	e1d430fc 	ldrsh	r3, [r4, #12]
    56dc:	e3530000 	cmp	r3, #0
    56e0:	e2455001 	sub	r5, r5, #1
    56e4:	0a000006 	beq	5704 <_fwalk+0x5c>
    56e8:	e1d430fe 	ldrsh	r3, [r4, #14]
    56ec:	e3730001 	cmn	r3, #1
    56f0:	e1a00004 	mov	r0, r4
    56f4:	0a000002 	beq	5704 <_fwalk+0x5c>
    56f8:	e1a0e00f 	mov	lr, pc
    56fc:	e12fff18 	bx	r8
    5700:	e1877000 	orr	r7, r7, r0
    5704:	e3750001 	cmn	r5, #1
    5708:	e2844068 	add	r4, r4, #104	; 0x68
    570c:	1afffff1 	bne	56d8 <_fwalk+0x30>
    5710:	e5966000 	ldr	r6, [r6]
    5714:	e3560000 	cmp	r6, #0
    5718:	1affffea 	bne	56c8 <_fwalk+0x20>
    571c:	ebfffef4 	bl	52f4 <__sfp_lock_release>
    5720:	e1a00007 	mov	r0, r7
    5724:	e8bd41f0 	pop	{r4, r5, r6, r7, r8, lr}
    5728:	e12fff1e 	bx	lr

0000572c <_fwalk_reent>:
    572c:	e92d45f8 	push	{r3, r4, r5, r6, r7, r8, sl, lr}
    5730:	e1a07000 	mov	r7, r0
    5734:	e1a0a001 	mov	sl, r1
    5738:	ebfffeec 	bl	52f0 <__sfp_lock_acquire>
    573c:	e2976e2e 	adds	r6, r7, #736	; 0x2e0
    5740:	01a08006 	moveq	r8, r6
    5744:	0a000016 	beq	57a4 <_fwalk_reent+0x78>
    5748:	e3a08000 	mov	r8, #0
    574c:	e5965004 	ldr	r5, [r6, #4]
    5750:	e2555001 	subs	r5, r5, #1
    5754:	e5964008 	ldr	r4, [r6, #8]
    5758:	4a00000e 	bmi	5798 <_fwalk_reent+0x6c>
    575c:	e1d430fc 	ldrsh	r3, [r4, #12]
    5760:	e3530000 	cmp	r3, #0
    5764:	e2455001 	sub	r5, r5, #1
    5768:	0a000007 	beq	578c <_fwalk_reent+0x60>
    576c:	e1d430fe 	ldrsh	r3, [r4, #14]
    5770:	e3730001 	cmn	r3, #1
    5774:	e1a01004 	mov	r1, r4
    5778:	e1a00007 	mov	r0, r7
    577c:	0a000002 	beq	578c <_fwalk_reent+0x60>
    5780:	e1a0e00f 	mov	lr, pc
    5784:	e12fff1a 	bx	sl
    5788:	e1888000 	orr	r8, r8, r0
    578c:	e3750001 	cmn	r5, #1
    5790:	e2844068 	add	r4, r4, #104	; 0x68
    5794:	1afffff0 	bne	575c <_fwalk_reent+0x30>
    5798:	e5966000 	ldr	r6, [r6]
    579c:	e3560000 	cmp	r6, #0
    57a0:	1affffe9 	bne	574c <_fwalk_reent+0x20>
    57a4:	ebfffed2 	bl	52f4 <__sfp_lock_release>
    57a8:	e1a00008 	mov	r0, r8
    57ac:	e8bd45f8 	pop	{r3, r4, r5, r6, r7, r8, sl, lr}
    57b0:	e12fff1e 	bx	lr

000057b4 <_setlocale_r>:
    57b4:	e92d4010 	push	{r4, lr}
    57b8:	e2524000 	subs	r4, r2, #0
    57bc:	0a000004 	beq	57d4 <_setlocale_r+0x20>
    57c0:	e1a00004 	mov	r0, r4
    57c4:	e59f1048 	ldr	r1, [pc, #72]	; 5814 <_setlocale_r+0x60>
    57c8:	eb0006e7 	bl	736c <strcmp>
    57cc:	e3500000 	cmp	r0, #0
    57d0:	1a000002 	bne	57e0 <_setlocale_r+0x2c>
    57d4:	e59f003c 	ldr	r0, [pc, #60]	; 5818 <_setlocale_r+0x64>
    57d8:	e8bd4010 	pop	{r4, lr}
    57dc:	e12fff1e 	bx	lr
    57e0:	e1a00004 	mov	r0, r4
    57e4:	e59f102c 	ldr	r1, [pc, #44]	; 5818 <_setlocale_r+0x64>
    57e8:	eb0006df 	bl	736c <strcmp>
    57ec:	e3500000 	cmp	r0, #0
    57f0:	0afffff7 	beq	57d4 <_setlocale_r+0x20>
    57f4:	e1a00004 	mov	r0, r4
    57f8:	e59f101c 	ldr	r1, [pc, #28]	; 581c <_setlocale_r+0x68>
    57fc:	eb0006da 	bl	736c <strcmp>
    5800:	e59f3010 	ldr	r3, [pc, #16]	; 5818 <_setlocale_r+0x64>
    5804:	e3500000 	cmp	r0, #0
    5808:	01a00003 	moveq	r0, r3
    580c:	13a00000 	movne	r0, #0
    5810:	eafffff0 	b	57d8 <_setlocale_r+0x24>
    5814:	0000ac90 	.word	0x0000ac90
    5818:	0000ac8c 	.word	0x0000ac8c
    581c:	0000ac58 	.word	0x0000ac58

00005820 <__locale_charset>:
    5820:	e59f0000 	ldr	r0, [pc]	; 5828 <__locale_charset+0x8>
    5824:	e12fff1e 	bx	lr
    5828:	40000430 	.word	0x40000430

0000582c <__locale_mb_cur_max>:
    582c:	e59f3004 	ldr	r3, [pc, #4]	; 5838 <__locale_mb_cur_max+0xc>
    5830:	e5930020 	ldr	r0, [r3, #32]
    5834:	e12fff1e 	bx	lr
    5838:	40000430 	.word	0x40000430

0000583c <__locale_msgcharset>:
    583c:	e59f0000 	ldr	r0, [pc]	; 5844 <__locale_msgcharset+0x8>
    5840:	e12fff1e 	bx	lr
    5844:	40000454 	.word	0x40000454

00005848 <__locale_cjk_lang>:
    5848:	e3a00000 	mov	r0, #0
    584c:	e12fff1e 	bx	lr

00005850 <_localeconv_r>:
    5850:	e59f0000 	ldr	r0, [pc]	; 5858 <_localeconv_r+0x8>
    5854:	e12fff1e 	bx	lr
    5858:	40000474 	.word	0x40000474

0000585c <setlocale>:
    585c:	e1a02001 	mov	r2, r1
    5860:	e59f100c 	ldr	r1, [pc, #12]	; 5874 <setlocale+0x18>
    5864:	e1a03000 	mov	r3, r0
    5868:	e5910000 	ldr	r0, [r1]
    586c:	e1a01003 	mov	r1, r3
    5870:	eaffffcf 	b	57b4 <_setlocale_r>
    5874:	40000000 	.word	0x40000000

00005878 <localeconv>:
    5878:	e59f0000 	ldr	r0, [pc]	; 5880 <localeconv+0x8>
    587c:	e12fff1e 	bx	lr
    5880:	40000474 	.word	0x40000474

00005884 <__smakebuf_r>:
    5884:	e92d40f0 	push	{r4, r5, r6, r7, lr}
    5888:	e1d130bc 	ldrh	r3, [r1, #12]
    588c:	e3130002 	tst	r3, #2
    5890:	e24dd044 	sub	sp, sp, #68	; 0x44
    5894:	e1a04001 	mov	r4, r1
    5898:	e1a02003 	mov	r2, r3
    589c:	e1a05000 	mov	r5, r0
    58a0:	1a000033 	bne	5974 <__smakebuf_r+0xf0>
    58a4:	e1d110fe 	ldrsh	r1, [r1, #14]
    58a8:	e3510000 	cmp	r1, #0
    58ac:	ba000011 	blt	58f8 <__smakebuf_r+0x74>
    58b0:	e28d2004 	add	r2, sp, #4
    58b4:	eb000cd9 	bl	8c20 <_fstat_r>
    58b8:	e3500000 	cmp	r0, #0
    58bc:	ba00000b 	blt	58f0 <__smakebuf_r+0x6c>
    58c0:	e59d3008 	ldr	r3, [sp, #8]
    58c4:	e2033a0f 	and	r3, r3, #61440	; 0xf000
    58c8:	e2432a02 	sub	r2, r3, #8192	; 0x2000
    58cc:	e2727000 	rsbs	r7, r2, #0
    58d0:	e0a77002 	adc	r7, r7, r2
    58d4:	e3530902 	cmp	r3, #32768	; 0x8000
    58d8:	0a00002b 	beq	598c <__smakebuf_r+0x108>
    58dc:	e1d430bc 	ldrh	r3, [r4, #12]
    58e0:	e3833b02 	orr	r3, r3, #2048	; 0x800
    58e4:	e1c430bc 	strh	r3, [r4, #12]
    58e8:	e3a06b01 	mov	r6, #1024	; 0x400
    58ec:	ea000007 	b	5910 <__smakebuf_r+0x8c>
    58f0:	e1d430bc 	ldrh	r3, [r4, #12]
    58f4:	e1a02003 	mov	r2, r3
    58f8:	e3833b02 	orr	r3, r3, #2048	; 0x800
    58fc:	e3120080 	tst	r2, #128	; 0x80
    5900:	e1c430bc 	strh	r3, [r4, #12]
    5904:	13a06040 	movne	r6, #64	; 0x40
    5908:	03a06b01 	moveq	r6, #1024	; 0x400
    590c:	e3a07000 	mov	r7, #0
    5910:	e1a00005 	mov	r0, r5
    5914:	e1a01006 	mov	r1, r6
    5918:	eb000031 	bl	59e4 <_malloc_r>
    591c:	e3500000 	cmp	r0, #0
    5920:	e1d430bc 	ldrh	r3, [r4, #12]
    5924:	0a000022 	beq	59b4 <__smakebuf_r+0x130>
    5928:	e59f20ac 	ldr	r2, [pc, #172]	; 59dc <__smakebuf_r+0x158>
    592c:	e3833080 	orr	r3, r3, #128	; 0x80
    5930:	e3570000 	cmp	r7, #0
    5934:	e585203c 	str	r2, [r5, #60]	; 0x3c
    5938:	e1c430bc 	strh	r3, [r4, #12]
    593c:	e5840000 	str	r0, [r4]
    5940:	e5840010 	str	r0, [r4, #16]
    5944:	e5846014 	str	r6, [r4, #20]
    5948:	0a000006 	beq	5968 <__smakebuf_r+0xe4>
    594c:	e1a00005 	mov	r0, r5
    5950:	e1d410fe 	ldrsh	r1, [r4, #14]
    5954:	eb000dec 	bl	910c <_isatty_r>
    5958:	e3500000 	cmp	r0, #0
    595c:	11d430bc 	ldrhne	r3, [r4, #12]
    5960:	13833001 	orrne	r3, r3, #1
    5964:	11c430bc 	strhne	r3, [r4, #12]
    5968:	e28dd044 	add	sp, sp, #68	; 0x44
    596c:	e8bd40f0 	pop	{r4, r5, r6, r7, lr}
    5970:	e12fff1e 	bx	lr
    5974:	e2813043 	add	r3, r1, #67	; 0x43
    5978:	e5813000 	str	r3, [r1]
    597c:	e5813010 	str	r3, [r1, #16]
    5980:	e3a03001 	mov	r3, #1
    5984:	e5813014 	str	r3, [r1, #20]
    5988:	eafffff6 	b	5968 <__smakebuf_r+0xe4>
    598c:	e5942028 	ldr	r2, [r4, #40]	; 0x28
    5990:	e59f3048 	ldr	r3, [pc, #72]	; 59e0 <__smakebuf_r+0x15c>
    5994:	e1520003 	cmp	r2, r3
    5998:	1affffcf 	bne	58dc <__smakebuf_r+0x58>
    599c:	e1d430bc 	ldrh	r3, [r4, #12]
    59a0:	e3a06b01 	mov	r6, #1024	; 0x400
    59a4:	e1833006 	orr	r3, r3, r6
    59a8:	e1c430bc 	strh	r3, [r4, #12]
    59ac:	e584604c 	str	r6, [r4, #76]	; 0x4c
    59b0:	eaffffd6 	b	5910 <__smakebuf_r+0x8c>
    59b4:	e3130c02 	tst	r3, #512	; 0x200
    59b8:	1affffea 	bne	5968 <__smakebuf_r+0xe4>
    59bc:	e3833002 	orr	r3, r3, #2
    59c0:	e2842043 	add	r2, r4, #67	; 0x43
    59c4:	e1c430bc 	strh	r3, [r4, #12]
    59c8:	e3a03001 	mov	r3, #1
    59cc:	e5842000 	str	r2, [r4]
    59d0:	e5842010 	str	r2, [r4, #16]
    59d4:	e5843014 	str	r3, [r4, #20]
    59d8:	eaffffe2 	b	5968 <__smakebuf_r+0xe4>
    59dc:	00005070 	.word	0x00005070
    59e0:	00007324 	.word	0x00007324

000059e4 <_malloc_r>:
    59e4:	e92d4ff8 	push	{r3, r4, r5, r6, r7, r8, r9, sl, fp, lr}
    59e8:	e281400b 	add	r4, r1, #11
    59ec:	e3540016 	cmp	r4, #22
    59f0:	83c44007 	bichi	r4, r4, #7
    59f4:	81a03fa4 	lsrhi	r3, r4, #31
    59f8:	93a03000 	movls	r3, #0
    59fc:	93a04010 	movls	r4, #16
    5a00:	e1540001 	cmp	r4, r1
    5a04:	21a01003 	movcs	r1, r3
    5a08:	33831001 	orrcc	r1, r3, #1
    5a0c:	e3510000 	cmp	r1, #0
    5a10:	13a0300c 	movne	r3, #12
    5a14:	e1a05000 	mov	r5, r0
    5a18:	15803000 	strne	r3, [r0]
    5a1c:	13a07000 	movne	r7, #0
    5a20:	1a000015 	bne	5a7c <_malloc_r+0x98>
    5a24:	eb0002a1 	bl	64b0 <__malloc_lock>
    5a28:	e3540f7e 	cmp	r4, #504	; 0x1f8
    5a2c:	2a000015 	bcs	5a88 <_malloc_r+0xa4>
    5a30:	e59f66b4 	ldr	r6, [pc, #1716]	; 60ec <_malloc_r+0x708>
    5a34:	e1a0e1a4 	lsr	lr, r4, #3
    5a38:	e086318e 	add	r3, r6, lr, lsl #3
    5a3c:	e593700c 	ldr	r7, [r3, #12]
    5a40:	e1570003 	cmp	r7, r3
    5a44:	0a000168 	beq	5fec <_malloc_r+0x608>
    5a48:	e5973004 	ldr	r3, [r7, #4]
    5a4c:	e3c33003 	bic	r3, r3, #3
    5a50:	e0873003 	add	r3, r7, r3
    5a54:	e5930004 	ldr	r0, [r3, #4]
    5a58:	e2871008 	add	r1, r7, #8
    5a5c:	e8910006 	ldm	r1, {r1, r2}
    5a60:	e3800001 	orr	r0, r0, #1
    5a64:	e5830004 	str	r0, [r3, #4]
    5a68:	e581200c 	str	r2, [r1, #12]
    5a6c:	e5821008 	str	r1, [r2, #8]
    5a70:	e1a00005 	mov	r0, r5
    5a74:	eb00028e 	bl	64b4 <__malloc_unlock>
    5a78:	e2877008 	add	r7, r7, #8
    5a7c:	e1a00007 	mov	r0, r7
    5a80:	e8bd4ff8 	pop	{r3, r4, r5, r6, r7, r8, r9, sl, fp, lr}
    5a84:	e12fff1e 	bx	lr
    5a88:	e1b0e4a4 	lsrs	lr, r4, #9
    5a8c:	01a0e1a4 	lsreq	lr, r4, #3
    5a90:	01a0118e 	lsleq	r1, lr, #3
    5a94:	1a000061 	bne	5c20 <_malloc_r+0x23c>
    5a98:	e59f664c 	ldr	r6, [pc, #1612]	; 60ec <_malloc_r+0x708>
    5a9c:	e0861001 	add	r1, r6, r1
    5aa0:	e591700c 	ldr	r7, [r1, #12]
    5aa4:	e1510007 	cmp	r1, r7
    5aa8:	1a000005 	bne	5ac4 <_malloc_r+0xe0>
    5aac:	ea00000a 	b	5adc <_malloc_r+0xf8>
    5ab0:	e3530000 	cmp	r3, #0
    5ab4:	aa0000e5 	bge	5e50 <_malloc_r+0x46c>
    5ab8:	e597700c 	ldr	r7, [r7, #12]
    5abc:	e1510007 	cmp	r1, r7
    5ac0:	0a000005 	beq	5adc <_malloc_r+0xf8>
    5ac4:	e5972004 	ldr	r2, [r7, #4]
    5ac8:	e3c22003 	bic	r2, r2, #3
    5acc:	e0643002 	rsb	r3, r4, r2
    5ad0:	e353000f 	cmp	r3, #15
    5ad4:	dafffff5 	ble	5ab0 <_malloc_r+0xcc>
    5ad8:	e24ee001 	sub	lr, lr, #1
    5adc:	e28ee001 	add	lr, lr, #1
    5ae0:	e59f3604 	ldr	r3, [pc, #1540]	; 60ec <_malloc_r+0x708>
    5ae4:	e5967010 	ldr	r7, [r6, #16]
    5ae8:	e2838008 	add	r8, r3, #8
    5aec:	e1570008 	cmp	r7, r8
    5af0:	05931004 	ldreq	r1, [r3, #4]
    5af4:	0a000016 	beq	5b54 <_malloc_r+0x170>
    5af8:	e5972004 	ldr	r2, [r7, #4]
    5afc:	e3c22003 	bic	r2, r2, #3
    5b00:	e0641002 	rsb	r1, r4, r2
    5b04:	e351000f 	cmp	r1, #15
    5b08:	ca000115 	bgt	5f64 <_malloc_r+0x580>
    5b0c:	e3510000 	cmp	r1, #0
    5b10:	e5838014 	str	r8, [r3, #20]
    5b14:	e5838010 	str	r8, [r3, #16]
    5b18:	aa00005b 	bge	5c8c <_malloc_r+0x2a8>
    5b1c:	e3520c02 	cmp	r2, #512	; 0x200
    5b20:	2a0000e0 	bcs	5ea8 <_malloc_r+0x4c4>
    5b24:	e5930004 	ldr	r0, [r3, #4]
    5b28:	e1a021a2 	lsr	r2, r2, #3
    5b2c:	e1a01142 	asr	r1, r2, #2
    5b30:	e3a0c001 	mov	ip, #1
    5b34:	e180111c 	orr	r1, r0, ip, lsl r1
    5b38:	e0832182 	add	r2, r3, r2, lsl #3
    5b3c:	e5920008 	ldr	r0, [r2, #8]
    5b40:	e587200c 	str	r2, [r7, #12]
    5b44:	e5870008 	str	r0, [r7, #8]
    5b48:	e5831004 	str	r1, [r3, #4]
    5b4c:	e5827008 	str	r7, [r2, #8]
    5b50:	e580700c 	str	r7, [r0, #12]
    5b54:	e1a0314e 	asr	r3, lr, #2
    5b58:	e3a00001 	mov	r0, #1
    5b5c:	e1a00310 	lsl	r0, r0, r3
    5b60:	e1500001 	cmp	r0, r1
    5b64:	8a000050 	bhi	5cac <_malloc_r+0x2c8>
    5b68:	e1110000 	tst	r1, r0
    5b6c:	1a000008 	bne	5b94 <_malloc_r+0x1b0>
    5b70:	e1a00080 	lsl	r0, r0, #1
    5b74:	e3cee003 	bic	lr, lr, #3
    5b78:	e1110000 	tst	r1, r0
    5b7c:	e28ee004 	add	lr, lr, #4
    5b80:	1a000003 	bne	5b94 <_malloc_r+0x1b0>
    5b84:	e1a00080 	lsl	r0, r0, #1
    5b88:	e1100001 	tst	r0, r1
    5b8c:	e28ee004 	add	lr, lr, #4
    5b90:	0afffffb 	beq	5b84 <_malloc_r+0x1a0>
    5b94:	e086a18e 	add	sl, r6, lr, lsl #3
    5b98:	e1a0c00a 	mov	ip, sl
    5b9c:	e1a0700e 	mov	r7, lr
    5ba0:	e59c300c 	ldr	r3, [ip, #12]
    5ba4:	e15c0003 	cmp	ip, r3
    5ba8:	1a000005 	bne	5bc4 <_malloc_r+0x1e0>
    5bac:	ea0000f9 	b	5f98 <_malloc_r+0x5b4>
    5bb0:	e3520000 	cmp	r2, #0
    5bb4:	aa000112 	bge	6004 <_malloc_r+0x620>
    5bb8:	e593300c 	ldr	r3, [r3, #12]
    5bbc:	e15c0003 	cmp	ip, r3
    5bc0:	0a0000f4 	beq	5f98 <_malloc_r+0x5b4>
    5bc4:	e5931004 	ldr	r1, [r3, #4]
    5bc8:	e3c11003 	bic	r1, r1, #3
    5bcc:	e0642001 	rsb	r2, r4, r1
    5bd0:	e352000f 	cmp	r2, #15
    5bd4:	dafffff5 	ble	5bb0 <_malloc_r+0x1cc>
    5bd8:	e1a07003 	mov	r7, r3
    5bdc:	e593000c 	ldr	r0, [r3, #12]
    5be0:	e5b7c008 	ldr	ip, [r7, #8]!
    5be4:	e0831004 	add	r1, r3, r4
    5be8:	e382e001 	orr	lr, r2, #1
    5bec:	e3844001 	orr	r4, r4, #1
    5bf0:	e58c000c 	str	r0, [ip, #12]
    5bf4:	e580c008 	str	ip, [r0, #8]
    5bf8:	e5834004 	str	r4, [r3, #4]
    5bfc:	e5861014 	str	r1, [r6, #20]
    5c00:	e5861010 	str	r1, [r6, #16]
    5c04:	e581800c 	str	r8, [r1, #12]
    5c08:	e5818008 	str	r8, [r1, #8]
    5c0c:	e581e004 	str	lr, [r1, #4]
    5c10:	e7812002 	str	r2, [r1, r2]
    5c14:	e1a00005 	mov	r0, r5
    5c18:	eb000225 	bl	64b4 <__malloc_unlock>
    5c1c:	eaffff96 	b	5a7c <_malloc_r+0x98>
    5c20:	e35e0004 	cmp	lr, #4
    5c24:	91a0e324 	lsrls	lr, r4, #6
    5c28:	928ee038 	addls	lr, lr, #56	; 0x38
    5c2c:	91a0118e 	lslls	r1, lr, #3
    5c30:	9affff98 	bls	5a98 <_malloc_r+0xb4>
    5c34:	e35e0014 	cmp	lr, #20
    5c38:	928ee05b 	addls	lr, lr, #91	; 0x5b
    5c3c:	91a0118e 	lslls	r1, lr, #3
    5c40:	9affff94 	bls	5a98 <_malloc_r+0xb4>
    5c44:	e35e0054 	cmp	lr, #84	; 0x54
    5c48:	91a0e624 	lsrls	lr, r4, #12
    5c4c:	928ee06e 	addls	lr, lr, #110	; 0x6e
    5c50:	91a0118e 	lslls	r1, lr, #3
    5c54:	9affff8f 	bls	5a98 <_malloc_r+0xb4>
    5c58:	e35e0f55 	cmp	lr, #340	; 0x154
    5c5c:	91a0e7a4 	lsrls	lr, r4, #15
    5c60:	928ee077 	addls	lr, lr, #119	; 0x77
    5c64:	91a0118e 	lslls	r1, lr, #3
    5c68:	9affff8a 	bls	5a98 <_malloc_r+0xb4>
    5c6c:	e59f347c 	ldr	r3, [pc, #1148]	; 60f0 <_malloc_r+0x70c>
    5c70:	e15e0003 	cmp	lr, r3
    5c74:	91a0e924 	lsrls	lr, r4, #18
    5c78:	928ee07c 	addls	lr, lr, #124	; 0x7c
    5c7c:	91a0118e 	lslls	r1, lr, #3
    5c80:	83a01e3f 	movhi	r1, #1008	; 0x3f0
    5c84:	83a0e07e 	movhi	lr, #126	; 0x7e
    5c88:	eaffff82 	b	5a98 <_malloc_r+0xb4>
    5c8c:	e0872002 	add	r2, r7, r2
    5c90:	e5923004 	ldr	r3, [r2, #4]
    5c94:	e3833001 	orr	r3, r3, #1
    5c98:	e5823004 	str	r3, [r2, #4]
    5c9c:	e1a00005 	mov	r0, r5
    5ca0:	eb000203 	bl	64b4 <__malloc_unlock>
    5ca4:	e2877008 	add	r7, r7, #8
    5ca8:	eaffff73 	b	5a7c <_malloc_r+0x98>
    5cac:	e5967008 	ldr	r7, [r6, #8]
    5cb0:	e5978004 	ldr	r8, [r7, #4]
    5cb4:	e3c88003 	bic	r8, r8, #3
    5cb8:	e1540008 	cmp	r4, r8
    5cbc:	93a03000 	movls	r3, #0
    5cc0:	83a03001 	movhi	r3, #1
    5cc4:	e0642008 	rsb	r2, r4, r8
    5cc8:	e352000f 	cmp	r2, #15
    5ccc:	d3833001 	orrle	r3, r3, #1
    5cd0:	e3530000 	cmp	r3, #0
    5cd4:	0a000069 	beq	5e80 <_malloc_r+0x49c>
    5cd8:	e59f9414 	ldr	r9, [pc, #1044]	; 60f4 <_malloc_r+0x710>
    5cdc:	e59f3408 	ldr	r3, [pc, #1032]	; 60ec <_malloc_r+0x708>
    5ce0:	e599b000 	ldr	fp, [r9]
    5ce4:	e5933408 	ldr	r3, [r3, #1032]	; 0x408
    5ce8:	e084b00b 	add	fp, r4, fp
    5cec:	e3730001 	cmn	r3, #1
    5cf0:	128bba01 	addne	fp, fp, #4096	; 0x1000
    5cf4:	128bb00f 	addne	fp, fp, #15
    5cf8:	13cbbeff 	bicne	fp, fp, #4080	; 0xff0
    5cfc:	028bb010 	addeq	fp, fp, #16
    5d00:	13cbb00f 	bicne	fp, fp, #15
    5d04:	e1a00005 	mov	r0, r5
    5d08:	e1a0100b 	mov	r1, fp
    5d0c:	eb00054f 	bl	7250 <_sbrk_r>
    5d10:	e3700001 	cmn	r0, #1
    5d14:	e1a0a000 	mov	sl, r0
    5d18:	0a0000de 	beq	6098 <_malloc_r+0x6b4>
    5d1c:	e0872008 	add	r2, r7, r8
    5d20:	e1520000 	cmp	r2, r0
    5d24:	8a0000c2 	bhi	6034 <_malloc_r+0x650>
    5d28:	e5993004 	ldr	r3, [r9, #4]
    5d2c:	e152000a 	cmp	r2, sl
    5d30:	e08b3003 	add	r3, fp, r3
    5d34:	e5893004 	str	r3, [r9, #4]
    5d38:	0a0000da 	beq	60a8 <_malloc_r+0x6c4>
    5d3c:	e5961408 	ldr	r1, [r6, #1032]	; 0x408
    5d40:	e3710001 	cmn	r1, #1
    5d44:	1062200a 	rsbne	r2, r2, sl
    5d48:	059f339c 	ldreq	r3, [pc, #924]	; 60ec <_malloc_r+0x708>
    5d4c:	10833002 	addne	r3, r3, r2
    5d50:	0583a408 	streq	sl, [r3, #1032]	; 0x408
    5d54:	15893004 	strne	r3, [r9, #4]
    5d58:	e21a3007 	ands	r3, sl, #7
    5d5c:	12632008 	rsbne	r2, r3, #8
    5d60:	108aa002 	addne	sl, sl, r2
    5d64:	12633a01 	rsbne	r3, r3, #4096	; 0x1000
    5d68:	12832008 	addne	r2, r3, #8
    5d6c:	e08a300b 	add	r3, sl, fp
    5d70:	03a02a01 	moveq	r2, #4096	; 0x1000
    5d74:	e1a03a03 	lsl	r3, r3, #20
    5d78:	e042ba23 	sub	fp, r2, r3, lsr #20
    5d7c:	e1a0100b 	mov	r1, fp
    5d80:	e1a00005 	mov	r0, r5
    5d84:	eb000531 	bl	7250 <_sbrk_r>
    5d88:	e3700001 	cmn	r0, #1
    5d8c:	106a2000 	rsbne	r2, sl, r0
    5d90:	e5993004 	ldr	r3, [r9, #4]
    5d94:	1082200b 	addne	r2, r2, fp
    5d98:	03a0b000 	moveq	fp, #0
    5d9c:	13822001 	orrne	r2, r2, #1
    5da0:	03a02001 	moveq	r2, #1
    5da4:	e08b3003 	add	r3, fp, r3
    5da8:	e1570006 	cmp	r7, r6
    5dac:	e5893004 	str	r3, [r9, #4]
    5db0:	e586a008 	str	sl, [r6, #8]
    5db4:	e58a2004 	str	r2, [sl, #4]
    5db8:	0a00000d 	beq	5df4 <_malloc_r+0x410>
    5dbc:	e358000f 	cmp	r8, #15
    5dc0:	9a0000af 	bls	6084 <_malloc_r+0x6a0>
    5dc4:	e597c004 	ldr	ip, [r7, #4]
    5dc8:	e248200c 	sub	r2, r8, #12
    5dcc:	e3c22007 	bic	r2, r2, #7
    5dd0:	e20cc001 	and	ip, ip, #1
    5dd4:	e0871002 	add	r1, r7, r2
    5dd8:	e3a00005 	mov	r0, #5
    5ddc:	e182c00c 	orr	ip, r2, ip
    5de0:	e352000f 	cmp	r2, #15
    5de4:	e587c004 	str	ip, [r7, #4]
    5de8:	e5810004 	str	r0, [r1, #4]
    5dec:	e5810008 	str	r0, [r1, #8]
    5df0:	8a0000b3 	bhi	60c4 <_malloc_r+0x6e0>
    5df4:	e599202c 	ldr	r2, [r9, #44]	; 0x2c
    5df8:	e1530002 	cmp	r3, r2
    5dfc:	859f22f0 	ldrhi	r2, [pc, #752]	; 60f4 <_malloc_r+0x710>
    5e00:	8582302c 	strhi	r3, [r2, #44]	; 0x2c
    5e04:	e5992030 	ldr	r2, [r9, #48]	; 0x30
    5e08:	e5967008 	ldr	r7, [r6, #8]
    5e0c:	e1530002 	cmp	r3, r2
    5e10:	859f12dc 	ldrhi	r1, [pc, #732]	; 60f4 <_malloc_r+0x710>
    5e14:	e5972004 	ldr	r2, [r7, #4]
    5e18:	85813030 	strhi	r3, [r1, #48]	; 0x30
    5e1c:	e3c22003 	bic	r2, r2, #3
    5e20:	e1540002 	cmp	r4, r2
    5e24:	93a03000 	movls	r3, #0
    5e28:	83a03001 	movhi	r3, #1
    5e2c:	e0642002 	rsb	r2, r4, r2
    5e30:	e352000f 	cmp	r2, #15
    5e34:	d3833001 	orrle	r3, r3, #1
    5e38:	e3530000 	cmp	r3, #0
    5e3c:	0a00000f 	beq	5e80 <_malloc_r+0x49c>
    5e40:	e1a00005 	mov	r0, r5
    5e44:	eb00019a 	bl	64b4 <__malloc_unlock>
    5e48:	e3a07000 	mov	r7, #0
    5e4c:	eaffff0a 	b	5a7c <_malloc_r+0x98>
    5e50:	e0872002 	add	r2, r7, r2
    5e54:	e5920004 	ldr	r0, [r2, #4]
    5e58:	e2871008 	add	r1, r7, #8
    5e5c:	e891000a 	ldm	r1, {r1, r3}
    5e60:	e3800001 	orr	r0, r0, #1
    5e64:	e5820004 	str	r0, [r2, #4]
    5e68:	e581300c 	str	r3, [r1, #12]
    5e6c:	e5831008 	str	r1, [r3, #8]
    5e70:	e1a00005 	mov	r0, r5
    5e74:	eb00018e 	bl	64b4 <__malloc_unlock>
    5e78:	e2877008 	add	r7, r7, #8
    5e7c:	eafffefe 	b	5a7c <_malloc_r+0x98>
    5e80:	e0873004 	add	r3, r7, r4
    5e84:	e3822001 	orr	r2, r2, #1
    5e88:	e3844001 	orr	r4, r4, #1
    5e8c:	e5874004 	str	r4, [r7, #4]
    5e90:	e1a00005 	mov	r0, r5
    5e94:	e5832004 	str	r2, [r3, #4]
    5e98:	e5863008 	str	r3, [r6, #8]
    5e9c:	e2877008 	add	r7, r7, #8
    5ea0:	eb000183 	bl	64b4 <__malloc_unlock>
    5ea4:	eafffef4 	b	5a7c <_malloc_r+0x98>
    5ea8:	e1a034a2 	lsr	r3, r2, #9
    5eac:	e3530004 	cmp	r3, #4
    5eb0:	91a0a322 	lsrls	sl, r2, #6
    5eb4:	928aa038 	addls	sl, sl, #56	; 0x38
    5eb8:	91a0018a 	lslls	r0, sl, #3
    5ebc:	9a000014 	bls	5f14 <_malloc_r+0x530>
    5ec0:	e3530014 	cmp	r3, #20
    5ec4:	9283a05b 	addls	sl, r3, #91	; 0x5b
    5ec8:	91a0018a 	lslls	r0, sl, #3
    5ecc:	9a000010 	bls	5f14 <_malloc_r+0x530>
    5ed0:	e3530054 	cmp	r3, #84	; 0x54
    5ed4:	91a0a622 	lsrls	sl, r2, #12
    5ed8:	928aa06e 	addls	sl, sl, #110	; 0x6e
    5edc:	91a0018a 	lslls	r0, sl, #3
    5ee0:	9a00000b 	bls	5f14 <_malloc_r+0x530>
    5ee4:	e3530f55 	cmp	r3, #340	; 0x154
    5ee8:	91a0a7a2 	lsrls	sl, r2, #15
    5eec:	928aa077 	addls	sl, sl, #119	; 0x77
    5ef0:	91a0018a 	lslls	r0, sl, #3
    5ef4:	9a000006 	bls	5f14 <_malloc_r+0x530>
    5ef8:	e59f11f0 	ldr	r1, [pc, #496]	; 60f0 <_malloc_r+0x70c>
    5efc:	e1530001 	cmp	r3, r1
    5f00:	91a0a922 	lsrls	sl, r2, #18
    5f04:	928aa07c 	addls	sl, sl, #124	; 0x7c
    5f08:	91a0018a 	lslls	r0, sl, #3
    5f0c:	83a00e3f 	movhi	r0, #1008	; 0x3f0
    5f10:	83a0a07e 	movhi	sl, #126	; 0x7e
    5f14:	e0860000 	add	r0, r6, r0
    5f18:	e5903008 	ldr	r3, [r0, #8]
    5f1c:	e1530000 	cmp	r3, r0
    5f20:	e59fc1c4 	ldr	ip, [pc, #452]	; 60ec <_malloc_r+0x708>
    5f24:	1a000003 	bne	5f38 <_malloc_r+0x554>
    5f28:	ea00004e 	b	6068 <_malloc_r+0x684>
    5f2c:	e5933008 	ldr	r3, [r3, #8]
    5f30:	e1500003 	cmp	r0, r3
    5f34:	0a000003 	beq	5f48 <_malloc_r+0x564>
    5f38:	e5931004 	ldr	r1, [r3, #4]
    5f3c:	e3c11003 	bic	r1, r1, #3
    5f40:	e1520001 	cmp	r2, r1
    5f44:	3afffff8 	bcc	5f2c <_malloc_r+0x548>
    5f48:	e593200c 	ldr	r2, [r3, #12]
    5f4c:	e5961004 	ldr	r1, [r6, #4]
    5f50:	e587200c 	str	r2, [r7, #12]
    5f54:	e5873008 	str	r3, [r7, #8]
    5f58:	e583700c 	str	r7, [r3, #12]
    5f5c:	e5827008 	str	r7, [r2, #8]
    5f60:	eafffefb 	b	5b54 <_malloc_r+0x170>
    5f64:	e0872004 	add	r2, r7, r4
    5f68:	e3810001 	orr	r0, r1, #1
    5f6c:	e3844001 	orr	r4, r4, #1
    5f70:	e5874004 	str	r4, [r7, #4]
    5f74:	e5832014 	str	r2, [r3, #20]
    5f78:	e5832010 	str	r2, [r3, #16]
    5f7c:	e582800c 	str	r8, [r2, #12]
    5f80:	e9820101 	stmib	r2, {r0, r8}
    5f84:	e7821001 	str	r1, [r2, r1]
    5f88:	e1a00005 	mov	r0, r5
    5f8c:	eb000148 	bl	64b4 <__malloc_unlock>
    5f90:	e2877008 	add	r7, r7, #8
    5f94:	eafffeb8 	b	5a7c <_malloc_r+0x98>
    5f98:	e2877001 	add	r7, r7, #1
    5f9c:	e3170003 	tst	r7, #3
    5fa0:	e28cc008 	add	ip, ip, #8
    5fa4:	1afffefd 	bne	5ba0 <_malloc_r+0x1bc>
    5fa8:	e31e0003 	tst	lr, #3
    5fac:	e24a3008 	sub	r3, sl, #8
    5fb0:	0a000049 	beq	60dc <_malloc_r+0x6f8>
    5fb4:	e59aa000 	ldr	sl, [sl]
    5fb8:	e15a0003 	cmp	sl, r3
    5fbc:	e24ee001 	sub	lr, lr, #1
    5fc0:	0afffff8 	beq	5fa8 <_malloc_r+0x5c4>
    5fc4:	e5963004 	ldr	r3, [r6, #4]
    5fc8:	e1a00080 	lsl	r0, r0, #1
    5fcc:	e1500003 	cmp	r0, r3
    5fd0:	8affff35 	bhi	5cac <_malloc_r+0x2c8>
    5fd4:	e3500000 	cmp	r0, #0
    5fd8:	0affff33 	beq	5cac <_malloc_r+0x2c8>
    5fdc:	e1130000 	tst	r3, r0
    5fe0:	0a00001a 	beq	6050 <_malloc_r+0x66c>
    5fe4:	e1a0e007 	mov	lr, r7
    5fe8:	eafffee9 	b	5b94 <_malloc_r+0x1b0>
    5fec:	e2873008 	add	r3, r7, #8
    5ff0:	e5977014 	ldr	r7, [r7, #20]
    5ff4:	e1530007 	cmp	r3, r7
    5ff8:	028ee002 	addeq	lr, lr, #2
    5ffc:	0afffeb7 	beq	5ae0 <_malloc_r+0xfc>
    6000:	eafffe90 	b	5a48 <_malloc_r+0x64>
    6004:	e0831001 	add	r1, r3, r1
    6008:	e5910004 	ldr	r0, [r1, #4]
    600c:	e1a07003 	mov	r7, r3
    6010:	e5b72008 	ldr	r2, [r7, #8]!
    6014:	e593300c 	ldr	r3, [r3, #12]
    6018:	e3800001 	orr	r0, r0, #1
    601c:	e5810004 	str	r0, [r1, #4]
    6020:	e582300c 	str	r3, [r2, #12]
    6024:	e5832008 	str	r2, [r3, #8]
    6028:	e1a00005 	mov	r0, r5
    602c:	eb000120 	bl	64b4 <__malloc_unlock>
    6030:	eafffe91 	b	5a7c <_malloc_r+0x98>
    6034:	e1570006 	cmp	r7, r6
    6038:	0affff3a 	beq	5d28 <_malloc_r+0x344>
    603c:	e59f30a8 	ldr	r3, [pc, #168]	; 60ec <_malloc_r+0x708>
    6040:	e5937008 	ldr	r7, [r3, #8]
    6044:	e5972004 	ldr	r2, [r7, #4]
    6048:	e3c22003 	bic	r2, r2, #3
    604c:	eaffff73 	b	5e20 <_malloc_r+0x43c>
    6050:	e1a00080 	lsl	r0, r0, #1
    6054:	e1100003 	tst	r0, r3
    6058:	e2877004 	add	r7, r7, #4
    605c:	0afffffb 	beq	6050 <_malloc_r+0x66c>
    6060:	e1a0e007 	mov	lr, r7
    6064:	eafffeca 	b	5b94 <_malloc_r+0x1b0>
    6068:	e59c2004 	ldr	r2, [ip, #4]
    606c:	e1a0a14a 	asr	sl, sl, #2
    6070:	e3a01001 	mov	r1, #1
    6074:	e1821a11 	orr	r1, r2, r1, lsl sl
    6078:	e1a02003 	mov	r2, r3
    607c:	e58c1004 	str	r1, [ip, #4]
    6080:	eaffffb2 	b	5f50 <_malloc_r+0x56c>
    6084:	e3a03001 	mov	r3, #1
    6088:	e58a3004 	str	r3, [sl, #4]
    608c:	e1a0700a 	mov	r7, sl
    6090:	e3a02000 	mov	r2, #0
    6094:	eaffff61 	b	5e20 <_malloc_r+0x43c>
    6098:	e5967008 	ldr	r7, [r6, #8]
    609c:	e5972004 	ldr	r2, [r7, #4]
    60a0:	e3c22003 	bic	r2, r2, #3
    60a4:	eaffff5d 	b	5e20 <_malloc_r+0x43c>
    60a8:	e1b01a02 	lsls	r1, r2, #20
    60ac:	1affff22 	bne	5d3c <_malloc_r+0x358>
    60b0:	e5962008 	ldr	r2, [r6, #8]
    60b4:	e08b1008 	add	r1, fp, r8
    60b8:	e3811001 	orr	r1, r1, #1
    60bc:	e5821004 	str	r1, [r2, #4]
    60c0:	eaffff4b 	b	5df4 <_malloc_r+0x410>
    60c4:	e1a00005 	mov	r0, r5
    60c8:	e2871008 	add	r1, r7, #8
    60cc:	ebfffcdc 	bl	5444 <_free_r>
    60d0:	e59f301c 	ldr	r3, [pc, #28]	; 60f4 <_malloc_r+0x710>
    60d4:	e5933004 	ldr	r3, [r3, #4]
    60d8:	eaffff45 	b	5df4 <_malloc_r+0x410>
    60dc:	e5963004 	ldr	r3, [r6, #4]
    60e0:	e1c33000 	bic	r3, r3, r0
    60e4:	e5863004 	str	r3, [r6, #4]
    60e8:	eaffffb6 	b	5fc8 <_malloc_r+0x5e4>
    60ec:	400004ac 	.word	0x400004ac
    60f0:	00000554 	.word	0x00000554
    60f4:	400008d0 	.word	0x400008d0

000060f8 <memchr>:
    60f8:	e3100003 	tst	r0, #3
    60fc:	e92d0070 	push	{r4, r5, r6}
    6100:	e20110ff 	and	r1, r1, #255	; 0xff
    6104:	0a00000f 	beq	6148 <memchr+0x50>
    6108:	e3520000 	cmp	r2, #0
    610c:	0a000033 	beq	61e0 <memchr+0xe8>
    6110:	e5d03000 	ldrb	r3, [r0]
    6114:	e1530001 	cmp	r3, r1
    6118:	11a03000 	movne	r3, r0
    611c:	12422001 	subne	r2, r2, #1
    6120:	1a000005 	bne	613c <memchr+0x44>
    6124:	ea00001a 	b	6194 <memchr+0x9c>
    6128:	e2522001 	subs	r2, r2, #1
    612c:	3a000017 	bcc	6190 <memchr+0x98>
    6130:	e5f3c001 	ldrb	ip, [r3, #1]!
    6134:	e15c0001 	cmp	ip, r1
    6138:	0a000015 	beq	6194 <memchr+0x9c>
    613c:	e2800001 	add	r0, r0, #1
    6140:	e3100003 	tst	r0, #3
    6144:	1afffff7 	bne	6128 <memchr+0x30>
    6148:	e3520003 	cmp	r2, #3
    614c:	81816401 	orrhi	r6, r1, r1, lsl #8
    6150:	81866806 	orrhi	r6, r6, r6, lsl #16
    6154:	8a000010 	bhi	619c <memchr+0xa4>
    6158:	e3520000 	cmp	r2, #0
    615c:	0a00001f 	beq	61e0 <memchr+0xe8>
    6160:	e5d03000 	ldrb	r3, [r0]
    6164:	e1530001 	cmp	r3, r1
    6168:	12803001 	addne	r3, r0, #1
    616c:	10802002 	addne	r2, r0, r2
    6170:	1a000004 	bne	6188 <memchr+0x90>
    6174:	ea000006 	b	6194 <memchr+0x9c>
    6178:	e4d3c001 	ldrb	ip, [r3], #1
    617c:	e15c0001 	cmp	ip, r1
    6180:	e2800001 	add	r0, r0, #1
    6184:	0a000002 	beq	6194 <memchr+0x9c>
    6188:	e1530002 	cmp	r3, r2
    618c:	1afffff9 	bne	6178 <memchr+0x80>
    6190:	e3a00000 	mov	r0, #0
    6194:	e8bd0070 	pop	{r4, r5, r6}
    6198:	e12fff1e 	bx	lr
    619c:	e5904000 	ldr	r4, [r0]
    61a0:	e59fc040 	ldr	ip, [pc, #64]	; 61e8 <memchr+0xf0>
    61a4:	e0264004 	eor	r4, r6, r4
    61a8:	e084c00c 	add	ip, r4, ip
    61ac:	e59f3038 	ldr	r3, [pc, #56]	; 61ec <memchr+0xf4>
    61b0:	e1ccc004 	bic	ip, ip, r4
    61b4:	e00c3003 	and	r3, ip, r3
    61b8:	e3530000 	cmp	r3, #0
    61bc:	e1a05000 	mov	r5, r0
    61c0:	e2800004 	add	r0, r0, #4
    61c4:	1a000003 	bne	61d8 <memchr+0xe0>
    61c8:	e2422004 	sub	r2, r2, #4
    61cc:	e3520003 	cmp	r2, #3
    61d0:	8afffff1 	bhi	619c <memchr+0xa4>
    61d4:	eaffffdf 	b	6158 <memchr+0x60>
    61d8:	e1a00005 	mov	r0, r5
    61dc:	eaffffdd 	b	6158 <memchr+0x60>
    61e0:	e1a00002 	mov	r0, r2
    61e4:	eaffffea 	b	6194 <memchr+0x9c>
    61e8:	fefefeff 	.word	0xfefefeff
    61ec:	80808080 	.word	0x80808080

000061f0 <memcpy>:
    61f0:	e3520003 	cmp	r2, #3
    61f4:	e92d00f0 	push	{r4, r5, r6, r7}
    61f8:	8a000009 	bhi	6224 <memcpy+0x34>
    61fc:	e3520000 	cmp	r2, #0
    6200:	0a000005 	beq	621c <memcpy+0x2c>
    6204:	e3a03000 	mov	r3, #0
    6208:	e7d1c003 	ldrb	ip, [r1, r3]
    620c:	e7c0c003 	strb	ip, [r0, r3]
    6210:	e2833001 	add	r3, r3, #1
    6214:	e1530002 	cmp	r3, r2
    6218:	1afffffa 	bne	6208 <memcpy+0x18>
    621c:	e8bd00f0 	pop	{r4, r5, r6, r7}
    6220:	e12fff1e 	bx	lr
    6224:	e3100003 	tst	r0, #3
    6228:	e1a03000 	mov	r3, r0
    622c:	e0802002 	add	r2, r0, r2
    6230:	0a000003 	beq	6244 <memcpy+0x54>
    6234:	e4d1c001 	ldrb	ip, [r1], #1
    6238:	e4c3c001 	strb	ip, [r3], #1
    623c:	e3130003 	tst	r3, #3
    6240:	1afffffb 	bne	6234 <memcpy+0x44>
    6244:	e2114003 	ands	r4, r1, #3
    6248:	e063c002 	rsb	ip, r3, r2
    624c:	1a000036 	bne	632c <memcpy+0x13c>
    6250:	e35c003f 	cmp	ip, #63	; 0x3f
    6254:	da000024 	ble	62ec <memcpy+0xfc>
    6258:	e591c000 	ldr	ip, [r1]
    625c:	e583c000 	str	ip, [r3]
    6260:	e591c004 	ldr	ip, [r1, #4]
    6264:	e583c004 	str	ip, [r3, #4]
    6268:	e591c008 	ldr	ip, [r1, #8]
    626c:	e583c008 	str	ip, [r3, #8]
    6270:	e591c00c 	ldr	ip, [r1, #12]
    6274:	e583c00c 	str	ip, [r3, #12]
    6278:	e591c010 	ldr	ip, [r1, #16]
    627c:	e583c010 	str	ip, [r3, #16]
    6280:	e591c014 	ldr	ip, [r1, #20]
    6284:	e583c014 	str	ip, [r3, #20]
    6288:	e591c018 	ldr	ip, [r1, #24]
    628c:	e583c018 	str	ip, [r3, #24]
    6290:	e591c01c 	ldr	ip, [r1, #28]
    6294:	e583c01c 	str	ip, [r3, #28]
    6298:	e591c020 	ldr	ip, [r1, #32]
    629c:	e583c020 	str	ip, [r3, #32]
    62a0:	e591c024 	ldr	ip, [r1, #36]	; 0x24
    62a4:	e583c024 	str	ip, [r3, #36]	; 0x24
    62a8:	e591c028 	ldr	ip, [r1, #40]	; 0x28
    62ac:	e583c028 	str	ip, [r3, #40]	; 0x28
    62b0:	e591c02c 	ldr	ip, [r1, #44]	; 0x2c
    62b4:	e583c02c 	str	ip, [r3, #44]	; 0x2c
    62b8:	e591c030 	ldr	ip, [r1, #48]	; 0x30
    62bc:	e583c030 	str	ip, [r3, #48]	; 0x30
    62c0:	e591c034 	ldr	ip, [r1, #52]	; 0x34
    62c4:	e583c034 	str	ip, [r3, #52]	; 0x34
    62c8:	e591c038 	ldr	ip, [r1, #56]	; 0x38
    62cc:	e583c038 	str	ip, [r3, #56]	; 0x38
    62d0:	e591c03c 	ldr	ip, [r1, #60]	; 0x3c
    62d4:	e583c03c 	str	ip, [r3, #60]	; 0x3c
    62d8:	e2833040 	add	r3, r3, #64	; 0x40
    62dc:	e063c002 	rsb	ip, r3, r2
    62e0:	e35c003f 	cmp	ip, #63	; 0x3f
    62e4:	e2811040 	add	r1, r1, #64	; 0x40
    62e8:	caffffda 	bgt	6258 <memcpy+0x68>
    62ec:	e35c000f 	cmp	ip, #15
    62f0:	da000028 	ble	6398 <memcpy+0x1a8>
    62f4:	e591c000 	ldr	ip, [r1]
    62f8:	e583c000 	str	ip, [r3]
    62fc:	e591c004 	ldr	ip, [r1, #4]
    6300:	e583c004 	str	ip, [r3, #4]
    6304:	e591c008 	ldr	ip, [r1, #8]
    6308:	e583c008 	str	ip, [r3, #8]
    630c:	e591c00c 	ldr	ip, [r1, #12]
    6310:	e583c00c 	str	ip, [r3, #12]
    6314:	e2833010 	add	r3, r3, #16
    6318:	e063c002 	rsb	ip, r3, r2
    631c:	e35c000f 	cmp	ip, #15
    6320:	e2811010 	add	r1, r1, #16
    6324:	cafffff2 	bgt	62f4 <memcpy+0x104>
    6328:	ea00001a 	b	6398 <memcpy+0x1a8>
    632c:	e2645000 	rsb	r5, r4, #0
    6330:	e35c0003 	cmp	ip, #3
    6334:	e7916005 	ldr	r6, [r1, r5]
    6338:	da00000a 	ble	6368 <memcpy+0x178>
    633c:	e2647004 	rsb	r7, r4, #4
    6340:	e1a07187 	lsl	r7, r7, #3
    6344:	e1a04184 	lsl	r4, r4, #3
    6348:	e1a0c436 	lsr	ip, r6, r4
    634c:	e2811004 	add	r1, r1, #4
    6350:	e7916005 	ldr	r6, [r1, r5]
    6354:	e18cc716 	orr	ip, ip, r6, lsl r7
    6358:	e483c004 	str	ip, [r3], #4
    635c:	e063c002 	rsb	ip, r3, r2
    6360:	e35c0003 	cmp	ip, #3
    6364:	cafffff7 	bgt	6348 <memcpy+0x158>
    6368:	e1520003 	cmp	r2, r3
    636c:	83a02000 	movhi	r2, #0
    6370:	9affffa9 	bls	621c <memcpy+0x2c>
    6374:	e7d14002 	ldrb	r4, [r1, r2]
    6378:	e7c34002 	strb	r4, [r3, r2]
    637c:	e2822001 	add	r2, r2, #1
    6380:	e152000c 	cmp	r2, ip
    6384:	1afffffa 	bne	6374 <memcpy+0x184>
    6388:	eaffffa3 	b	621c <memcpy+0x2c>
    638c:	e491c004 	ldr	ip, [r1], #4
    6390:	e483c004 	str	ip, [r3], #4
    6394:	e063c002 	rsb	ip, r3, r2
    6398:	e35c0003 	cmp	ip, #3
    639c:	cafffffa 	bgt	638c <memcpy+0x19c>
    63a0:	eafffff0 	b	6368 <memcpy+0x178>

000063a4 <memset>:
    63a4:	e3520003 	cmp	r2, #3
    63a8:	e92d0030 	push	{r4, r5}
    63ac:	e20110ff 	and	r1, r1, #255	; 0xff
    63b0:	8a000008 	bhi	63d8 <memset+0x34>
    63b4:	e3520000 	cmp	r2, #0
    63b8:	0a000004 	beq	63d0 <memset+0x2c>
    63bc:	e3a03000 	mov	r3, #0
    63c0:	e7c01003 	strb	r1, [r0, r3]
    63c4:	e2833001 	add	r3, r3, #1
    63c8:	e1530002 	cmp	r3, r2
    63cc:	1afffffb 	bne	63c0 <memset+0x1c>
    63d0:	e8bd0030 	pop	{r4, r5}
    63d4:	e12fff1e 	bx	lr
    63d8:	e3100003 	tst	r0, #3
    63dc:	e1a03000 	mov	r3, r0
    63e0:	e0802002 	add	r2, r0, r2
    63e4:	0a000002 	beq	63f4 <memset+0x50>
    63e8:	e4c31001 	strb	r1, [r3], #1
    63ec:	e3130003 	tst	r3, #3
    63f0:	1afffffc 	bne	63e8 <memset+0x44>
    63f4:	e1a0c401 	lsl	ip, r1, #8
    63f8:	e08cc001 	add	ip, ip, r1
    63fc:	e0634002 	rsb	r4, r3, r2
    6400:	e1a0580c 	lsl	r5, ip, #16
    6404:	e354003f 	cmp	r4, #63	; 0x3f
    6408:	e08cc005 	add	ip, ip, r5
    640c:	da00001a 	ble	647c <memset+0xd8>
    6410:	e583c000 	str	ip, [r3]
    6414:	e583c004 	str	ip, [r3, #4]
    6418:	e583c008 	str	ip, [r3, #8]
    641c:	e583c00c 	str	ip, [r3, #12]
    6420:	e583c010 	str	ip, [r3, #16]
    6424:	e583c014 	str	ip, [r3, #20]
    6428:	e583c018 	str	ip, [r3, #24]
    642c:	e583c01c 	str	ip, [r3, #28]
    6430:	e583c020 	str	ip, [r3, #32]
    6434:	e583c024 	str	ip, [r3, #36]	; 0x24
    6438:	e583c028 	str	ip, [r3, #40]	; 0x28
    643c:	e583c02c 	str	ip, [r3, #44]	; 0x2c
    6440:	e583c030 	str	ip, [r3, #48]	; 0x30
    6444:	e583c034 	str	ip, [r3, #52]	; 0x34
    6448:	e583c038 	str	ip, [r3, #56]	; 0x38
    644c:	e583c03c 	str	ip, [r3, #60]	; 0x3c
    6450:	e2833040 	add	r3, r3, #64	; 0x40
    6454:	e0634002 	rsb	r4, r3, r2
    6458:	e354003f 	cmp	r4, #63	; 0x3f
    645c:	caffffeb 	bgt	6410 <memset+0x6c>
    6460:	ea000005 	b	647c <memset+0xd8>
    6464:	e583c000 	str	ip, [r3]
    6468:	e583c004 	str	ip, [r3, #4]
    646c:	e583c008 	str	ip, [r3, #8]
    6470:	e583c00c 	str	ip, [r3, #12]
    6474:	e2833010 	add	r3, r3, #16
    6478:	e0634002 	rsb	r4, r3, r2
    647c:	e354000f 	cmp	r4, #15
    6480:	cafffff7 	bgt	6464 <memset+0xc0>
    6484:	ea000001 	b	6490 <memset+0xec>
    6488:	e483c004 	str	ip, [r3], #4
    648c:	e0634002 	rsb	r4, r3, r2
    6490:	e3540003 	cmp	r4, #3
    6494:	cafffffb 	bgt	6488 <memset+0xe4>
    6498:	e1530002 	cmp	r3, r2
    649c:	2affffcb 	bcs	63d0 <memset+0x2c>
    64a0:	e4c31001 	strb	r1, [r3], #1
    64a4:	e1530002 	cmp	r3, r2
    64a8:	1afffffc 	bne	64a0 <memset+0xfc>
    64ac:	eaffffc7 	b	63d0 <memset+0x2c>

000064b0 <__malloc_lock>:
    64b0:	e12fff1e 	bx	lr

000064b4 <__malloc_unlock>:
    64b4:	e12fff1e 	bx	lr

000064b8 <_Balloc>:
    64b8:	e590304c 	ldr	r3, [r0, #76]	; 0x4c
    64bc:	e3530000 	cmp	r3, #0
    64c0:	e92d4070 	push	{r4, r5, r6, lr}
    64c4:	e1a05000 	mov	r5, r0
    64c8:	e1a04001 	mov	r4, r1
    64cc:	0a000009 	beq	64f8 <_Balloc+0x40>
    64d0:	e7930104 	ldr	r0, [r3, r4, lsl #2]
    64d4:	e3500000 	cmp	r0, #0
    64d8:	0a00000d 	beq	6514 <_Balloc+0x5c>
    64dc:	e5902000 	ldr	r2, [r0]
    64e0:	e7832104 	str	r2, [r3, r4, lsl #2]
    64e4:	e3a03000 	mov	r3, #0
    64e8:	e5803010 	str	r3, [r0, #16]
    64ec:	e580300c 	str	r3, [r0, #12]
    64f0:	e8bd4070 	pop	{r4, r5, r6, lr}
    64f4:	e12fff1e 	bx	lr
    64f8:	e3a01004 	mov	r1, #4
    64fc:	e3a02021 	mov	r2, #33	; 0x21
    6500:	eb0008e6 	bl	88a0 <_calloc_r>
    6504:	e2503000 	subs	r3, r0, #0
    6508:	e585004c 	str	r0, [r5, #76]	; 0x4c
    650c:	1affffef 	bne	64d0 <_Balloc+0x18>
    6510:	eafffff6 	b	64f0 <_Balloc+0x38>
    6514:	e3a01001 	mov	r1, #1
    6518:	e1a06411 	lsl	r6, r1, r4
    651c:	e2862005 	add	r2, r6, #5
    6520:	e1a00005 	mov	r0, r5
    6524:	e1a02102 	lsl	r2, r2, #2
    6528:	eb0008dc 	bl	88a0 <_calloc_r>
    652c:	e3500000 	cmp	r0, #0
    6530:	0affffee 	beq	64f0 <_Balloc+0x38>
    6534:	e9800050 	stmib	r0, {r4, r6}
    6538:	eaffffe9 	b	64e4 <_Balloc+0x2c>

0000653c <_Bfree>:
    653c:	e3510000 	cmp	r1, #0
    6540:	1590304c 	ldrne	r3, [r0, #76]	; 0x4c
    6544:	15912004 	ldrne	r2, [r1, #4]
    6548:	17930102 	ldrne	r0, [r3, r2, lsl #2]
    654c:	15810000 	strne	r0, [r1]
    6550:	17831102 	strne	r1, [r3, r2, lsl #2]
    6554:	e12fff1e 	bx	lr

00006558 <__multadd>:
    6558:	e92d40f0 	push	{r4, r5, r6, r7, lr}
    655c:	e1a05001 	mov	r5, r1
    6560:	e5914010 	ldr	r4, [r1, #16]
    6564:	e1a06000 	mov	r6, r0
    6568:	e24dd00c 	sub	sp, sp, #12
    656c:	e2810014 	add	r0, r1, #20
    6570:	e3a01000 	mov	r1, #0
    6574:	e590c000 	ldr	ip, [r0]
    6578:	e1a0780c 	lsl	r7, ip, #16
    657c:	e1a07827 	lsr	r7, r7, #16
    6580:	e1a0c82c 	lsr	ip, ip, #16
    6584:	e0233792 	mla	r3, r2, r7, r3
    6588:	e00c0c92 	mul	ip, r2, ip
    658c:	e08cc823 	add	ip, ip, r3, lsr #16
    6590:	e1a0780c 	lsl	r7, ip, #16
    6594:	e1a03803 	lsl	r3, r3, #16
    6598:	e2811001 	add	r1, r1, #1
    659c:	e0877823 	add	r7, r7, r3, lsr #16
    65a0:	e1540001 	cmp	r4, r1
    65a4:	e1a0382c 	lsr	r3, ip, #16
    65a8:	e4807004 	str	r7, [r0], #4
    65ac:	cafffff0 	bgt	6574 <__multadd+0x1c>
    65b0:	e3530000 	cmp	r3, #0
    65b4:	0a000006 	beq	65d4 <__multadd+0x7c>
    65b8:	e5952008 	ldr	r2, [r5, #8]
    65bc:	e1540002 	cmp	r4, r2
    65c0:	aa000007 	bge	65e4 <__multadd+0x8c>
    65c4:	e0852104 	add	r2, r5, r4, lsl #2
    65c8:	e2844001 	add	r4, r4, #1
    65cc:	e5823014 	str	r3, [r2, #20]
    65d0:	e5854010 	str	r4, [r5, #16]
    65d4:	e1a00005 	mov	r0, r5
    65d8:	e28dd00c 	add	sp, sp, #12
    65dc:	e8bd40f0 	pop	{r4, r5, r6, r7, lr}
    65e0:	e12fff1e 	bx	lr
    65e4:	e5951004 	ldr	r1, [r5, #4]
    65e8:	e1a00006 	mov	r0, r6
    65ec:	e2811001 	add	r1, r1, #1
    65f0:	e58d3004 	str	r3, [sp, #4]
    65f4:	ebffffaf 	bl	64b8 <_Balloc>
    65f8:	e5952010 	ldr	r2, [r5, #16]
    65fc:	e2822002 	add	r2, r2, #2
    6600:	e285100c 	add	r1, r5, #12
    6604:	e1a07000 	mov	r7, r0
    6608:	e1a02102 	lsl	r2, r2, #2
    660c:	e280000c 	add	r0, r0, #12
    6610:	ebfffef6 	bl	61f0 <memcpy>
    6614:	e5951004 	ldr	r1, [r5, #4]
    6618:	e596204c 	ldr	r2, [r6, #76]	; 0x4c
    661c:	e7920101 	ldr	r0, [r2, r1, lsl #2]
    6620:	e59d3004 	ldr	r3, [sp, #4]
    6624:	e5850000 	str	r0, [r5]
    6628:	e7825101 	str	r5, [r2, r1, lsl #2]
    662c:	e1a05007 	mov	r5, r7
    6630:	eaffffe3 	b	65c4 <__multadd+0x6c>

00006634 <__s2b>:
    6634:	e92d45f8 	push	{r3, r4, r5, r6, r7, r8, sl, lr}
    6638:	e283c008 	add	ip, r3, #8
    663c:	e1a06003 	mov	r6, r3
    6640:	e59f30d0 	ldr	r3, [pc, #208]	; 6718 <__s2b+0xe4>
    6644:	e0c3e39c 	smull	lr, r3, ip, r3
    6648:	e1a0cfcc 	asr	ip, ip, #31
    664c:	e06c30c3 	rsb	r3, ip, r3, asr #1
    6650:	e3530001 	cmp	r3, #1
    6654:	e1a08001 	mov	r8, r1
    6658:	e1a05000 	mov	r5, r0
    665c:	e1a07002 	mov	r7, r2
    6660:	d3a01000 	movle	r1, #0
    6664:	da000005 	ble	6680 <__s2b+0x4c>
    6668:	e3a02001 	mov	r2, #1
    666c:	e3a01000 	mov	r1, #0
    6670:	e1a02082 	lsl	r2, r2, #1
    6674:	e1530002 	cmp	r3, r2
    6678:	e2811001 	add	r1, r1, #1
    667c:	cafffffb 	bgt	6670 <__s2b+0x3c>
    6680:	e1a00005 	mov	r0, r5
    6684:	ebffff8b 	bl	64b8 <_Balloc>
    6688:	e59d3020 	ldr	r3, [sp, #32]
    668c:	e3570009 	cmp	r7, #9
    6690:	e5803014 	str	r3, [r0, #20]
    6694:	e3a03001 	mov	r3, #1
    6698:	e1a01000 	mov	r1, r0
    669c:	e5803010 	str	r3, [r0, #16]
    66a0:	d288800a 	addle	r8, r8, #10
    66a4:	d3a04009 	movle	r4, #9
    66a8:	da00000c 	ble	66e0 <__s2b+0xac>
    66ac:	e288a009 	add	sl, r8, #9
    66b0:	e3a04009 	mov	r4, #9
    66b4:	e7d83004 	ldrb	r3, [r8, r4]
    66b8:	e1a00005 	mov	r0, r5
    66bc:	e3a0200a 	mov	r2, #10
    66c0:	e2433030 	sub	r3, r3, #48	; 0x30
    66c4:	ebffffa3 	bl	6558 <__multadd>
    66c8:	e2844001 	add	r4, r4, #1
    66cc:	e1540007 	cmp	r4, r7
    66d0:	e1a01000 	mov	r1, r0
    66d4:	1afffff6 	bne	66b4 <__s2b+0x80>
    66d8:	e08a8004 	add	r8, sl, r4
    66dc:	e2488008 	sub	r8, r8, #8
    66e0:	e1560004 	cmp	r6, r4
    66e4:	da000008 	ble	670c <__s2b+0xd8>
    66e8:	e4d83001 	ldrb	r3, [r8], #1
    66ec:	e1a00005 	mov	r0, r5
    66f0:	e3a0200a 	mov	r2, #10
    66f4:	e2433030 	sub	r3, r3, #48	; 0x30
    66f8:	ebffff96 	bl	6558 <__multadd>
    66fc:	e2844001 	add	r4, r4, #1
    6700:	e1540006 	cmp	r4, r6
    6704:	e1a01000 	mov	r1, r0
    6708:	1afffff6 	bne	66e8 <__s2b+0xb4>
    670c:	e1a00001 	mov	r0, r1
    6710:	e8bd45f8 	pop	{r3, r4, r5, r6, r7, r8, sl, lr}
    6714:	e12fff1e 	bx	lr
    6718:	38e38e39 	.word	0x38e38e39

0000671c <__hi0bits>:
    671c:	e1b02820 	lsrs	r2, r0, #16
    6720:	e1a03000 	mov	r3, r0
    6724:	01a03800 	lsleq	r3, r0, #16
    6728:	13a00000 	movne	r0, #0
    672c:	03a00010 	moveq	r0, #16
    6730:	e31304ff 	tst	r3, #-16777216	; 0xff000000
    6734:	01a03403 	lsleq	r3, r3, #8
    6738:	02800008 	addeq	r0, r0, #8
    673c:	e313020f 	tst	r3, #-268435456	; 0xf0000000
    6740:	01a03203 	lsleq	r3, r3, #4
    6744:	02800004 	addeq	r0, r0, #4
    6748:	e3130103 	tst	r3, #-1073741824	; 0xc0000000
    674c:	01a03103 	lsleq	r3, r3, #2
    6750:	02800002 	addeq	r0, r0, #2
    6754:	e3530000 	cmp	r3, #0
    6758:	b12fff1e 	bxlt	lr
    675c:	e3130101 	tst	r3, #1073741824	; 0x40000000
    6760:	12800001 	addne	r0, r0, #1
    6764:	03a00020 	moveq	r0, #32
    6768:	e12fff1e 	bx	lr

0000676c <__lo0bits>:
    676c:	e5903000 	ldr	r3, [r0]
    6770:	e1a02000 	mov	r2, r0
    6774:	e2130007 	ands	r0, r3, #7
    6778:	0a00000a 	beq	67a8 <__lo0bits+0x3c>
    677c:	e3130001 	tst	r3, #1
    6780:	13a00000 	movne	r0, #0
    6784:	112fff1e 	bxne	lr
    6788:	e3130002 	tst	r3, #2
    678c:	11a030a3 	lsrne	r3, r3, #1
    6790:	01a03123 	lsreq	r3, r3, #2
    6794:	15823000 	strne	r3, [r2]
    6798:	13a00001 	movne	r0, #1
    679c:	05823000 	streq	r3, [r2]
    67a0:	03a00002 	moveq	r0, #2
    67a4:	e12fff1e 	bx	lr
    67a8:	e1b01803 	lsls	r1, r3, #16
    67ac:	01a03823 	lsreq	r3, r3, #16
    67b0:	03a00010 	moveq	r0, #16
    67b4:	e31300ff 	tst	r3, #255	; 0xff
    67b8:	01a03423 	lsreq	r3, r3, #8
    67bc:	02800008 	addeq	r0, r0, #8
    67c0:	e313000f 	tst	r3, #15
    67c4:	01a03223 	lsreq	r3, r3, #4
    67c8:	02800004 	addeq	r0, r0, #4
    67cc:	e3130003 	tst	r3, #3
    67d0:	01a03123 	lsreq	r3, r3, #2
    67d4:	02800002 	addeq	r0, r0, #2
    67d8:	e3130001 	tst	r3, #1
    67dc:	1a000004 	bne	67f4 <__lo0bits+0x88>
    67e0:	e1b030a3 	lsrs	r3, r3, #1
    67e4:	1a000001 	bne	67f0 <__lo0bits+0x84>
    67e8:	e3a00020 	mov	r0, #32
    67ec:	e12fff1e 	bx	lr
    67f0:	e2800001 	add	r0, r0, #1
    67f4:	e5823000 	str	r3, [r2]
    67f8:	e12fff1e 	bx	lr

000067fc <__i2b>:
    67fc:	e92d4010 	push	{r4, lr}
    6800:	e1a04001 	mov	r4, r1
    6804:	e3a01001 	mov	r1, #1
    6808:	ebffff2a 	bl	64b8 <_Balloc>
    680c:	e3a02001 	mov	r2, #1
    6810:	e5804014 	str	r4, [r0, #20]
    6814:	e5802010 	str	r2, [r0, #16]
    6818:	e8bd4010 	pop	{r4, lr}
    681c:	e12fff1e 	bx	lr

00006820 <__multiply>:
    6820:	e92d4ff0 	push	{r4, r5, r6, r7, r8, r9, sl, fp, lr}
    6824:	e5916010 	ldr	r6, [r1, #16]
    6828:	e5925010 	ldr	r5, [r2, #16]
    682c:	e1a09002 	mov	r9, r2
    6830:	e1560005 	cmp	r6, r5
    6834:	b1a02006 	movlt	r2, r6
    6838:	e1a04001 	mov	r4, r1
    683c:	b1a04009 	movlt	r4, r9
    6840:	b1a06005 	movlt	r6, r5
    6844:	e5943008 	ldr	r3, [r4, #8]
    6848:	b1a05002 	movlt	r5, r2
    684c:	b1a09001 	movlt	r9, r1
    6850:	e086b005 	add	fp, r6, r5
    6854:	e5941004 	ldr	r1, [r4, #4]
    6858:	e15b0003 	cmp	fp, r3
    685c:	e24dd01c 	sub	sp, sp, #28
    6860:	c2811001 	addgt	r1, r1, #1
    6864:	ebffff13 	bl	64b8 <_Balloc>
    6868:	e28b1004 	add	r1, fp, #4
    686c:	e0803101 	add	r3, r0, r1, lsl #2
    6870:	e2833004 	add	r3, r3, #4
    6874:	e280a014 	add	sl, r0, #20
    6878:	e15a0003 	cmp	sl, r3
    687c:	e58d0008 	str	r0, [sp, #8]
    6880:	e58d1010 	str	r1, [sp, #16]
    6884:	e58d300c 	str	r3, [sp, #12]
    6888:	2a000005 	bcs	68a4 <__multiply+0x84>
    688c:	e59d100c 	ldr	r1, [sp, #12]
    6890:	e1a0300a 	mov	r3, sl
    6894:	e3a02000 	mov	r2, #0
    6898:	e4832004 	str	r2, [r3], #4
    689c:	e1510003 	cmp	r1, r3
    68a0:	8afffffc 	bhi	6898 <__multiply+0x78>
    68a4:	e0895105 	add	r5, r9, r5, lsl #2
    68a8:	e2855014 	add	r5, r5, #20
    68ac:	e2899014 	add	r9, r9, #20
    68b0:	e0846106 	add	r6, r4, r6, lsl #2
    68b4:	e1590005 	cmp	r9, r5
    68b8:	e2844014 	add	r4, r4, #20
    68bc:	e58d4004 	str	r4, [sp, #4]
    68c0:	e2866014 	add	r6, r6, #20
    68c4:	2a00003e 	bcs	69c4 <__multiply+0x1a4>
    68c8:	e58db014 	str	fp, [sp, #20]
    68cc:	e1a0b005 	mov	fp, r5
    68d0:	e499c004 	ldr	ip, [r9], #4
    68d4:	e1a0480c 	lsl	r4, ip, #16
    68d8:	e1b04824 	lsrs	r4, r4, #16
    68dc:	0a000017 	beq	6940 <__multiply+0x120>
    68e0:	e59d2004 	ldr	r2, [sp, #4]
    68e4:	e1a0300a 	mov	r3, sl
    68e8:	e3a0c000 	mov	ip, #0
    68ec:	e4920004 	ldr	r0, [r2], #4
    68f0:	e5931000 	ldr	r1, [r3]
    68f4:	e1a05800 	lsl	r5, r0, #16
    68f8:	e1a07801 	lsl	r7, r1, #16
    68fc:	e08cc827 	add	ip, ip, r7, lsr #16
    6900:	e1a05825 	lsr	r5, r5, #16
    6904:	e025c594 	mla	r5, r4, r5, ip
    6908:	e1a00820 	lsr	r0, r0, #16
    690c:	e1a0c821 	lsr	ip, r1, #16
    6910:	e02cc094 	mla	ip, r4, r0, ip
    6914:	e1a08805 	lsl	r8, r5, #16
    6918:	e08cc825 	add	ip, ip, r5, lsr #16
    691c:	e1a08828 	lsr	r8, r8, #16
    6920:	e188880c 	orr	r8, r8, ip, lsl #16
    6924:	e1560002 	cmp	r6, r2
    6928:	e1a07003 	mov	r7, r3
    692c:	e1a0c82c 	lsr	ip, ip, #16
    6930:	e4838004 	str	r8, [r3], #4
    6934:	8affffec 	bhi	68ec <__multiply+0xcc>
    6938:	e587c004 	str	ip, [r7, #4]
    693c:	e519c004 	ldr	ip, [r9, #-4]
    6940:	e1b0c82c 	lsrs	ip, ip, #16
    6944:	0a00001a 	beq	69b4 <__multiply+0x194>
    6948:	e59a7000 	ldr	r7, [sl]
    694c:	e59d3004 	ldr	r3, [sp, #4]
    6950:	e1a0500a 	mov	r5, sl
    6954:	e1a01007 	mov	r1, r7
    6958:	e1a0400a 	mov	r4, sl
    695c:	e3a08000 	mov	r8, #0
    6960:	ea000000 	b	6968 <__multiply+0x148>
    6964:	e1a04002 	mov	r4, r2
    6968:	e1d320b0 	ldrh	r2, [r3]
    696c:	e0888821 	add	r8, r8, r1, lsr #16
    6970:	e028829c 	mla	r8, ip, r2, r8
    6974:	e1a07807 	lsl	r7, r7, #16
    6978:	e1a07827 	lsr	r7, r7, #16
    697c:	e1877808 	orr	r7, r7, r8, lsl #16
    6980:	e1a02004 	mov	r2, r4
    6984:	e4827004 	str	r7, [r2], #4
    6988:	e5b51004 	ldr	r1, [r5, #4]!
    698c:	e4937004 	ldr	r7, [r3], #4
    6990:	e1a00801 	lsl	r0, r1, #16
    6994:	e1a07827 	lsr	r7, r7, #16
    6998:	e1a00820 	lsr	r0, r0, #16
    699c:	e027079c 	mla	r7, ip, r7, r0
    69a0:	e1560003 	cmp	r6, r3
    69a4:	e0877828 	add	r7, r7, r8, lsr #16
    69a8:	e1a08827 	lsr	r8, r7, #16
    69ac:	8affffec 	bhi	6964 <__multiply+0x144>
    69b0:	e5847004 	str	r7, [r4, #4]
    69b4:	e15b0009 	cmp	fp, r9
    69b8:	e28aa004 	add	sl, sl, #4
    69bc:	8affffc3 	bhi	68d0 <__multiply+0xb0>
    69c0:	e59db014 	ldr	fp, [sp, #20]
    69c4:	e35b0000 	cmp	fp, #0
    69c8:	da00000c 	ble	6a00 <__multiply+0x1e0>
    69cc:	e59d2010 	ldr	r2, [sp, #16]
    69d0:	e59d1008 	ldr	r1, [sp, #8]
    69d4:	e7913102 	ldr	r3, [r1, r2, lsl #2]
    69d8:	e3530000 	cmp	r3, #0
    69dc:	1a000007 	bne	6a00 <__multiply+0x1e0>
    69e0:	e59d200c 	ldr	r2, [sp, #12]
    69e4:	e2423004 	sub	r3, r2, #4
    69e8:	ea000002 	b	69f8 <__multiply+0x1d8>
    69ec:	e5332004 	ldr	r2, [r3, #-4]!
    69f0:	e3520000 	cmp	r2, #0
    69f4:	1a000001 	bne	6a00 <__multiply+0x1e0>
    69f8:	e25bb001 	subs	fp, fp, #1
    69fc:	1afffffa 	bne	69ec <__multiply+0x1cc>
    6a00:	e59d3008 	ldr	r3, [sp, #8]
    6a04:	e583b010 	str	fp, [r3, #16]
    6a08:	e1a00003 	mov	r0, r3
    6a0c:	e28dd01c 	add	sp, sp, #28
    6a10:	e8bd4ff0 	pop	{r4, r5, r6, r7, r8, r9, sl, fp, lr}
    6a14:	e12fff1e 	bx	lr

00006a18 <__pow5mult>:
    6a18:	e2123003 	ands	r3, r2, #3
    6a1c:	e92d41f0 	push	{r4, r5, r6, r7, r8, lr}
    6a20:	e1a05002 	mov	r5, r2
    6a24:	e1a04000 	mov	r4, r0
    6a28:	e1a08001 	mov	r8, r1
    6a2c:	1a000025 	bne	6ac8 <__pow5mult+0xb0>
    6a30:	e1b05145 	asrs	r5, r5, #2
    6a34:	0a000018 	beq	6a9c <__pow5mult+0x84>
    6a38:	e5947048 	ldr	r7, [r4, #72]	; 0x48
    6a3c:	e3570000 	cmp	r7, #0
    6a40:	1a000006 	bne	6a60 <__pow5mult+0x48>
    6a44:	ea000026 	b	6ae4 <__pow5mult+0xcc>
    6a48:	e1b050c5 	asrs	r5, r5, #1
    6a4c:	0a000012 	beq	6a9c <__pow5mult+0x84>
    6a50:	e5976000 	ldr	r6, [r7]
    6a54:	e3560000 	cmp	r6, #0
    6a58:	11a07006 	movne	r7, r6
    6a5c:	0a000011 	beq	6aa8 <__pow5mult+0x90>
    6a60:	e3150001 	tst	r5, #1
    6a64:	0afffff7 	beq	6a48 <__pow5mult+0x30>
    6a68:	e1a01008 	mov	r1, r8
    6a6c:	e1a02007 	mov	r2, r7
    6a70:	e1a00004 	mov	r0, r4
    6a74:	ebffff69 	bl	6820 <__multiply>
    6a78:	e3580000 	cmp	r8, #0
    6a7c:	15982004 	ldrne	r2, [r8, #4]
    6a80:	1594304c 	ldrne	r3, [r4, #76]	; 0x4c
    6a84:	17931102 	ldrne	r1, [r3, r2, lsl #2]
    6a88:	15881000 	strne	r1, [r8]
    6a8c:	17838102 	strne	r8, [r3, r2, lsl #2]
    6a90:	e1b050c5 	asrs	r5, r5, #1
    6a94:	e1a08000 	mov	r8, r0
    6a98:	1affffec 	bne	6a50 <__pow5mult+0x38>
    6a9c:	e1a00008 	mov	r0, r8
    6aa0:	e8bd41f0 	pop	{r4, r5, r6, r7, r8, lr}
    6aa4:	e12fff1e 	bx	lr
    6aa8:	e1a01007 	mov	r1, r7
    6aac:	e1a02007 	mov	r2, r7
    6ab0:	e1a00004 	mov	r0, r4
    6ab4:	ebffff59 	bl	6820 <__multiply>
    6ab8:	e5870000 	str	r0, [r7]
    6abc:	e5806000 	str	r6, [r0]
    6ac0:	e1a07000 	mov	r7, r0
    6ac4:	eaffffe5 	b	6a60 <__pow5mult+0x48>
    6ac8:	e59f2034 	ldr	r2, [pc, #52]	; 6b04 <__pow5mult+0xec>
    6acc:	e2433001 	sub	r3, r3, #1
    6ad0:	e7922103 	ldr	r2, [r2, r3, lsl #2]
    6ad4:	e3a03000 	mov	r3, #0
    6ad8:	ebfffe9e 	bl	6558 <__multadd>
    6adc:	e1a08000 	mov	r8, r0
    6ae0:	eaffffd2 	b	6a30 <__pow5mult+0x18>
    6ae4:	e1a00004 	mov	r0, r4
    6ae8:	e59f1018 	ldr	r1, [pc, #24]	; 6b08 <__pow5mult+0xf0>
    6aec:	ebffff42 	bl	67fc <__i2b>
    6af0:	e3a03000 	mov	r3, #0
    6af4:	e5840048 	str	r0, [r4, #72]	; 0x48
    6af8:	e1a07000 	mov	r7, r0
    6afc:	e5803000 	str	r3, [r0]
    6b00:	eaffffd6 	b	6a60 <__pow5mult+0x48>
    6b04:	0000aaf0 	.word	0x0000aaf0
    6b08:	00000271 	.word	0x00000271

00006b0c <__lshift>:
    6b0c:	e92d47f0 	push	{r4, r5, r6, r7, r8, r9, sl, lr}
    6b10:	e591a010 	ldr	sl, [r1, #16]
    6b14:	e1a062c2 	asr	r6, r2, #5
    6b18:	e5913008 	ldr	r3, [r1, #8]
    6b1c:	e086a00a 	add	sl, r6, sl
    6b20:	e28a5001 	add	r5, sl, #1
    6b24:	e1550003 	cmp	r5, r3
    6b28:	e1a04001 	mov	r4, r1
    6b2c:	e1a07002 	mov	r7, r2
    6b30:	e1a08000 	mov	r8, r0
    6b34:	e5911004 	ldr	r1, [r1, #4]
    6b38:	da000003 	ble	6b4c <__lshift+0x40>
    6b3c:	e1a03083 	lsl	r3, r3, #1
    6b40:	e1550003 	cmp	r5, r3
    6b44:	e2811001 	add	r1, r1, #1
    6b48:	cafffffb 	bgt	6b3c <__lshift+0x30>
    6b4c:	e1a00008 	mov	r0, r8
    6b50:	ebfffe58 	bl	64b8 <_Balloc>
    6b54:	e3560000 	cmp	r6, #0
    6b58:	e2803014 	add	r3, r0, #20
    6b5c:	da000007 	ble	6b80 <__lshift+0x74>
    6b60:	e3a02000 	mov	r2, #0
    6b64:	e1a01002 	mov	r1, r2
    6b68:	e2822001 	add	r2, r2, #1
    6b6c:	e1520006 	cmp	r2, r6
    6b70:	e4831004 	str	r1, [r3], #4
    6b74:	1afffffb 	bne	6b68 <__lshift+0x5c>
    6b78:	e0803102 	add	r3, r0, r2, lsl #2
    6b7c:	e2833014 	add	r3, r3, #20
    6b80:	e5946010 	ldr	r6, [r4, #16]
    6b84:	e217701f 	ands	r7, r7, #31
    6b88:	e0846106 	add	r6, r4, r6, lsl #2
    6b8c:	e2842014 	add	r2, r4, #20
    6b90:	e2866014 	add	r6, r6, #20
    6b94:	12679020 	rsbne	r9, r7, #32
    6b98:	13a0c000 	movne	ip, #0
    6b9c:	1a00000d 	bne	6bd8 <__lshift+0xcc>
    6ba0:	e4921004 	ldr	r1, [r2], #4
    6ba4:	e1560002 	cmp	r6, r2
    6ba8:	e4831004 	str	r1, [r3], #4
    6bac:	8afffffb 	bhi	6ba0 <__lshift+0x94>
    6bb0:	e598304c 	ldr	r3, [r8, #76]	; 0x4c
    6bb4:	e5942004 	ldr	r2, [r4, #4]
    6bb8:	e7931102 	ldr	r1, [r3, r2, lsl #2]
    6bbc:	e2455001 	sub	r5, r5, #1
    6bc0:	e5805010 	str	r5, [r0, #16]
    6bc4:	e5841000 	str	r1, [r4]
    6bc8:	e7834102 	str	r4, [r3, r2, lsl #2]
    6bcc:	e8bd47f0 	pop	{r4, r5, r6, r7, r8, r9, sl, lr}
    6bd0:	e12fff1e 	bx	lr
    6bd4:	e1a03001 	mov	r3, r1
    6bd8:	e5921000 	ldr	r1, [r2]
    6bdc:	e18cc711 	orr	ip, ip, r1, lsl r7
    6be0:	e1a01003 	mov	r1, r3
    6be4:	e481c004 	str	ip, [r1], #4
    6be8:	e492c004 	ldr	ip, [r2], #4
    6bec:	e1560002 	cmp	r6, r2
    6bf0:	e1a0c93c 	lsr	ip, ip, r9
    6bf4:	8afffff6 	bhi	6bd4 <__lshift+0xc8>
    6bf8:	e35c0000 	cmp	ip, #0
    6bfc:	e583c004 	str	ip, [r3, #4]
    6c00:	128a5002 	addne	r5, sl, #2
    6c04:	eaffffe9 	b	6bb0 <__lshift+0xa4>

00006c08 <__mcmp>:
    6c08:	e1a03000 	mov	r3, r0
    6c0c:	e5912010 	ldr	r2, [r1, #16]
    6c10:	e5900010 	ldr	r0, [r0, #16]
    6c14:	e0500002 	subs	r0, r0, r2
    6c18:	e52d4004 	push	{r4}		; (str r4, [sp, #-4]!)
    6c1c:	1a00000d 	bne	6c58 <__mcmp+0x50>
    6c20:	e2822004 	add	r2, r2, #4
    6c24:	e1a0c102 	lsl	ip, r2, #2
    6c28:	e083200c 	add	r2, r3, ip
    6c2c:	e081100c 	add	r1, r1, ip
    6c30:	e2833014 	add	r3, r3, #20
    6c34:	e2822004 	add	r2, r2, #4
    6c38:	e2811004 	add	r1, r1, #4
    6c3c:	e5124004 	ldr	r4, [r2, #-4]
    6c40:	e531c004 	ldr	ip, [r1, #-4]!
    6c44:	e154000c 	cmp	r4, ip
    6c48:	e2422004 	sub	r2, r2, #4
    6c4c:	1a000003 	bne	6c60 <__mcmp+0x58>
    6c50:	e1530002 	cmp	r3, r2
    6c54:	3afffff8 	bcc	6c3c <__mcmp+0x34>
    6c58:	e8bd0010 	pop	{r4}
    6c5c:	e12fff1e 	bx	lr
    6c60:	33e00000 	mvncc	r0, #0
    6c64:	23a00001 	movcs	r0, #1
    6c68:	eafffffa 	b	6c58 <__mcmp+0x50>

00006c6c <__mdiff>:
    6c6c:	e92d47f0 	push	{r4, r5, r6, r7, r8, r9, sl, lr}
    6c70:	e1a04001 	mov	r4, r1
    6c74:	e1a06000 	mov	r6, r0
    6c78:	e1a01002 	mov	r1, r2
    6c7c:	e1a00004 	mov	r0, r4
    6c80:	e1a05002 	mov	r5, r2
    6c84:	ebffffdf 	bl	6c08 <__mcmp>
    6c88:	e2507000 	subs	r7, r0, #0
    6c8c:	0a000043 	beq	6da0 <__mdiff+0x134>
    6c90:	b1a03004 	movlt	r3, r4
    6c94:	b1a04005 	movlt	r4, r5
    6c98:	e1a00006 	mov	r0, r6
    6c9c:	e5941004 	ldr	r1, [r4, #4]
    6ca0:	b1a05003 	movlt	r5, r3
    6ca4:	a3a07000 	movge	r7, #0
    6ca8:	b3a07001 	movlt	r7, #1
    6cac:	ebfffe01 	bl	64b8 <_Balloc>
    6cb0:	e5946010 	ldr	r6, [r4, #16]
    6cb4:	e5958010 	ldr	r8, [r5, #16]
    6cb8:	e0843106 	add	r3, r4, r6, lsl #2
    6cbc:	e0858108 	add	r8, r5, r8, lsl #2
    6cc0:	e580700c 	str	r7, [r0, #12]
    6cc4:	e2888014 	add	r8, r8, #20
    6cc8:	e2837014 	add	r7, r3, #20
    6ccc:	e2844014 	add	r4, r4, #20
    6cd0:	e2855014 	add	r5, r5, #20
    6cd4:	e280a014 	add	sl, r0, #20
    6cd8:	e3a0c000 	mov	ip, #0
    6cdc:	e4942004 	ldr	r2, [r4], #4
    6ce0:	e4951004 	ldr	r1, [r5], #4
    6ce4:	e1a03802 	lsl	r3, r2, #16
    6ce8:	e08cc823 	add	ip, ip, r3, lsr #16
    6cec:	e1a09801 	lsl	r9, r1, #16
    6cf0:	e04c3829 	sub	r3, ip, r9, lsr #16
    6cf4:	e1a0c821 	lsr	ip, r1, #16
    6cf8:	e06cc822 	rsb	ip, ip, r2, lsr #16
    6cfc:	e1a01803 	lsl	r1, r3, #16
    6d00:	e08cc843 	add	ip, ip, r3, asr #16
    6d04:	e1a01821 	lsr	r1, r1, #16
    6d08:	e1a0300a 	mov	r3, sl
    6d0c:	e181180c 	orr	r1, r1, ip, lsl #16
    6d10:	e4831004 	str	r1, [r3], #4
    6d14:	e1580005 	cmp	r8, r5
    6d18:	e1a02004 	mov	r2, r4
    6d1c:	e1a0c84c 	asr	ip, ip, #16
    6d20:	e1a0a003 	mov	sl, r3
    6d24:	8affffec 	bhi	6cdc <__mdiff+0x70>
    6d28:	e1570004 	cmp	r7, r4
    6d2c:	e1a05003 	mov	r5, r3
    6d30:	9a000010 	bls	6d78 <__mdiff+0x10c>
    6d34:	e4921004 	ldr	r1, [r2], #4
    6d38:	e1a08801 	lsl	r8, r1, #16
    6d3c:	e08cc828 	add	ip, ip, r8, lsr #16
    6d40:	e1a08821 	lsr	r8, r1, #16
    6d44:	e1a0180c 	lsl	r1, ip, #16
    6d48:	e1a01821 	lsr	r1, r1, #16
    6d4c:	e088c84c 	add	ip, r8, ip, asr #16
    6d50:	e181180c 	orr	r1, r1, ip, lsl #16
    6d54:	e1570002 	cmp	r7, r2
    6d58:	e1a0c84c 	asr	ip, ip, #16
    6d5c:	e4831004 	str	r1, [r3], #4
    6d60:	8afffff3 	bhi	6d34 <__mdiff+0xc8>
    6d64:	e1e03004 	mvn	r3, r4
    6d68:	e0833007 	add	r3, r3, r7
    6d6c:	e3c33003 	bic	r3, r3, #3
    6d70:	e2833004 	add	r3, r3, #4
    6d74:	e0853003 	add	r3, r5, r3
    6d78:	e3510000 	cmp	r1, #0
    6d7c:	1a000004 	bne	6d94 <__mdiff+0x128>
    6d80:	e2433004 	sub	r3, r3, #4
    6d84:	e5332004 	ldr	r2, [r3, #-4]!
    6d88:	e3520000 	cmp	r2, #0
    6d8c:	e2466001 	sub	r6, r6, #1
    6d90:	0afffffb 	beq	6d84 <__mdiff+0x118>
    6d94:	e5806010 	str	r6, [r0, #16]
    6d98:	e8bd47f0 	pop	{r4, r5, r6, r7, r8, r9, sl, lr}
    6d9c:	e12fff1e 	bx	lr
    6da0:	e1a00006 	mov	r0, r6
    6da4:	e1a01007 	mov	r1, r7
    6da8:	ebfffdc2 	bl	64b8 <_Balloc>
    6dac:	e3a03001 	mov	r3, #1
    6db0:	e5803010 	str	r3, [r0, #16]
    6db4:	e5807014 	str	r7, [r0, #20]
    6db8:	eafffff6 	b	6d98 <__mdiff+0x12c>

00006dbc <__ulp>:
    6dbc:	e59f3050 	ldr	r3, [pc, #80]	; 6e14 <__ulp+0x58>
    6dc0:	e0013003 	and	r3, r1, r3
    6dc4:	e243350d 	sub	r3, r3, #54525952	; 0x3400000
    6dc8:	e3530000 	cmp	r3, #0
    6dcc:	c1a01003 	movgt	r1, r3
    6dd0:	c3a00000 	movgt	r0, #0
    6dd4:	c12fff1e 	bxgt	lr
    6dd8:	e2633000 	rsb	r3, r3, #0
    6ddc:	e1a03a43 	asr	r3, r3, #20
    6de0:	e3530013 	cmp	r3, #19
    6de4:	d3a02702 	movle	r2, #524288	; 0x80000
    6de8:	d1a01352 	asrle	r1, r2, r3
    6dec:	d3a00000 	movle	r0, #0
    6df0:	d12fff1e 	bxle	lr
    6df4:	e3530032 	cmp	r3, #50	; 0x32
    6df8:	d2633033 	rsble	r3, r3, #51	; 0x33
    6dfc:	d3a02001 	movle	r2, #1
    6e00:	d1a03312 	lslle	r3, r2, r3
    6e04:	c3a03001 	movgt	r3, #1
    6e08:	e3a01000 	mov	r1, #0
    6e0c:	e1a00003 	mov	r0, r3
    6e10:	e12fff1e 	bx	lr
    6e14:	7ff00000 	.word	0x7ff00000

00006e18 <__b2d>:
    6e18:	e92d40f8 	push	{r3, r4, r5, r6, r7, lr}
    6e1c:	e5905010 	ldr	r5, [r0, #16]
    6e20:	e2855004 	add	r5, r5, #4
    6e24:	e7904105 	ldr	r4, [r0, r5, lsl #2]
    6e28:	e1a03000 	mov	r3, r0
    6e2c:	e1a00004 	mov	r0, r4
    6e30:	e0835105 	add	r5, r3, r5, lsl #2
    6e34:	e1a07001 	mov	r7, r1
    6e38:	e2836014 	add	r6, r3, #20
    6e3c:	ebfffe36 	bl	671c <__hi0bits>
    6e40:	e2603020 	rsb	r3, r0, #32
    6e44:	e350000a 	cmp	r0, #10
    6e48:	e1a02005 	mov	r2, r5
    6e4c:	e5873000 	str	r3, [r7]
    6e50:	ca00000d 	bgt	6e8c <__b2d+0x74>
    6e54:	e260100b 	rsb	r1, r0, #11
    6e58:	e1a0c134 	lsr	ip, r4, r1
    6e5c:	e1560005 	cmp	r6, r5
    6e60:	e38cc5ff 	orr	ip, ip, #1069547520	; 0x3fc00000
    6e64:	e38c3603 	orr	r3, ip, #3145728	; 0x300000
    6e68:	3515c004 	ldrcc	ip, [r5, #-4]
    6e6c:	31a0113c 	lsrcc	r1, ip, r1
    6e70:	23a01000 	movcs	r1, #0
    6e74:	e2800015 	add	r0, r0, #21
    6e78:	e1812014 	orr	r2, r1, r4, lsl r0
    6e7c:	e1a00002 	mov	r0, r2
    6e80:	e1a01003 	mov	r1, r3
    6e84:	e8bd40f8 	pop	{r3, r4, r5, r6, r7, lr}
    6e88:	e12fff1e 	bx	lr
    6e8c:	e1560005 	cmp	r6, r5
    6e90:	35121004 	ldrcc	r1, [r2, #-4]
    6e94:	23a01000 	movcs	r1, #0
    6e98:	32455004 	subcc	r5, r5, #4
    6e9c:	e250c00b 	subs	ip, r0, #11
    6ea0:	038445ff 	orreq	r4, r4, #1069547520	; 0x3fc00000
    6ea4:	03843603 	orreq	r3, r4, #3145728	; 0x300000
    6ea8:	01a02001 	moveq	r2, r1
    6eac:	0afffff2 	beq	6e7c <__b2d+0x64>
    6eb0:	e1a04c14 	lsl	r4, r4, ip
    6eb4:	e38445ff 	orr	r4, r4, #1069547520	; 0x3fc00000
    6eb8:	e260002b 	rsb	r0, r0, #43	; 0x2b
    6ebc:	e3844603 	orr	r4, r4, #3145728	; 0x300000
    6ec0:	e1550006 	cmp	r5, r6
    6ec4:	e1843031 	orr	r3, r4, r1, lsr r0
    6ec8:	85154004 	ldrhi	r4, [r5, #-4]
    6ecc:	81a00034 	lsrhi	r0, r4, r0
    6ed0:	93a00000 	movls	r0, #0
    6ed4:	e1802c11 	orr	r2, r0, r1, lsl ip
    6ed8:	eaffffe7 	b	6e7c <__b2d+0x64>

00006edc <__d2b>:
    6edc:	e92d45f0 	push	{r4, r5, r6, r7, r8, sl, lr}
    6ee0:	e3a01001 	mov	r1, #1
    6ee4:	e24dd00c 	sub	sp, sp, #12
    6ee8:	e1a05003 	mov	r5, r3
    6eec:	e1a04002 	mov	r4, r2
    6ef0:	e59d7028 	ldr	r7, [sp, #40]	; 0x28
    6ef4:	e59d602c 	ldr	r6, [sp, #44]	; 0x2c
    6ef8:	ebfffd6e 	bl	64b8 <_Balloc>
    6efc:	e3c5a102 	bic	sl, r5, #-2147483648	; 0x80000000
    6f00:	e3c534ff 	bic	r3, r5, #-16777216	; 0xff000000
    6f04:	e3c3360f 	bic	r3, r3, #15728640	; 0xf00000
    6f08:	e1b0aa2a 	lsrs	sl, sl, #20
    6f0c:	e58d3004 	str	r3, [sp, #4]
    6f10:	13833601 	orrne	r3, r3, #1048576	; 0x100000
    6f14:	158d3004 	strne	r3, [sp, #4]
    6f18:	e3540000 	cmp	r4, #0
    6f1c:	e1a08000 	mov	r8, r0
    6f20:	0a000021 	beq	6fac <__d2b+0xd0>
    6f24:	e28d0008 	add	r0, sp, #8
    6f28:	e5204008 	str	r4, [r0, #-8]!
    6f2c:	e1a0000d 	mov	r0, sp
    6f30:	ebfffe0d 	bl	676c <__lo0bits>
    6f34:	e3500000 	cmp	r0, #0
    6f38:	e59d3004 	ldr	r3, [sp, #4]
    6f3c:	159d1000 	ldrne	r1, [sp]
    6f40:	12602020 	rsbne	r2, r0, #32
    6f44:	11812213 	orrne	r2, r1, r3, lsl r2
    6f48:	11a03033 	lsrne	r3, r3, r0
    6f4c:	059d2000 	ldreq	r2, [sp]
    6f50:	15882014 	strne	r2, [r8, #20]
    6f54:	158d3004 	strne	r3, [sp, #4]
    6f58:	05882014 	streq	r2, [r8, #20]
    6f5c:	e3530000 	cmp	r3, #0
    6f60:	03a04001 	moveq	r4, #1
    6f64:	13a04002 	movne	r4, #2
    6f68:	e35a0000 	cmp	sl, #0
    6f6c:	e5883018 	str	r3, [r8, #24]
    6f70:	e5884010 	str	r4, [r8, #16]
    6f74:	1a000015 	bne	6fd0 <__d2b+0xf4>
    6f78:	e2400e43 	sub	r0, r0, #1072	; 0x430
    6f7c:	e2403002 	sub	r3, r0, #2
    6f80:	e0882104 	add	r2, r8, r4, lsl #2
    6f84:	e5920010 	ldr	r0, [r2, #16]
    6f88:	e5873000 	str	r3, [r7]
    6f8c:	ebfffde2 	bl	671c <__hi0bits>
    6f90:	e1a04284 	lsl	r4, r4, #5
    6f94:	e0604004 	rsb	r4, r0, r4
    6f98:	e5864000 	str	r4, [r6]
    6f9c:	e1a00008 	mov	r0, r8
    6fa0:	e28dd00c 	add	sp, sp, #12
    6fa4:	e8bd45f0 	pop	{r4, r5, r6, r7, r8, sl, lr}
    6fa8:	e12fff1e 	bx	lr
    6fac:	e28d0004 	add	r0, sp, #4
    6fb0:	ebfffded 	bl	676c <__lo0bits>
    6fb4:	e59d3004 	ldr	r3, [sp, #4]
    6fb8:	e3a04001 	mov	r4, #1
    6fbc:	e35a0000 	cmp	sl, #0
    6fc0:	e5883014 	str	r3, [r8, #20]
    6fc4:	e5884010 	str	r4, [r8, #16]
    6fc8:	e2800020 	add	r0, r0, #32
    6fcc:	0affffe9 	beq	6f78 <__d2b+0x9c>
    6fd0:	e24aae43 	sub	sl, sl, #1072	; 0x430
    6fd4:	e24aa003 	sub	sl, sl, #3
    6fd8:	e08aa000 	add	sl, sl, r0
    6fdc:	e2600035 	rsb	r0, r0, #53	; 0x35
    6fe0:	e587a000 	str	sl, [r7]
    6fe4:	e5860000 	str	r0, [r6]
    6fe8:	eaffffeb 	b	6f9c <__d2b+0xc0>

00006fec <__ratio>:
    6fec:	e92d40f0 	push	{r4, r5, r6, r7, lr}
    6ff0:	e24dd00c 	sub	sp, sp, #12
    6ff4:	e1a04001 	mov	r4, r1
    6ff8:	e1a0100d 	mov	r1, sp
    6ffc:	e1a05000 	mov	r5, r0
    7000:	ebffff84 	bl	6e18 <__b2d>
    7004:	e1a07001 	mov	r7, r1
    7008:	e1a06000 	mov	r6, r0
    700c:	e28d1004 	add	r1, sp, #4
    7010:	e1a00004 	mov	r0, r4
    7014:	ebffff7f 	bl	6e18 <__b2d>
    7018:	e595c010 	ldr	ip, [r5, #16]
    701c:	e1a03001 	mov	r3, r1
    7020:	e5941010 	ldr	r1, [r4, #16]
    7024:	e1a02000 	mov	r2, r0
    7028:	e061100c 	rsb	r1, r1, ip
    702c:	e59d0004 	ldr	r0, [sp, #4]
    7030:	e59dc000 	ldr	ip, [sp]
    7034:	e1a01281 	lsl	r1, r1, #5
    7038:	e060c00c 	rsb	ip, r0, ip
    703c:	e08cc001 	add	ip, ip, r1
    7040:	e35c0000 	cmp	ip, #0
    7044:	c1a0ca0c 	lslgt	ip, ip, #20
    7048:	c08c1007 	addgt	r1, ip, r7
    704c:	c1a07001 	movgt	r7, r1
    7050:	d043ca0c 	suble	ip, r3, ip, lsl #20
    7054:	d1a0300c 	movle	r3, ip
    7058:	e1a00006 	mov	r0, r6
    705c:	e1a01007 	mov	r1, r7
    7060:	eb000b62 	bl	9df0 <__aeabi_ddiv>
    7064:	e28dd00c 	add	sp, sp, #12
    7068:	e8bd40f0 	pop	{r4, r5, r6, r7, lr}
    706c:	e12fff1e 	bx	lr

00007070 <_mprec_log10>:
    7070:	e3500017 	cmp	r0, #23
    7074:	e92d4010 	push	{r4, lr}
    7078:	c59f1038 	ldrgt	r1, [pc, #56]	; 70b8 <_mprec_log10+0x48>
    707c:	e1a04000 	mov	r4, r0
    7080:	c3a00000 	movgt	r0, #0
    7084:	da000006 	ble	70a4 <_mprec_log10+0x34>
    7088:	e3a02000 	mov	r2, #0
    708c:	e59f3028 	ldr	r3, [pc, #40]	; 70bc <_mprec_log10+0x4c>
    7090:	eb000ab2 	bl	9b60 <__aeabi_dmul>
    7094:	e2544001 	subs	r4, r4, #1
    7098:	1afffffa 	bne	7088 <_mprec_log10+0x18>
    709c:	e8bd4010 	pop	{r4, lr}
    70a0:	e12fff1e 	bx	lr
    70a4:	e59f3014 	ldr	r3, [pc, #20]	; 70c0 <_mprec_log10+0x50>
    70a8:	e0834180 	add	r4, r3, r0, lsl #3
    70ac:	e2841010 	add	r1, r4, #16
    70b0:	e8910003 	ldm	r1, {r0, r1}
    70b4:	eafffff8 	b	709c <_mprec_log10+0x2c>
    70b8:	3ff00000 	.word	0x3ff00000
    70bc:	40240000 	.word	0x40240000
    70c0:	0000aaf0 	.word	0x0000aaf0

000070c4 <__copybits>:
    70c4:	e5923010 	ldr	r3, [r2, #16]
    70c8:	e2411001 	sub	r1, r1, #1
    70cc:	e0823103 	add	r3, r2, r3, lsl #2
    70d0:	e1a0c2c1 	asr	ip, r1, #5
    70d4:	e2833014 	add	r3, r3, #20
    70d8:	e2821014 	add	r1, r2, #20
    70dc:	e28cc001 	add	ip, ip, #1
    70e0:	e1510003 	cmp	r1, r3
    70e4:	e92d0030 	push	{r4, r5}
    70e8:	e080c10c 	add	ip, r0, ip, lsl #2
    70ec:	2a000009 	bcs	7118 <__copybits+0x54>
    70f0:	e1a04000 	mov	r4, r0
    70f4:	e4915004 	ldr	r5, [r1], #4
    70f8:	e1530001 	cmp	r3, r1
    70fc:	e4845004 	str	r5, [r4], #4
    7100:	8afffffb 	bhi	70f4 <__copybits+0x30>
    7104:	e0623003 	rsb	r3, r2, r3
    7108:	e2433015 	sub	r3, r3, #21
    710c:	e3c33003 	bic	r3, r3, #3
    7110:	e2833004 	add	r3, r3, #4
    7114:	e0800003 	add	r0, r0, r3
    7118:	e15c0000 	cmp	ip, r0
    711c:	9a000003 	bls	7130 <__copybits+0x6c>
    7120:	e3a03000 	mov	r3, #0
    7124:	e4803004 	str	r3, [r0], #4
    7128:	e15c0000 	cmp	ip, r0
    712c:	8afffffc 	bhi	7124 <__copybits+0x60>
    7130:	e8bd0030 	pop	{r4, r5}
    7134:	e12fff1e 	bx	lr

00007138 <__any_on>:
    7138:	e5902010 	ldr	r2, [r0, #16]
    713c:	e1a032c1 	asr	r3, r1, #5
    7140:	e1520003 	cmp	r2, r3
    7144:	ba000001 	blt	7150 <__any_on+0x18>
    7148:	e1a02003 	mov	r2, r3
    714c:	ca000013 	bgt	71a0 <__any_on+0x68>
    7150:	e2822004 	add	r2, r2, #4
    7154:	e0803102 	add	r3, r0, r2, lsl #2
    7158:	e2801014 	add	r1, r0, #20
    715c:	e283c004 	add	ip, r3, #4
    7160:	e151000c 	cmp	r1, ip
    7164:	2a000016 	bcs	71c4 <__any_on+0x8c>
    7168:	e7902102 	ldr	r2, [r0, r2, lsl #2]
    716c:	e3520000 	cmp	r2, #0
    7170:	1a000011 	bne	71bc <__any_on+0x84>
    7174:	e0611003 	rsb	r1, r1, r3
    7178:	e2811003 	add	r1, r1, #3
    717c:	e3c11003 	bic	r1, r1, #3
    7180:	e0611003 	rsb	r1, r1, r3
    7184:	e1530001 	cmp	r3, r1
    7188:	0a00000d 	beq	71c4 <__any_on+0x8c>
    718c:	e5332004 	ldr	r2, [r3, #-4]!
    7190:	e3520000 	cmp	r2, #0
    7194:	0afffffa 	beq	7184 <__any_on+0x4c>
    7198:	e3a00001 	mov	r0, #1
    719c:	e12fff1e 	bx	lr
    71a0:	e211101f 	ands	r1, r1, #31
    71a4:	0affffe9 	beq	7150 <__any_on+0x18>
    71a8:	e0803103 	add	r3, r0, r3, lsl #2
    71ac:	e5933014 	ldr	r3, [r3, #20]
    71b0:	e1a0c133 	lsr	ip, r3, r1
    71b4:	e153011c 	cmp	r3, ip, lsl r1
    71b8:	0affffe4 	beq	7150 <__any_on+0x18>
    71bc:	e3a00001 	mov	r0, #1
    71c0:	e12fff1e 	bx	lr
    71c4:	e3a00000 	mov	r0, #0
    71c8:	e12fff1e 	bx	lr

000071cc <__fpclassifyd>:
    71cc:	e1a03001 	mov	r3, r1
    71d0:	e1901003 	orrs	r1, r0, r3
    71d4:	1a000001 	bne	71e0 <__fpclassifyd+0x14>
    71d8:	e3a00002 	mov	r0, #2
    71dc:	e12fff1e 	bx	lr
    71e0:	e2701001 	rsbs	r1, r0, #1
    71e4:	33a01000 	movcc	r1, #0
    71e8:	e3530102 	cmp	r3, #-2147483648	; 0x80000000
    71ec:	03500000 	cmpeq	r0, #0
    71f0:	0afffff8 	beq	71d8 <__fpclassifyd+0xc>
    71f4:	e283c47f 	add	ip, r3, #2130706432	; 0x7f000000
    71f8:	e59f2048 	ldr	r2, [pc, #72]	; 7248 <__fpclassifyd+0x7c>
    71fc:	e2430601 	sub	r0, r3, #1048576	; 0x100000
    7200:	e28cc60f 	add	ip, ip, #15728640	; 0xf00000
    7204:	e1500002 	cmp	r0, r2
    7208:	815c0002 	cmphi	ip, r2
    720c:	93a00004 	movls	r0, #4
    7210:	912fff1e 	bxls	lr
    7214:	e2832102 	add	r2, r3, #-2147483648	; 0x80000000
    7218:	e3530601 	cmp	r3, #1048576	; 0x100000
    721c:	23520601 	cmpcs	r2, #1048576	; 0x100000
    7220:	2a000001 	bcs	722c <__fpclassifyd+0x60>
    7224:	e3a00003 	mov	r0, #3
    7228:	e12fff1e 	bx	lr
    722c:	e59f2018 	ldr	r2, [pc, #24]	; 724c <__fpclassifyd+0x80>
    7230:	e3730601 	cmn	r3, #1048576	; 0x100000
    7234:	11530002 	cmpne	r3, r2
    7238:	13a03000 	movne	r3, #0
    723c:	03a03001 	moveq	r3, #1
    7240:	e0010003 	and	r0, r1, r3
    7244:	e12fff1e 	bx	lr
    7248:	7fdfffff 	.word	0x7fdfffff
    724c:	7ff00000 	.word	0x7ff00000

00007250 <_sbrk_r>:
    7250:	e92d4038 	push	{r3, r4, r5, lr}
    7254:	e59f4030 	ldr	r4, [pc, #48]	; 728c <_sbrk_r+0x3c>
    7258:	e3a03000 	mov	r3, #0
    725c:	e1a05000 	mov	r5, r0
    7260:	e1a00001 	mov	r0, r1
    7264:	e5843000 	str	r3, [r4]
    7268:	eb0013ce 	bl	c1a8 <_sbrk>
    726c:	e3700001 	cmn	r0, #1
    7270:	0a000001 	beq	727c <_sbrk_r+0x2c>
    7274:	e8bd4038 	pop	{r3, r4, r5, lr}
    7278:	e12fff1e 	bx	lr
    727c:	e5943000 	ldr	r3, [r4]
    7280:	e3530000 	cmp	r3, #0
    7284:	15853000 	strne	r3, [r5]
    7288:	eafffff9 	b	7274 <_sbrk_r+0x24>
    728c:	40000930 	.word	0x40000930

00007290 <__sread>:
    7290:	e92d4010 	push	{r4, lr}
    7294:	e1a04001 	mov	r4, r1
    7298:	e1d110fe 	ldrsh	r1, [r1, #14]
    729c:	eb000806 	bl	92bc <_read_r>
    72a0:	e3500000 	cmp	r0, #0
    72a4:	a5943050 	ldrge	r3, [r4, #80]	; 0x50
    72a8:	b1d430bc 	ldrhlt	r3, [r4, #12]
    72ac:	a0833000 	addge	r3, r3, r0
    72b0:	b3c33a01 	biclt	r3, r3, #4096	; 0x1000
    72b4:	a5843050 	strge	r3, [r4, #80]	; 0x50
    72b8:	b1c430bc 	strhlt	r3, [r4, #12]
    72bc:	e8bd4010 	pop	{r4, lr}
    72c0:	e12fff1e 	bx	lr

000072c4 <__seofread>:
    72c4:	e3a00000 	mov	r0, #0
    72c8:	e12fff1e 	bx	lr

000072cc <__swrite>:
    72cc:	e92d40f8 	push	{r3, r4, r5, r6, r7, lr}
    72d0:	e1a04001 	mov	r4, r1
    72d4:	e1d110bc 	ldrh	r1, [r1, #12]
    72d8:	e3110c01 	tst	r1, #256	; 0x100
    72dc:	e1a07000 	mov	r7, r0
    72e0:	e1a06002 	mov	r6, r2
    72e4:	e1a05003 	mov	r5, r3
    72e8:	0a000004 	beq	7300 <__swrite+0x34>
    72ec:	e1d410fe 	ldrsh	r1, [r4, #14]
    72f0:	e3a02000 	mov	r2, #0
    72f4:	e3a03002 	mov	r3, #2
    72f8:	eb000792 	bl	9148 <_lseek_r>
    72fc:	e1d410bc 	ldrh	r1, [r4, #12]
    7300:	e3c11a01 	bic	r1, r1, #4096	; 0x1000
    7304:	e1c410bc 	strh	r1, [r4, #12]
    7308:	e1a00007 	mov	r0, r7
    730c:	e1d410fe 	ldrsh	r1, [r4, #14]
    7310:	e1a02006 	mov	r2, r6
    7314:	e1a03005 	mov	r3, r5
    7318:	eb00054f 	bl	885c <_write_r>
    731c:	e8bd40f8 	pop	{r3, r4, r5, r6, r7, lr}
    7320:	e12fff1e 	bx	lr

00007324 <__sseek>:
    7324:	e92d4010 	push	{r4, lr}
    7328:	e1a04001 	mov	r4, r1
    732c:	e1d110fe 	ldrsh	r1, [r1, #14]
    7330:	eb000784 	bl	9148 <_lseek_r>
    7334:	e1d430bc 	ldrh	r3, [r4, #12]
    7338:	e3700001 	cmn	r0, #1
    733c:	03c33a01 	biceq	r3, r3, #4096	; 0x1000
    7340:	13833a01 	orrne	r3, r3, #4096	; 0x1000
    7344:	01c430bc 	strheq	r3, [r4, #12]
    7348:	11c430bc 	strhne	r3, [r4, #12]
    734c:	15840050 	strne	r0, [r4, #80]	; 0x50
    7350:	e8bd4010 	pop	{r4, lr}
    7354:	e12fff1e 	bx	lr

00007358 <__sclose>:
    7358:	e92d4008 	push	{r3, lr}
    735c:	e1d110fe 	ldrsh	r1, [r1, #14]
    7360:	eb000572 	bl	8930 <_close_r>
    7364:	e8bd4008 	pop	{r3, lr}
    7368:	e12fff1e 	bx	lr

0000736c <strcmp>:
    736c:	e0202001 	eor	r2, r0, r1
    7370:	e3120003 	tst	r2, #3
    7374:	1a000021 	bne	7400 <strcmp_unaligned>
    7378:	e2102003 	ands	r2, r0, #3
    737c:	e3c00003 	bic	r0, r0, #3
    7380:	e3c11003 	bic	r1, r1, #3
    7384:	e490c004 	ldr	ip, [r0], #4
    7388:	04913004 	ldreq	r3, [r1], #4
    738c:	0a000006 	beq	73ac <strcmp+0x40>
    7390:	e2222003 	eor	r2, r2, #3
    7394:	e1a02182 	lsl	r2, r2, #3
    7398:	e3e034ff 	mvn	r3, #-16777216	; 0xff000000
    739c:	e1a02233 	lsr	r2, r3, r2
    73a0:	e4913004 	ldr	r3, [r1], #4
    73a4:	e18cc002 	orr	ip, ip, r2
    73a8:	e1833002 	orr	r3, r3, r2
    73ac:	e52d4004 	push	{r4}		; (str r4, [sp, #-4]!)
    73b0:	e3a04001 	mov	r4, #1
    73b4:	e1844404 	orr	r4, r4, r4, lsl #8
    73b8:	e1844804 	orr	r4, r4, r4, lsl #16
    73bc:	e04c2004 	sub	r2, ip, r4
    73c0:	e15c0003 	cmp	ip, r3
    73c4:	01c2200c 	biceq	r2, r2, ip
    73c8:	01120384 	tsteq	r2, r4, lsl #7
    73cc:	0490c004 	ldreq	ip, [r0], #4
    73d0:	04913004 	ldreq	r3, [r1], #4
    73d4:	0afffff8 	beq	73bc <strcmp+0x50>
    73d8:	e1a00c0c 	lsl	r0, ip, #24
    73dc:	e1a0c42c 	lsr	ip, ip, #8
    73e0:	e3500001 	cmp	r0, #1
    73e4:	21500c03 	cmpcs	r0, r3, lsl #24
    73e8:	01a03423 	lsreq	r3, r3, #8
    73ec:	0afffff9 	beq	73d8 <strcmp+0x6c>
    73f0:	e20330ff 	and	r3, r3, #255	; 0xff
    73f4:	e0630c20 	rsb	r0, r3, r0, lsr #24
    73f8:	e49d4004 	pop	{r4}		; (ldr r4, [sp], #4)
    73fc:	e12fff1e 	bx	lr

00007400 <strcmp_unaligned>:
    7400:	e3100003 	tst	r0, #3
    7404:	0a000006 	beq	7424 <strcmp_unaligned+0x24>
    7408:	e4d02001 	ldrb	r2, [r0], #1
    740c:	e4d13001 	ldrb	r3, [r1], #1
    7410:	e3520001 	cmp	r2, #1
    7414:	21520003 	cmpcs	r2, r3
    7418:	0afffff8 	beq	7400 <strcmp_unaligned>
    741c:	e0420003 	sub	r0, r2, r3
    7420:	e12fff1e 	bx	lr
    7424:	e52d5004 	push	{r5}		; (str r5, [sp, #-4]!)
    7428:	e52d4004 	push	{r4}		; (str r4, [sp, #-4]!)
    742c:	e3a02001 	mov	r2, #1
    7430:	e1822402 	orr	r2, r2, r2, lsl #8
    7434:	e1822802 	orr	r2, r2, r2, lsl #16
    7438:	e201c003 	and	ip, r1, #3
    743c:	e3c11003 	bic	r1, r1, #3
    7440:	e4904004 	ldr	r4, [r0], #4
    7444:	e4915004 	ldr	r5, [r1], #4
    7448:	e35c0002 	cmp	ip, #2
    744c:	0a000017 	beq	74b0 <strcmp_unaligned+0xb0>
    7450:	8a00002d 	bhi	750c <strcmp_unaligned+0x10c>
    7454:	e3c4c4ff 	bic	ip, r4, #-16777216	; 0xff000000
    7458:	e15c0425 	cmp	ip, r5, lsr #8
    745c:	e0443002 	sub	r3, r4, r2
    7460:	e1c33004 	bic	r3, r3, r4
    7464:	1a000007 	bne	7488 <strcmp_unaligned+0x88>
    7468:	e0133382 	ands	r3, r3, r2, lsl #7
    746c:	04915004 	ldreq	r5, [r1], #4
    7470:	1a000006 	bne	7490 <strcmp_unaligned+0x90>
    7474:	e02cc004 	eor	ip, ip, r4
    7478:	e15c0c05 	cmp	ip, r5, lsl #24
    747c:	1a000008 	bne	74a4 <strcmp_unaligned+0xa4>
    7480:	e4904004 	ldr	r4, [r0], #4
    7484:	eafffff2 	b	7454 <strcmp_unaligned+0x54>
    7488:	e1a05425 	lsr	r5, r5, #8
    748c:	ea000037 	b	7570 <strcmp_unaligned+0x170>
    7490:	e3d334ff 	bics	r3, r3, #-16777216	; 0xff000000
    7494:	1a000031 	bne	7560 <strcmp_unaligned+0x160>
    7498:	e5d15000 	ldrb	r5, [r1]
    749c:	e1a0cc24 	lsr	ip, r4, #24
    74a0:	ea000032 	b	7570 <strcmp_unaligned+0x170>
    74a4:	e1a0cc24 	lsr	ip, r4, #24
    74a8:	e20550ff 	and	r5, r5, #255	; 0xff
    74ac:	ea00002f 	b	7570 <strcmp_unaligned+0x170>
    74b0:	e1a0c804 	lsl	ip, r4, #16
    74b4:	e0443002 	sub	r3, r4, r2
    74b8:	e1a0c82c 	lsr	ip, ip, #16
    74bc:	e1c33004 	bic	r3, r3, r4
    74c0:	e15c0825 	cmp	ip, r5, lsr #16
    74c4:	1a00000e 	bne	7504 <strcmp_unaligned+0x104>
    74c8:	e0133382 	ands	r3, r3, r2, lsl #7
    74cc:	04915004 	ldreq	r5, [r1], #4
    74d0:	1a000004 	bne	74e8 <strcmp_unaligned+0xe8>
    74d4:	e02cc004 	eor	ip, ip, r4
    74d8:	e15c0805 	cmp	ip, r5, lsl #16
    74dc:	1a000006 	bne	74fc <strcmp_unaligned+0xfc>
    74e0:	e4904004 	ldr	r4, [r0], #4
    74e4:	eafffff1 	b	74b0 <strcmp_unaligned+0xb0>
    74e8:	e1b03803 	lsls	r3, r3, #16
    74ec:	1a00001b 	bne	7560 <strcmp_unaligned+0x160>
    74f0:	e1d150b0 	ldrh	r5, [r1]
    74f4:	e1a0c824 	lsr	ip, r4, #16
    74f8:	ea00001c 	b	7570 <strcmp_unaligned+0x170>
    74fc:	e1a05805 	lsl	r5, r5, #16
    7500:	e1a0c824 	lsr	ip, r4, #16
    7504:	e1a05825 	lsr	r5, r5, #16
    7508:	ea000018 	b	7570 <strcmp_unaligned+0x170>
    750c:	e204c0ff 	and	ip, r4, #255	; 0xff
    7510:	e15c0c25 	cmp	ip, r5, lsr #24
    7514:	e0443002 	sub	r3, r4, r2
    7518:	e1c33004 	bic	r3, r3, r4
    751c:	1a000007 	bne	7540 <strcmp_unaligned+0x140>
    7520:	e0133382 	ands	r3, r3, r2, lsl #7
    7524:	04915004 	ldreq	r5, [r1], #4
    7528:	1a000006 	bne	7548 <strcmp_unaligned+0x148>
    752c:	e02cc004 	eor	ip, ip, r4
    7530:	e15c0405 	cmp	ip, r5, lsl #8
    7534:	1a000006 	bne	7554 <strcmp_unaligned+0x154>
    7538:	e4904004 	ldr	r4, [r0], #4
    753c:	eafffff2 	b	750c <strcmp_unaligned+0x10c>
    7540:	e1a05c25 	lsr	r5, r5, #24
    7544:	ea000009 	b	7570 <strcmp_unaligned+0x170>
    7548:	e31400ff 	tst	r4, #255	; 0xff
    754c:	0a000003 	beq	7560 <strcmp_unaligned+0x160>
    7550:	e4915004 	ldr	r5, [r1], #4
    7554:	e1a0c424 	lsr	ip, r4, #8
    7558:	e3c554ff 	bic	r5, r5, #-16777216	; 0xff000000
    755c:	ea000003 	b	7570 <strcmp_unaligned+0x170>
    7560:	e3a00000 	mov	r0, #0
    7564:	e49d4004 	pop	{r4}		; (ldr r4, [sp], #4)
    7568:	e49d5004 	pop	{r5}		; (ldr r5, [sp], #4)
    756c:	e12fff1e 	bx	lr
    7570:	e20c20ff 	and	r2, ip, #255	; 0xff
    7574:	e20500ff 	and	r0, r5, #255	; 0xff
    7578:	e3500001 	cmp	r0, #1
    757c:	21500002 	cmpcs	r0, r2
    7580:	01a0c42c 	lsreq	ip, ip, #8
    7584:	01a05425 	lsreq	r5, r5, #8
    7588:	0afffff8 	beq	7570 <strcmp_unaligned+0x170>
    758c:	e0420000 	sub	r0, r2, r0
    7590:	e49d4004 	pop	{r4}		; (ldr r4, [sp], #4)
    7594:	e49d5004 	pop	{r5}		; (ldr r5, [sp], #4)
    7598:	e12fff1e 	bx	lr

0000759c <strlen>:
    759c:	e3c01003 	bic	r1, r0, #3
    75a0:	e2100003 	ands	r0, r0, #3
    75a4:	e2600000 	rsb	r0, r0, #0
    75a8:	e4913004 	ldr	r3, [r1], #4
    75ac:	e280c004 	add	ip, r0, #4
    75b0:	e1a0c18c 	lsl	ip, ip, #3
    75b4:	e3e02000 	mvn	r2, #0
    75b8:	11833c32 	orrne	r3, r3, r2, lsr ip
    75bc:	e3a0c001 	mov	ip, #1
    75c0:	e18cc40c 	orr	ip, ip, ip, lsl #8
    75c4:	e18cc80c 	orr	ip, ip, ip, lsl #16
    75c8:	e043200c 	sub	r2, r3, ip
    75cc:	e1c22003 	bic	r2, r2, r3
    75d0:	e012238c 	ands	r2, r2, ip, lsl #7
    75d4:	04913004 	ldreq	r3, [r1], #4
    75d8:	02800004 	addeq	r0, r0, #4
    75dc:	0afffff9 	beq	75c8 <strlen+0x2c>
    75e0:	e31300ff 	tst	r3, #255	; 0xff
    75e4:	12800001 	addne	r0, r0, #1
    75e8:	13130cff 	tstne	r3, #65280	; 0xff00
    75ec:	12800001 	addne	r0, r0, #1
    75f0:	131308ff 	tstne	r3, #16711680	; 0xff0000
    75f4:	12800001 	addne	r0, r0, #1
    75f8:	e12fff1e 	bx	lr

000075fc <__sprint_r>:
    75fc:	e5923008 	ldr	r3, [r2, #8]
    7600:	e3530000 	cmp	r3, #0
    7604:	e92d47f0 	push	{r4, r5, r6, r7, r8, r9, sl, lr}
    7608:	e1a08000 	mov	r8, r0
    760c:	e1a0a002 	mov	sl, r2
    7610:	e1a07001 	mov	r7, r1
    7614:	05823004 	streq	r3, [r2, #4]
    7618:	01a00003 	moveq	r0, r3
    761c:	0a000017 	beq	7680 <__sprint_r+0x84>
    7620:	e591c064 	ldr	ip, [r1, #100]	; 0x64
    7624:	e31c0a02 	tst	ip, #8192	; 0x2000
    7628:	0a00001e 	beq	76a8 <__sprint_r+0xac>
    762c:	e5929000 	ldr	r9, [r2]
    7630:	e2899008 	add	r9, r9, #8
    7634:	e5196004 	ldr	r6, [r9, #-4]
    7638:	e1a06126 	lsr	r6, r6, #2
    763c:	e3560000 	cmp	r6, #0
    7640:	e5195008 	ldr	r5, [r9, #-8]
    7644:	da000010 	ble	768c <__sprint_r+0x90>
    7648:	e3a04000 	mov	r4, #0
    764c:	ea000001 	b	7658 <__sprint_r+0x5c>
    7650:	e1560004 	cmp	r6, r4
    7654:	0a00000b 	beq	7688 <__sprint_r+0x8c>
    7658:	e1a00008 	mov	r0, r8
    765c:	e4951004 	ldr	r1, [r5], #4
    7660:	e1a02007 	mov	r2, r7
    7664:	eb000503 	bl	8a78 <_fputwc_r>
    7668:	e3700001 	cmn	r0, #1
    766c:	e2844001 	add	r4, r4, #1
    7670:	1afffff6 	bne	7650 <__sprint_r+0x54>
    7674:	e3a03000 	mov	r3, #0
    7678:	e58a3008 	str	r3, [sl, #8]
    767c:	e58a3004 	str	r3, [sl, #4]
    7680:	e8bd47f0 	pop	{r4, r5, r6, r7, r8, r9, sl, lr}
    7684:	e12fff1e 	bx	lr
    7688:	e59a3008 	ldr	r3, [sl, #8]
    768c:	e0433106 	sub	r3, r3, r6, lsl #2
    7690:	e3530000 	cmp	r3, #0
    7694:	e58a3008 	str	r3, [sl, #8]
    7698:	e2899008 	add	r9, r9, #8
    769c:	1affffe4 	bne	7634 <__sprint_r+0x38>
    76a0:	e1a00003 	mov	r0, r3
    76a4:	eafffff2 	b	7674 <__sprint_r+0x78>
    76a8:	eb00056c 	bl	8c60 <__sfvwrite_r>
    76ac:	e3a03000 	mov	r3, #0
    76b0:	e58a3008 	str	r3, [sl, #8]
    76b4:	e58a3004 	str	r3, [sl, #4]
    76b8:	eafffff0 	b	7680 <__sprint_r+0x84>

000076bc <_vfiprintf_r>:
    76bc:	e92d4ff0 	push	{r4, r5, r6, r7, r8, r9, sl, fp, lr}
    76c0:	e24dde51 	sub	sp, sp, #1296	; 0x510
    76c4:	e24dd00c 	sub	sp, sp, #12
    76c8:	e250b000 	subs	fp, r0, #0
    76cc:	e1a06001 	mov	r6, r1
    76d0:	e1a05002 	mov	r5, r2
    76d4:	e58d301c 	str	r3, [sp, #28]
    76d8:	0a000002 	beq	76e8 <_vfiprintf_r+0x2c>
    76dc:	e59b3038 	ldr	r3, [fp, #56]	; 0x38
    76e0:	e3530000 	cmp	r3, #0
    76e4:	0a0003b4 	beq	85bc <_vfiprintf_r+0xf00>
    76e8:	e1d620bc 	ldrh	r2, [r6, #12]
    76ec:	e3120a02 	tst	r2, #8192	; 0x2000
    76f0:	e1a03002 	mov	r3, r2
    76f4:	1a000005 	bne	7710 <_vfiprintf_r+0x54>
    76f8:	e5963064 	ldr	r3, [r6, #100]	; 0x64
    76fc:	e3822a02 	orr	r2, r2, #8192	; 0x2000
    7700:	e3c33a02 	bic	r3, r3, #8192	; 0x2000
    7704:	e1c620bc 	strh	r2, [r6, #12]
    7708:	e5863064 	str	r3, [r6, #100]	; 0x64
    770c:	e1a03002 	mov	r3, r2
    7710:	e3130008 	tst	r3, #8
    7714:	0a000353 	beq	8468 <_vfiprintf_r+0xdac>
    7718:	e5961010 	ldr	r1, [r6, #16]
    771c:	e3510000 	cmp	r1, #0
    7720:	0a000350 	beq	8468 <_vfiprintf_r+0xdac>
    7724:	e203301a 	and	r3, r3, #26
    7728:	e353000a 	cmp	r3, #10
    772c:	0a000359 	beq	8498 <_vfiprintf_r+0xddc>
    7730:	e28d9c05 	add	r9, sp, #1280	; 0x500
    7734:	e28dcc05 	add	ip, sp, #1280	; 0x500
    7738:	e28cc007 	add	ip, ip, #7
    773c:	e2899008 	add	r9, r9, #8
    7740:	e3a03000 	mov	r3, #0
    7744:	e28d0e4a 	add	r0, sp, #1184	; 0x4a0
    7748:	e58dc004 	str	ip, [sp, #4]
    774c:	e06cc009 	rsb	ip, ip, r9
    7750:	e58d3030 	str	r3, [sp, #48]	; 0x30
    7754:	e58d0508 	str	r0, [sp, #1288]	; 0x508
    7758:	e58d3510 	str	r3, [sp, #1296]	; 0x510
    775c:	e58d350c 	str	r3, [sp, #1292]	; 0x50c
    7760:	e58d3014 	str	r3, [sp, #20]
    7764:	e58dc034 	str	ip, [sp, #52]	; 0x34
    7768:	e1a04000 	mov	r4, r0
    776c:	e1a0a006 	mov	sl, r6
    7770:	e5d53000 	ldrb	r3, [r5]
    7774:	e3530000 	cmp	r3, #0
    7778:	13530025 	cmpne	r3, #37	; 0x25
    777c:	0a0002d8 	beq	82e4 <_vfiprintf_r+0xc28>
    7780:	e1a02005 	mov	r2, r5
    7784:	e1a06005 	mov	r6, r5
    7788:	e5f23001 	ldrb	r3, [r2, #1]!
    778c:	e3530025 	cmp	r3, #37	; 0x25
    7790:	13530000 	cmpne	r3, #0
    7794:	e2866001 	add	r6, r6, #1
    7798:	1afffffa 	bne	7788 <_vfiprintf_r+0xcc>
    779c:	e0567005 	subs	r7, r6, r5
    77a0:	0a00000c 	beq	77d8 <_vfiprintf_r+0x11c>
    77a4:	e59d350c 	ldr	r3, [sp, #1292]	; 0x50c
    77a8:	e59d2510 	ldr	r2, [sp, #1296]	; 0x510
    77ac:	e2833001 	add	r3, r3, #1
    77b0:	e0822007 	add	r2, r2, r7
    77b4:	e3530007 	cmp	r3, #7
    77b8:	e88400a0 	stm	r4, {r5, r7}
    77bc:	e58d2510 	str	r2, [sp, #1296]	; 0x510
    77c0:	e58d350c 	str	r3, [sp, #1292]	; 0x50c
    77c4:	d2844008 	addle	r4, r4, #8
    77c8:	ca00035f 	bgt	854c <_vfiprintf_r+0xe90>
    77cc:	e59d5014 	ldr	r5, [sp, #20]
    77d0:	e0855007 	add	r5, r5, r7
    77d4:	e58d5014 	str	r5, [sp, #20]
    77d8:	e5d63000 	ldrb	r3, [r6]
    77dc:	e3530000 	cmp	r3, #0
    77e0:	0a0003ed 	beq	879c <_vfiprintf_r+0x10e0>
    77e4:	e3a02000 	mov	r2, #0
    77e8:	e3a0c000 	mov	ip, #0
    77ec:	e5cdc517 	strb	ip, [sp, #1303]	; 0x517
    77f0:	e5d63001 	ldrb	r3, [r6, #1]
    77f4:	e58d2018 	str	r2, [sp, #24]
    77f8:	e58d2008 	str	r2, [sp, #8]
    77fc:	e2865001 	add	r5, r6, #1
    7800:	e3e08000 	mvn	r8, #0
    7804:	e2855001 	add	r5, r5, #1
    7808:	e2431020 	sub	r1, r3, #32
    780c:	e3510058 	cmp	r1, #88	; 0x58
    7810:	979ff101 	ldrls	pc, [pc, r1, lsl #2]
    7814:	ea00014b 	b	7d48 <_vfiprintf_r+0x68c>
    7818:	00007f2c 	.word	0x00007f2c
    781c:	00007d48 	.word	0x00007d48
    7820:	00007d48 	.word	0x00007d48
    7824:	00007f18 	.word	0x00007f18
    7828:	00007d48 	.word	0x00007d48
    782c:	00007d48 	.word	0x00007d48
    7830:	00007d48 	.word	0x00007d48
    7834:	00007d48 	.word	0x00007d48
    7838:	00007d48 	.word	0x00007d48
    783c:	00007d48 	.word	0x00007d48
    7840:	00007ad0 	.word	0x00007ad0
    7844:	00007f0c 	.word	0x00007f0c
    7848:	00007d48 	.word	0x00007d48
    784c:	00007afc 	.word	0x00007afc
    7850:	00007f80 	.word	0x00007f80
    7854:	00007d48 	.word	0x00007d48
    7858:	00007f6c 	.word	0x00007f6c
    785c:	00007f3c 	.word	0x00007f3c
    7860:	00007f3c 	.word	0x00007f3c
    7864:	00007f3c 	.word	0x00007f3c
    7868:	00007f3c 	.word	0x00007f3c
    786c:	00007f3c 	.word	0x00007f3c
    7870:	00007f3c 	.word	0x00007f3c
    7874:	00007f3c 	.word	0x00007f3c
    7878:	00007f3c 	.word	0x00007f3c
    787c:	00007f3c 	.word	0x00007f3c
    7880:	00007d48 	.word	0x00007d48
    7884:	00007d48 	.word	0x00007d48
    7888:	00007d48 	.word	0x00007d48
    788c:	00007d48 	.word	0x00007d48
    7890:	00007d48 	.word	0x00007d48
    7894:	00007d48 	.word	0x00007d48
    7898:	00007d48 	.word	0x00007d48
    789c:	00007d48 	.word	0x00007d48
    78a0:	00007d48 	.word	0x00007d48
    78a4:	00007d48 	.word	0x00007d48
    78a8:	00007e94 	.word	0x00007e94
    78ac:	00007d48 	.word	0x00007d48
    78b0:	00007d48 	.word	0x00007d48
    78b4:	00007d48 	.word	0x00007d48
    78b8:	00007d48 	.word	0x00007d48
    78bc:	00007d48 	.word	0x00007d48
    78c0:	00007d48 	.word	0x00007d48
    78c4:	00007d48 	.word	0x00007d48
    78c8:	00007d48 	.word	0x00007d48
    78cc:	00007d48 	.word	0x00007d48
    78d0:	00007d48 	.word	0x00007d48
    78d4:	00007a8c 	.word	0x00007a8c
    78d8:	00007d48 	.word	0x00007d48
    78dc:	00007d48 	.word	0x00007d48
    78e0:	00007d48 	.word	0x00007d48
    78e4:	00007d48 	.word	0x00007d48
    78e8:	00007d48 	.word	0x00007d48
    78ec:	0000797c 	.word	0x0000797c
    78f0:	00007d48 	.word	0x00007d48
    78f4:	00007d48 	.word	0x00007d48
    78f8:	00007ce4 	.word	0x00007ce4
    78fc:	00007d48 	.word	0x00007d48
    7900:	00007d48 	.word	0x00007d48
    7904:	00007d48 	.word	0x00007d48
    7908:	00007d48 	.word	0x00007d48
    790c:	00007d48 	.word	0x00007d48
    7910:	00007d48 	.word	0x00007d48
    7914:	00007d48 	.word	0x00007d48
    7918:	00007d48 	.word	0x00007d48
    791c:	00007d48 	.word	0x00007d48
    7920:	00007d48 	.word	0x00007d48
    7924:	00007ba4 	.word	0x00007ba4
    7928:	00007b54 	.word	0x00007b54
    792c:	00007d48 	.word	0x00007d48
    7930:	00007d48 	.word	0x00007d48
    7934:	00007d48 	.word	0x00007d48
    7938:	00007b40 	.word	0x00007b40
    793c:	00007b54 	.word	0x00007b54
    7940:	00007d48 	.word	0x00007d48
    7944:	00007d48 	.word	0x00007d48
    7948:	00007b10 	.word	0x00007b10
    794c:	00007d48 	.word	0x00007d48
    7950:	00007e50 	.word	0x00007e50
    7954:	00007a98 	.word	0x00007a98
    7958:	00007e04 	.word	0x00007e04
    795c:	00007df0 	.word	0x00007df0
    7960:	00007d48 	.word	0x00007d48
    7964:	00007d78 	.word	0x00007d78
    7968:	00007d48 	.word	0x00007d48
    796c:	00007988 	.word	0x00007988
    7970:	00007d48 	.word	0x00007d48
    7974:	00007d48 	.word	0x00007d48
    7978:	00007fcc 	.word	0x00007fcc
    797c:	e59dc008 	ldr	ip, [sp, #8]
    7980:	e38cc010 	orr	ip, ip, #16
    7984:	e58dc008 	str	ip, [sp, #8]
    7988:	e59dc008 	ldr	ip, [sp, #8]
    798c:	e31c0020 	tst	ip, #32
    7990:	0a00032e 	beq	8650 <_vfiprintf_r+0xf94>
    7994:	e59dc01c 	ldr	ip, [sp, #28]
    7998:	e28c3007 	add	r3, ip, #7
    799c:	e3c33007 	bic	r3, r3, #7
    79a0:	e89300c0 	ldm	r3, {r6, r7}
    79a4:	e2833008 	add	r3, r3, #8
    79a8:	e1960007 	orrs	r0, r6, r7
    79ac:	e58d301c 	str	r3, [sp, #28]
    79b0:	03a01000 	moveq	r1, #0
    79b4:	13a01001 	movne	r1, #1
    79b8:	e3a02001 	mov	r2, #1
    79bc:	e3a00000 	mov	r0, #0
    79c0:	e5cd0517 	strb	r0, [sp, #1303]	; 0x517
    79c4:	e3580000 	cmp	r8, #0
    79c8:	a59dc008 	ldrge	ip, [sp, #8]
    79cc:	a3ccc080 	bicge	ip, ip, #128	; 0x80
    79d0:	a58dc008 	strge	ip, [sp, #8]
    79d4:	e3580000 	cmp	r8, #0
    79d8:	01a03001 	moveq	r3, r1
    79dc:	13813001 	orrne	r3, r1, #1
    79e0:	e3530000 	cmp	r3, #0
    79e4:	0a000240 	beq	82ec <_vfiprintf_r+0xc30>
    79e8:	e3520001 	cmp	r2, #1
    79ec:	0a0002f4 	beq	85c4 <_vfiprintf_r+0xf08>
    79f0:	e3520002 	cmp	r2, #2
    79f4:	11a01009 	movne	r1, r9
    79f8:	1a000001 	bne	7a04 <_vfiprintf_r+0x348>
    79fc:	ea000186 	b	801c <_vfiprintf_r+0x960>
    7a00:	e1a01002 	mov	r1, r2
    7a04:	e1a031a6 	lsr	r3, r6, #3
    7a08:	e1833e87 	orr	r3, r3, r7, lsl #29
    7a0c:	e1a001a7 	lsr	r0, r7, #3
    7a10:	e2062007 	and	r2, r6, #7
    7a14:	e1a07000 	mov	r7, r0
    7a18:	e1a06003 	mov	r6, r3
    7a1c:	e1960007 	orrs	r0, r6, r7
    7a20:	e2823030 	add	r3, r2, #48	; 0x30
    7a24:	e5413001 	strb	r3, [r1, #-1]
    7a28:	e2412001 	sub	r2, r1, #1
    7a2c:	1afffff3 	bne	7a00 <_vfiprintf_r+0x344>
    7a30:	e59dc008 	ldr	ip, [sp, #8]
    7a34:	e31c0001 	tst	ip, #1
    7a38:	e58d2024 	str	r2, [sp, #36]	; 0x24
    7a3c:	0a000186 	beq	805c <_vfiprintf_r+0x9a0>
    7a40:	e3530030 	cmp	r3, #48	; 0x30
    7a44:	12413002 	subne	r3, r1, #2
    7a48:	158d3024 	strne	r3, [sp, #36]	; 0x24
    7a4c:	e59dc024 	ldr	ip, [sp, #36]	; 0x24
    7a50:	13a03030 	movne	r3, #48	; 0x30
    7a54:	e06cc009 	rsb	ip, ip, r9
    7a58:	15413002 	strbne	r3, [r1, #-2]
    7a5c:	e58dc010 	str	ip, [sp, #16]
    7a60:	e58d8020 	str	r8, [sp, #32]
    7a64:	e5dd3517 	ldrb	r3, [sp, #1303]	; 0x517
    7a68:	e59dc010 	ldr	ip, [sp, #16]
    7a6c:	e59d0020 	ldr	r0, [sp, #32]
    7a70:	e15c0000 	cmp	ip, r0
    7a74:	b1a0c000 	movlt	ip, r0
    7a78:	e3530000 	cmp	r3, #0
    7a7c:	e58dc00c 	str	ip, [sp, #12]
    7a80:	128cc001 	addne	ip, ip, #1
    7a84:	158dc00c 	strne	ip, [sp, #12]
    7a88:	ea000055 	b	7be4 <_vfiprintf_r+0x528>
    7a8c:	e59dc008 	ldr	ip, [sp, #8]
    7a90:	e38cc010 	orr	ip, ip, #16
    7a94:	e58dc008 	str	ip, [sp, #8]
    7a98:	e59dc008 	ldr	ip, [sp, #8]
    7a9c:	e21c2020 	ands	r2, ip, #32
    7aa0:	0a0002fa 	beq	8690 <_vfiprintf_r+0xfd4>
    7aa4:	e59dc01c 	ldr	ip, [sp, #28]
    7aa8:	e28c3007 	add	r3, ip, #7
    7aac:	e3c33007 	bic	r3, r3, #7
    7ab0:	e89300c0 	ldm	r3, {r6, r7}
    7ab4:	e2833008 	add	r3, r3, #8
    7ab8:	e1960007 	orrs	r0, r6, r7
    7abc:	e58d301c 	str	r3, [sp, #28]
    7ac0:	03a01000 	moveq	r1, #0
    7ac4:	13a01001 	movne	r1, #1
    7ac8:	e3a02000 	mov	r2, #0
    7acc:	eaffffba 	b	79bc <_vfiprintf_r+0x300>
    7ad0:	e59dc01c 	ldr	ip, [sp, #28]
    7ad4:	e59cc000 	ldr	ip, [ip]
    7ad8:	e58dc018 	str	ip, [sp, #24]
    7adc:	e35c0000 	cmp	ip, #0
    7ae0:	e59dc01c 	ldr	ip, [sp, #28]
    7ae4:	e28c0004 	add	r0, ip, #4
    7ae8:	aa0002f9 	bge	86d4 <_vfiprintf_r+0x1018>
    7aec:	e59dc018 	ldr	ip, [sp, #24]
    7af0:	e26cc000 	rsb	ip, ip, #0
    7af4:	e58dc018 	str	ip, [sp, #24]
    7af8:	e58d001c 	str	r0, [sp, #28]
    7afc:	e59dc008 	ldr	ip, [sp, #8]
    7b00:	e38cc004 	orr	ip, ip, #4
    7b04:	e58dc008 	str	ip, [sp, #8]
    7b08:	e5d53000 	ldrb	r3, [r5]
    7b0c:	eaffff3c 	b	7804 <_vfiprintf_r+0x148>
    7b10:	e5d53000 	ldrb	r3, [r5]
    7b14:	e353006c 	cmp	r3, #108	; 0x6c
    7b18:	059dc008 	ldreq	ip, [sp, #8]
    7b1c:	159dc008 	ldrne	ip, [sp, #8]
    7b20:	e1a01005 	mov	r1, r5
    7b24:	038cc020 	orreq	ip, ip, #32
    7b28:	138cc010 	orrne	ip, ip, #16
    7b2c:	02855001 	addeq	r5, r5, #1
    7b30:	058dc008 	streq	ip, [sp, #8]
    7b34:	05d13001 	ldrbeq	r3, [r1, #1]
    7b38:	158dc008 	strne	ip, [sp, #8]
    7b3c:	eaffff30 	b	7804 <_vfiprintf_r+0x148>
    7b40:	e59dc008 	ldr	ip, [sp, #8]
    7b44:	e38cc040 	orr	ip, ip, #64	; 0x40
    7b48:	e58dc008 	str	ip, [sp, #8]
    7b4c:	e5d53000 	ldrb	r3, [r5]
    7b50:	eaffff2b 	b	7804 <_vfiprintf_r+0x148>
    7b54:	e59dc008 	ldr	ip, [sp, #8]
    7b58:	e31c0020 	tst	ip, #32
    7b5c:	e5cd2517 	strb	r2, [sp, #1303]	; 0x517
    7b60:	0a0000d2 	beq	7eb0 <_vfiprintf_r+0x7f4>
    7b64:	e59dc01c 	ldr	ip, [sp, #28]
    7b68:	e28c3007 	add	r3, ip, #7
    7b6c:	e3c33007 	bic	r3, r3, #7
    7b70:	e8930003 	ldm	r3, {r0, r1}
    7b74:	e2833008 	add	r3, r3, #8
    7b78:	e3500000 	cmp	r0, #0
    7b7c:	e2d12000 	sbcs	r2, r1, #0
    7b80:	e58d301c 	str	r3, [sp, #28]
    7b84:	e1a06000 	mov	r6, r0
    7b88:	e1a07001 	mov	r7, r1
    7b8c:	ba0000d5 	blt	7ee8 <_vfiprintf_r+0x82c>
    7b90:	e1963007 	orrs	r3, r6, r7
    7b94:	03a01000 	moveq	r1, #0
    7b98:	13a01001 	movne	r1, #1
    7b9c:	e3a02001 	mov	r2, #1
    7ba0:	eaffff87 	b	79c4 <_vfiprintf_r+0x308>
    7ba4:	e59d301c 	ldr	r3, [sp, #28]
    7ba8:	e3a0c001 	mov	ip, #1
    7bac:	e58dc00c 	str	ip, [sp, #12]
    7bb0:	e59dc01c 	ldr	ip, [sp, #28]
    7bb4:	e5933000 	ldr	r3, [r3]
    7bb8:	e28cc004 	add	ip, ip, #4
    7bbc:	e58dc01c 	str	ip, [sp, #28]
    7bc0:	e5cd34e0 	strb	r3, [sp, #1248]	; 0x4e0
    7bc4:	e3a00000 	mov	r0, #0
    7bc8:	e3a03001 	mov	r3, #1
    7bcc:	e28dce4e 	add	ip, sp, #1248	; 0x4e0
    7bd0:	e5cd0517 	strb	r0, [sp, #1303]	; 0x517
    7bd4:	e58d3010 	str	r3, [sp, #16]
    7bd8:	e58dc024 	str	ip, [sp, #36]	; 0x24
    7bdc:	e3a03000 	mov	r3, #0
    7be0:	e58d3020 	str	r3, [sp, #32]
    7be4:	e59d3008 	ldr	r3, [sp, #8]
    7be8:	e2133002 	ands	r3, r3, #2
    7bec:	159dc00c 	ldrne	ip, [sp, #12]
    7bf0:	e58d3028 	str	r3, [sp, #40]	; 0x28
    7bf4:	e59d3008 	ldr	r3, [sp, #8]
    7bf8:	128cc002 	addne	ip, ip, #2
    7bfc:	158dc00c 	strne	ip, [sp, #12]
    7c00:	e2133084 	ands	r3, r3, #132	; 0x84
    7c04:	e58d302c 	str	r3, [sp, #44]	; 0x2c
    7c08:	1a000116 	bne	8068 <_vfiprintf_r+0x9ac>
    7c0c:	e59dc018 	ldr	ip, [sp, #24]
    7c10:	e59d300c 	ldr	r3, [sp, #12]
    7c14:	e063600c 	rsb	r6, r3, ip
    7c18:	e3560000 	cmp	r6, #0
    7c1c:	da000111 	ble	8068 <_vfiprintf_r+0x9ac>
    7c20:	e3560010 	cmp	r6, #16
    7c24:	e59d2510 	ldr	r2, [sp, #1296]	; 0x510
    7c28:	e59d350c 	ldr	r3, [sp, #1292]	; 0x50c
    7c2c:	e59f7be8 	ldr	r7, [pc, #3048]	; 881c <_vfiprintf_r+0x1160>
    7c30:	c3a08010 	movgt	r8, #16
    7c34:	ca000003 	bgt	7c48 <_vfiprintf_r+0x58c>
    7c38:	ea000016 	b	7c98 <_vfiprintf_r+0x5dc>
    7c3c:	e2466010 	sub	r6, r6, #16
    7c40:	e3560010 	cmp	r6, #16
    7c44:	da000013 	ble	7c98 <_vfiprintf_r+0x5dc>
    7c48:	e2833001 	add	r3, r3, #1
    7c4c:	e2822010 	add	r2, r2, #16
    7c50:	e3530007 	cmp	r3, #7
    7c54:	e8840180 	stm	r4, {r7, r8}
    7c58:	e58d2510 	str	r2, [sp, #1296]	; 0x510
    7c5c:	e58d350c 	str	r3, [sp, #1292]	; 0x50c
    7c60:	d2844008 	addle	r4, r4, #8
    7c64:	dafffff4 	ble	7c3c <_vfiprintf_r+0x580>
    7c68:	e1a0000b 	mov	r0, fp
    7c6c:	e1a0100a 	mov	r1, sl
    7c70:	e1a02009 	mov	r2, r9
    7c74:	ebfffe60 	bl	75fc <__sprint_r>
    7c78:	e3500000 	cmp	r0, #0
    7c7c:	1a0001b1 	bne	8348 <_vfiprintf_r+0xc8c>
    7c80:	e2466010 	sub	r6, r6, #16
    7c84:	e3560010 	cmp	r6, #16
    7c88:	e59d2510 	ldr	r2, [sp, #1296]	; 0x510
    7c8c:	e59d350c 	ldr	r3, [sp, #1292]	; 0x50c
    7c90:	e28d4e4a 	add	r4, sp, #1184	; 0x4a0
    7c94:	caffffeb 	bgt	7c48 <_vfiprintf_r+0x58c>
    7c98:	e2833001 	add	r3, r3, #1
    7c9c:	e0822006 	add	r2, r2, r6
    7ca0:	e3530007 	cmp	r3, #7
    7ca4:	e5847000 	str	r7, [r4]
    7ca8:	e5846004 	str	r6, [r4, #4]
    7cac:	e58d2510 	str	r2, [sp, #1296]	; 0x510
    7cb0:	e58d350c 	str	r3, [sp, #1292]	; 0x50c
    7cb4:	d2844008 	addle	r4, r4, #8
    7cb8:	da0000ec 	ble	8070 <_vfiprintf_r+0x9b4>
    7cbc:	e1a0000b 	mov	r0, fp
    7cc0:	e1a0100a 	mov	r1, sl
    7cc4:	e1a02009 	mov	r2, r9
    7cc8:	ebfffe4b 	bl	75fc <__sprint_r>
    7ccc:	e3500000 	cmp	r0, #0
    7cd0:	1a00019c 	bne	8348 <_vfiprintf_r+0xc8c>
    7cd4:	e59d2510 	ldr	r2, [sp, #1296]	; 0x510
    7cd8:	e59d350c 	ldr	r3, [sp, #1292]	; 0x50c
    7cdc:	e28d4e4a 	add	r4, sp, #1184	; 0x4a0
    7ce0:	ea0000e2 	b	8070 <_vfiprintf_r+0x9b4>
    7ce4:	e59fcb34 	ldr	ip, [pc, #2868]	; 8820 <_vfiprintf_r+0x1164>
    7ce8:	e58dc030 	str	ip, [sp, #48]	; 0x30
    7cec:	e59dc008 	ldr	ip, [sp, #8]
    7cf0:	e31c0020 	tst	ip, #32
    7cf4:	e5cd2517 	strb	r2, [sp, #1303]	; 0x517
    7cf8:	0a0000b9 	beq	7fe4 <_vfiprintf_r+0x928>
    7cfc:	e59dc01c 	ldr	ip, [sp, #28]
    7d00:	e28c2007 	add	r2, ip, #7
    7d04:	e3c22007 	bic	r2, r2, #7
    7d08:	e282c008 	add	ip, r2, #8
    7d0c:	e58dc01c 	str	ip, [sp, #28]
    7d10:	e89200c0 	ldm	r2, {r6, r7}
    7d14:	e59dc008 	ldr	ip, [sp, #8]
    7d18:	e1960007 	orrs	r0, r6, r7
    7d1c:	03a01000 	moveq	r1, #0
    7d20:	13a01001 	movne	r1, #1
    7d24:	e11c0001 	tst	ip, r1
    7d28:	13a02030 	movne	r2, #48	; 0x30
    7d2c:	138cc002 	orrne	ip, ip, #2
    7d30:	15cd2514 	strbne	r2, [sp, #1300]	; 0x514
    7d34:	15cd3515 	strbne	r3, [sp, #1301]	; 0x515
    7d38:	158dc008 	strne	ip, [sp, #8]
    7d3c:	13a01001 	movne	r1, #1
    7d40:	e3a02002 	mov	r2, #2
    7d44:	eaffff1c 	b	79bc <_vfiprintf_r+0x300>
    7d48:	e3530000 	cmp	r3, #0
    7d4c:	e5cd2517 	strb	r2, [sp, #1303]	; 0x517
    7d50:	0a000291 	beq	879c <_vfiprintf_r+0x10e0>
    7d54:	e3a0c001 	mov	ip, #1
    7d58:	e5cd34e0 	strb	r3, [sp, #1248]	; 0x4e0
    7d5c:	e3a00000 	mov	r0, #0
    7d60:	e28d3e4e 	add	r3, sp, #1248	; 0x4e0
    7d64:	e58dc00c 	str	ip, [sp, #12]
    7d68:	e5cd0517 	strb	r0, [sp, #1303]	; 0x517
    7d6c:	e58dc010 	str	ip, [sp, #16]
    7d70:	e58d3024 	str	r3, [sp, #36]	; 0x24
    7d74:	eaffff98 	b	7bdc <_vfiprintf_r+0x520>
    7d78:	e59d301c 	ldr	r3, [sp, #28]
    7d7c:	e59dc01c 	ldr	ip, [sp, #28]
    7d80:	e5933000 	ldr	r3, [r3]
    7d84:	e3a00000 	mov	r0, #0
    7d88:	e28cc004 	add	ip, ip, #4
    7d8c:	e3530000 	cmp	r3, #0
    7d90:	e58d3024 	str	r3, [sp, #36]	; 0x24
    7d94:	e5cd0517 	strb	r0, [sp, #1303]	; 0x517
    7d98:	e58dc01c 	str	ip, [sp, #28]
    7d9c:	0a00028d 	beq	87d8 <_vfiprintf_r+0x111c>
    7da0:	e3580000 	cmp	r8, #0
    7da4:	e59d0024 	ldr	r0, [sp, #36]	; 0x24
    7da8:	ba000285 	blt	87c4 <_vfiprintf_r+0x1108>
    7dac:	e3a01000 	mov	r1, #0
    7db0:	e1a02008 	mov	r2, r8
    7db4:	ebfff8cf 	bl	60f8 <memchr>
    7db8:	e3500000 	cmp	r0, #0
    7dbc:	058d8010 	streq	r8, [sp, #16]
    7dc0:	058d0020 	streq	r0, [sp, #32]
    7dc4:	0affff26 	beq	7a64 <_vfiprintf_r+0x3a8>
    7dc8:	e59d3024 	ldr	r3, [sp, #36]	; 0x24
    7dcc:	e0630000 	rsb	r0, r3, r0
    7dd0:	e1500008 	cmp	r0, r8
    7dd4:	c3a03000 	movgt	r3, #0
    7dd8:	e58d0010 	str	r0, [sp, #16]
    7ddc:	c58d3020 	strgt	r3, [sp, #32]
    7de0:	c58d8010 	strgt	r8, [sp, #16]
    7de4:	d3a0c000 	movle	ip, #0
    7de8:	d58dc020 	strle	ip, [sp, #32]
    7dec:	eaffff1c 	b	7a64 <_vfiprintf_r+0x3a8>
    7df0:	e59dc008 	ldr	ip, [sp, #8]
    7df4:	e38cc020 	orr	ip, ip, #32
    7df8:	e58dc008 	str	ip, [sp, #8]
    7dfc:	e5d53000 	ldrb	r3, [r5]
    7e00:	eafffe7f 	b	7804 <_vfiprintf_r+0x148>
    7e04:	e59d301c 	ldr	r3, [sp, #28]
    7e08:	e283c004 	add	ip, r3, #4
    7e0c:	e58dc01c 	str	ip, [sp, #28]
    7e10:	e59dc008 	ldr	ip, [sp, #8]
    7e14:	e5931000 	ldr	r1, [r3]
    7e18:	e38cc002 	orr	ip, ip, #2
    7e1c:	e3a03030 	mov	r3, #48	; 0x30
    7e20:	e58dc008 	str	ip, [sp, #8]
    7e24:	e3a07000 	mov	r7, #0
    7e28:	e59fc9f4 	ldr	ip, [pc, #2548]	; 8824 <_vfiprintf_r+0x1168>
    7e2c:	e1a06001 	mov	r6, r1
    7e30:	e5cd3514 	strb	r3, [sp, #1300]	; 0x514
    7e34:	e0511007 	subs	r1, r1, r7
    7e38:	e3a03078 	mov	r3, #120	; 0x78
    7e3c:	e5cd3515 	strb	r3, [sp, #1301]	; 0x515
    7e40:	13a01001 	movne	r1, #1
    7e44:	e58dc030 	str	ip, [sp, #48]	; 0x30
    7e48:	e3a02002 	mov	r2, #2
    7e4c:	eafffeda 	b	79bc <_vfiprintf_r+0x300>
    7e50:	e59dc008 	ldr	ip, [sp, #8]
    7e54:	e31c0020 	tst	ip, #32
    7e58:	e5cd2517 	strb	r2, [sp, #1303]	; 0x517
    7e5c:	1a000235 	bne	8738 <_vfiprintf_r+0x107c>
    7e60:	e59dc008 	ldr	ip, [sp, #8]
    7e64:	e31c0010 	tst	ip, #16
    7e68:	1a000244 	bne	8780 <_vfiprintf_r+0x10c4>
    7e6c:	e59dc008 	ldr	ip, [sp, #8]
    7e70:	e31c0040 	tst	ip, #64	; 0x40
    7e74:	0a000241 	beq	8780 <_vfiprintf_r+0x10c4>
    7e78:	e59dc01c 	ldr	ip, [sp, #28]
    7e7c:	e59c3000 	ldr	r3, [ip]
    7e80:	e28cc004 	add	ip, ip, #4
    7e84:	e58dc01c 	str	ip, [sp, #28]
    7e88:	e59dc014 	ldr	ip, [sp, #20]
    7e8c:	e1c3c0b0 	strh	ip, [r3]
    7e90:	eafffe36 	b	7770 <_vfiprintf_r+0xb4>
    7e94:	e59dc008 	ldr	ip, [sp, #8]
    7e98:	e38cc010 	orr	ip, ip, #16
    7e9c:	e58dc008 	str	ip, [sp, #8]
    7ea0:	e59dc008 	ldr	ip, [sp, #8]
    7ea4:	e31c0020 	tst	ip, #32
    7ea8:	e5cd2517 	strb	r2, [sp, #1303]	; 0x517
    7eac:	1affff2c 	bne	7b64 <_vfiprintf_r+0x4a8>
    7eb0:	e59dc008 	ldr	ip, [sp, #8]
    7eb4:	e31c0010 	tst	ip, #16
    7eb8:	159dc01c 	ldrne	ip, [sp, #28]
    7ebc:	0a000226 	beq	875c <_vfiprintf_r+0x10a0>
    7ec0:	e59c3000 	ldr	r3, [ip]
    7ec4:	e1a07fc3 	asr	r7, r3, #31
    7ec8:	e1a00003 	mov	r0, r3
    7ecc:	e1a01007 	mov	r1, r7
    7ed0:	e28cc004 	add	ip, ip, #4
    7ed4:	e3500000 	cmp	r0, #0
    7ed8:	e2d12000 	sbcs	r2, r1, #0
    7edc:	e1a06003 	mov	r6, r3
    7ee0:	e58dc01c 	str	ip, [sp, #28]
    7ee4:	aaffff29 	bge	7b90 <_vfiprintf_r+0x4d4>
    7ee8:	e2766000 	rsbs	r6, r6, #0
    7eec:	e2e77000 	rsc	r7, r7, #0
    7ef0:	e196c007 	orrs	ip, r6, r7
    7ef4:	e3a0302d 	mov	r3, #45	; 0x2d
    7ef8:	e5cd3517 	strb	r3, [sp, #1303]	; 0x517
    7efc:	03a01000 	moveq	r1, #0
    7f00:	13a01001 	movne	r1, #1
    7f04:	e3a02001 	mov	r2, #1
    7f08:	eafffead 	b	79c4 <_vfiprintf_r+0x308>
    7f0c:	e5d53000 	ldrb	r3, [r5]
    7f10:	e3a0202b 	mov	r2, #43	; 0x2b
    7f14:	eafffe3a 	b	7804 <_vfiprintf_r+0x148>
    7f18:	e59dc008 	ldr	ip, [sp, #8]
    7f1c:	e38cc001 	orr	ip, ip, #1
    7f20:	e58dc008 	str	ip, [sp, #8]
    7f24:	e5d53000 	ldrb	r3, [r5]
    7f28:	eafffe35 	b	7804 <_vfiprintf_r+0x148>
    7f2c:	e3520000 	cmp	r2, #0
    7f30:	e5d53000 	ldrb	r3, [r5]
    7f34:	03a02020 	moveq	r2, #32
    7f38:	eafffe31 	b	7804 <_vfiprintf_r+0x148>
    7f3c:	e1a00005 	mov	r0, r5
    7f40:	e3a01000 	mov	r1, #0
    7f44:	e243c030 	sub	ip, r3, #48	; 0x30
    7f48:	e4d03001 	ldrb	r3, [r0], #1
    7f4c:	e2435030 	sub	r5, r3, #48	; 0x30
    7f50:	e0811101 	add	r1, r1, r1, lsl #2
    7f54:	e3550009 	cmp	r5, #9
    7f58:	e08c1081 	add	r1, ip, r1, lsl #1
    7f5c:	e1a05000 	mov	r5, r0
    7f60:	9afffff7 	bls	7f44 <_vfiprintf_r+0x888>
    7f64:	e58d1018 	str	r1, [sp, #24]
    7f68:	eafffe26 	b	7808 <_vfiprintf_r+0x14c>
    7f6c:	e59dc008 	ldr	ip, [sp, #8]
    7f70:	e38cc080 	orr	ip, ip, #128	; 0x80
    7f74:	e58dc008 	str	ip, [sp, #8]
    7f78:	e5d53000 	ldrb	r3, [r5]
    7f7c:	eafffe20 	b	7804 <_vfiprintf_r+0x148>
    7f80:	e1a01005 	mov	r1, r5
    7f84:	e4d13001 	ldrb	r3, [r1], #1
    7f88:	e353002a 	cmp	r3, #42	; 0x2a
    7f8c:	0a000219 	beq	87f8 <_vfiprintf_r+0x113c>
    7f90:	e2430030 	sub	r0, r3, #48	; 0x30
    7f94:	e3500009 	cmp	r0, #9
    7f98:	81a05001 	movhi	r5, r1
    7f9c:	83a08000 	movhi	r8, #0
    7fa0:	8afffe18 	bhi	7808 <_vfiprintf_r+0x14c>
    7fa4:	e3a08000 	mov	r8, #0
    7fa8:	e4d13001 	ldrb	r3, [r1], #1
    7fac:	e0888108 	add	r8, r8, r8, lsl #2
    7fb0:	e0808088 	add	r8, r0, r8, lsl #1
    7fb4:	e2430030 	sub	r0, r3, #48	; 0x30
    7fb8:	e3500009 	cmp	r0, #9
    7fbc:	e1a05001 	mov	r5, r1
    7fc0:	9afffff8 	bls	7fa8 <_vfiprintf_r+0x8ec>
    7fc4:	e1888fc8 	orr	r8, r8, r8, asr #31
    7fc8:	eafffe0e 	b	7808 <_vfiprintf_r+0x14c>
    7fcc:	e59fc850 	ldr	ip, [pc, #2128]	; 8824 <_vfiprintf_r+0x1168>
    7fd0:	e58dc030 	str	ip, [sp, #48]	; 0x30
    7fd4:	e59dc008 	ldr	ip, [sp, #8]
    7fd8:	e31c0020 	tst	ip, #32
    7fdc:	e5cd2517 	strb	r2, [sp, #1303]	; 0x517
    7fe0:	1affff45 	bne	7cfc <_vfiprintf_r+0x640>
    7fe4:	e59dc008 	ldr	ip, [sp, #8]
    7fe8:	e31c0010 	tst	ip, #16
    7fec:	159dc01c 	ldrne	ip, [sp, #28]
    7ff0:	1a0001c2 	bne	8700 <_vfiprintf_r+0x1044>
    7ff4:	e59dc008 	ldr	ip, [sp, #8]
    7ff8:	e31c0040 	tst	ip, #64	; 0x40
    7ffc:	e59dc01c 	ldr	ip, [sp, #28]
    8000:	0a0001be 	beq	8700 <_vfiprintf_r+0x1044>
    8004:	e1dc20b0 	ldrh	r2, [ip]
    8008:	e28cc004 	add	ip, ip, #4
    800c:	e1a06002 	mov	r6, r2
    8010:	e3a07000 	mov	r7, #0
    8014:	e58dc01c 	str	ip, [sp, #28]
    8018:	eaffff3d 	b	7d14 <_vfiprintf_r+0x658>
    801c:	e28d1c05 	add	r1, sp, #1280	; 0x500
    8020:	e59dc030 	ldr	ip, [sp, #48]	; 0x30
    8024:	e2811007 	add	r1, r1, #7
    8028:	e1a03226 	lsr	r3, r6, #4
    802c:	e1833e07 	orr	r3, r3, r7, lsl #28
    8030:	e206000f 	and	r0, r6, #15
    8034:	e1a02227 	lsr	r2, r7, #4
    8038:	e1a06003 	mov	r6, r3
    803c:	e1a07002 	mov	r7, r2
    8040:	e7dc3000 	ldrb	r3, [ip, r0]
    8044:	e1960007 	orrs	r0, r6, r7
    8048:	e1a02001 	mov	r2, r1
    804c:	e5c13000 	strb	r3, [r1]
    8050:	e2411001 	sub	r1, r1, #1
    8054:	1afffff3 	bne	8028 <_vfiprintf_r+0x96c>
    8058:	e58d2024 	str	r2, [sp, #36]	; 0x24
    805c:	e0623009 	rsb	r3, r2, r9
    8060:	e58d3010 	str	r3, [sp, #16]
    8064:	eafffe7d 	b	7a60 <_vfiprintf_r+0x3a4>
    8068:	e59d2510 	ldr	r2, [sp, #1296]	; 0x510
    806c:	e59d350c 	ldr	r3, [sp, #1292]	; 0x50c
    8070:	e5dd1517 	ldrb	r1, [sp, #1303]	; 0x517
    8074:	e3510000 	cmp	r1, #0
    8078:	0a00000b 	beq	80ac <_vfiprintf_r+0x9f0>
    807c:	e28d1e51 	add	r1, sp, #1296	; 0x510
    8080:	e2833001 	add	r3, r3, #1
    8084:	e2811007 	add	r1, r1, #7
    8088:	e5841000 	str	r1, [r4]
    808c:	e2822001 	add	r2, r2, #1
    8090:	e3530007 	cmp	r3, #7
    8094:	e3a01001 	mov	r1, #1
    8098:	e5841004 	str	r1, [r4, #4]
    809c:	e58d2510 	str	r2, [sp, #1296]	; 0x510
    80a0:	e58d350c 	str	r3, [sp, #1292]	; 0x50c
    80a4:	d2844008 	addle	r4, r4, #8
    80a8:	ca00012f 	bgt	856c <_vfiprintf_r+0xeb0>
    80ac:	e59dc028 	ldr	ip, [sp, #40]	; 0x28
    80b0:	e35c0000 	cmp	ip, #0
    80b4:	0a00000b 	beq	80e8 <_vfiprintf_r+0xa2c>
    80b8:	e28d1e51 	add	r1, sp, #1296	; 0x510
    80bc:	e2833001 	add	r3, r3, #1
    80c0:	e2811004 	add	r1, r1, #4
    80c4:	e5841000 	str	r1, [r4]
    80c8:	e2822002 	add	r2, r2, #2
    80cc:	e3530007 	cmp	r3, #7
    80d0:	e3a01002 	mov	r1, #2
    80d4:	e5841004 	str	r1, [r4, #4]
    80d8:	e58d2510 	str	r2, [sp, #1296]	; 0x510
    80dc:	e58d350c 	str	r3, [sp, #1292]	; 0x50c
    80e0:	d2844008 	addle	r4, r4, #8
    80e4:	ca00012a 	bgt	8594 <_vfiprintf_r+0xed8>
    80e8:	e59dc02c 	ldr	ip, [sp, #44]	; 0x2c
    80ec:	e35c0080 	cmp	ip, #128	; 0x80
    80f0:	0a00009f 	beq	8374 <_vfiprintf_r+0xcb8>
    80f4:	e59dc020 	ldr	ip, [sp, #32]
    80f8:	e59d0010 	ldr	r0, [sp, #16]
    80fc:	e060600c 	rsb	r6, r0, ip
    8100:	e3560000 	cmp	r6, #0
    8104:	da00002d 	ble	81c0 <_vfiprintf_r+0xb04>
    8108:	e3560010 	cmp	r6, #16
    810c:	e59f7714 	ldr	r7, [pc, #1812]	; 8828 <_vfiprintf_r+0x116c>
    8110:	c3a08010 	movgt	r8, #16
    8114:	ca000003 	bgt	8128 <_vfiprintf_r+0xa6c>
    8118:	ea000016 	b	8178 <_vfiprintf_r+0xabc>
    811c:	e2466010 	sub	r6, r6, #16
    8120:	e3560010 	cmp	r6, #16
    8124:	da000013 	ble	8178 <_vfiprintf_r+0xabc>
    8128:	e2833001 	add	r3, r3, #1
    812c:	e2822010 	add	r2, r2, #16
    8130:	e3530007 	cmp	r3, #7
    8134:	e8840180 	stm	r4, {r7, r8}
    8138:	e58d2510 	str	r2, [sp, #1296]	; 0x510
    813c:	e58d350c 	str	r3, [sp, #1292]	; 0x50c
    8140:	d2844008 	addle	r4, r4, #8
    8144:	dafffff4 	ble	811c <_vfiprintf_r+0xa60>
    8148:	e1a0000b 	mov	r0, fp
    814c:	e1a0100a 	mov	r1, sl
    8150:	e1a02009 	mov	r2, r9
    8154:	ebfffd28 	bl	75fc <__sprint_r>
    8158:	e3500000 	cmp	r0, #0
    815c:	1a000079 	bne	8348 <_vfiprintf_r+0xc8c>
    8160:	e2466010 	sub	r6, r6, #16
    8164:	e3560010 	cmp	r6, #16
    8168:	e59d2510 	ldr	r2, [sp, #1296]	; 0x510
    816c:	e59d350c 	ldr	r3, [sp, #1292]	; 0x50c
    8170:	e28d4e4a 	add	r4, sp, #1184	; 0x4a0
    8174:	caffffeb 	bgt	8128 <_vfiprintf_r+0xa6c>
    8178:	e2833001 	add	r3, r3, #1
    817c:	e0822006 	add	r2, r2, r6
    8180:	e3530007 	cmp	r3, #7
    8184:	e5847000 	str	r7, [r4]
    8188:	e5846004 	str	r6, [r4, #4]
    818c:	e58d2510 	str	r2, [sp, #1296]	; 0x510
    8190:	e58d350c 	str	r3, [sp, #1292]	; 0x50c
    8194:	d2844008 	addle	r4, r4, #8
    8198:	da000008 	ble	81c0 <_vfiprintf_r+0xb04>
    819c:	e1a0000b 	mov	r0, fp
    81a0:	e1a0100a 	mov	r1, sl
    81a4:	e1a02009 	mov	r2, r9
    81a8:	ebfffd13 	bl	75fc <__sprint_r>
    81ac:	e3500000 	cmp	r0, #0
    81b0:	1a000064 	bne	8348 <_vfiprintf_r+0xc8c>
    81b4:	e59d2510 	ldr	r2, [sp, #1296]	; 0x510
    81b8:	e59d350c 	ldr	r3, [sp, #1292]	; 0x50c
    81bc:	e28d4e4a 	add	r4, sp, #1184	; 0x4a0
    81c0:	e59dc010 	ldr	ip, [sp, #16]
    81c4:	e082200c 	add	r2, r2, ip
    81c8:	e59dc024 	ldr	ip, [sp, #36]	; 0x24
    81cc:	e2833001 	add	r3, r3, #1
    81d0:	e584c000 	str	ip, [r4]
    81d4:	e59dc010 	ldr	ip, [sp, #16]
    81d8:	e3530007 	cmp	r3, #7
    81dc:	e584c004 	str	ip, [r4, #4]
    81e0:	e58d2510 	str	r2, [sp, #1296]	; 0x510
    81e4:	e58d350c 	str	r3, [sp, #1292]	; 0x50c
    81e8:	d2844008 	addle	r4, r4, #8
    81ec:	ca000094 	bgt	8444 <_vfiprintf_r+0xd88>
    81f0:	e59dc008 	ldr	ip, [sp, #8]
    81f4:	e31c0004 	tst	ip, #4
    81f8:	0a000029 	beq	82a4 <_vfiprintf_r+0xbe8>
    81fc:	e59dc018 	ldr	ip, [sp, #24]
    8200:	e59d300c 	ldr	r3, [sp, #12]
    8204:	e063600c 	rsb	r6, r3, ip
    8208:	e3560000 	cmp	r6, #0
    820c:	da000024 	ble	82a4 <_vfiprintf_r+0xbe8>
    8210:	e3560010 	cmp	r6, #16
    8214:	e59d350c 	ldr	r3, [sp, #1292]	; 0x50c
    8218:	e59f75fc 	ldr	r7, [pc, #1532]	; 881c <_vfiprintf_r+0x1160>
    821c:	c3a08010 	movgt	r8, #16
    8220:	ca000003 	bgt	8234 <_vfiprintf_r+0xb78>
    8224:	ea000016 	b	8284 <_vfiprintf_r+0xbc8>
    8228:	e2466010 	sub	r6, r6, #16
    822c:	e3560010 	cmp	r6, #16
    8230:	da000013 	ble	8284 <_vfiprintf_r+0xbc8>
    8234:	e2833001 	add	r3, r3, #1
    8238:	e2822010 	add	r2, r2, #16
    823c:	e3530007 	cmp	r3, #7
    8240:	e8840180 	stm	r4, {r7, r8}
    8244:	e58d2510 	str	r2, [sp, #1296]	; 0x510
    8248:	e58d350c 	str	r3, [sp, #1292]	; 0x50c
    824c:	d2844008 	addle	r4, r4, #8
    8250:	dafffff4 	ble	8228 <_vfiprintf_r+0xb6c>
    8254:	e1a0000b 	mov	r0, fp
    8258:	e1a0100a 	mov	r1, sl
    825c:	e1a02009 	mov	r2, r9
    8260:	ebfffce5 	bl	75fc <__sprint_r>
    8264:	e3500000 	cmp	r0, #0
    8268:	1a000036 	bne	8348 <_vfiprintf_r+0xc8c>
    826c:	e2466010 	sub	r6, r6, #16
    8270:	e3560010 	cmp	r6, #16
    8274:	e59d2510 	ldr	r2, [sp, #1296]	; 0x510
    8278:	e59d350c 	ldr	r3, [sp, #1292]	; 0x50c
    827c:	e28d4e4a 	add	r4, sp, #1184	; 0x4a0
    8280:	caffffeb 	bgt	8234 <_vfiprintf_r+0xb78>
    8284:	e2833001 	add	r3, r3, #1
    8288:	e0862002 	add	r2, r6, r2
    828c:	e3530007 	cmp	r3, #7
    8290:	e5847000 	str	r7, [r4]
    8294:	e5846004 	str	r6, [r4, #4]
    8298:	e58d2510 	str	r2, [sp, #1296]	; 0x510
    829c:	e58d350c 	str	r3, [sp, #1292]	; 0x50c
    82a0:	ca00010e 	bgt	86e0 <_vfiprintf_r+0x1024>
    82a4:	e59dc014 	ldr	ip, [sp, #20]
    82a8:	e59d300c 	ldr	r3, [sp, #12]
    82ac:	e59d0018 	ldr	r0, [sp, #24]
    82b0:	e1530000 	cmp	r3, r0
    82b4:	a08cc003 	addge	ip, ip, r3
    82b8:	b08cc000 	addlt	ip, ip, r0
    82bc:	e3520000 	cmp	r2, #0
    82c0:	e58dc014 	str	ip, [sp, #20]
    82c4:	1a000019 	bne	8330 <_vfiprintf_r+0xc74>
    82c8:	e5d53000 	ldrb	r3, [r5]
    82cc:	e3a01000 	mov	r1, #0
    82d0:	e3530000 	cmp	r3, #0
    82d4:	13530025 	cmpne	r3, #37	; 0x25
    82d8:	e58d150c 	str	r1, [sp, #1292]	; 0x50c
    82dc:	e28d4e4a 	add	r4, sp, #1184	; 0x4a0
    82e0:	1afffd26 	bne	7780 <_vfiprintf_r+0xc4>
    82e4:	e1a06005 	mov	r6, r5
    82e8:	eafffd3a 	b	77d8 <_vfiprintf_r+0x11c>
    82ec:	e3520000 	cmp	r2, #0
    82f0:	158d3010 	strne	r3, [sp, #16]
    82f4:	158d9024 	strne	r9, [sp, #36]	; 0x24
    82f8:	1afffdd8 	bne	7a60 <_vfiprintf_r+0x3a4>
    82fc:	e59dc008 	ldr	ip, [sp, #8]
    8300:	e31c0001 	tst	ip, #1
    8304:	058d2010 	streq	r2, [sp, #16]
    8308:	058d9024 	streq	r9, [sp, #36]	; 0x24
    830c:	0afffdd3 	beq	7a60 <_vfiprintf_r+0x3a4>
    8310:	e3a03030 	mov	r3, #48	; 0x30
    8314:	e5cd3507 	strb	r3, [sp, #1287]	; 0x507
    8318:	e59dc034 	ldr	ip, [sp, #52]	; 0x34
    831c:	e28d3c05 	add	r3, sp, #1280	; 0x500
    8320:	e2833007 	add	r3, r3, #7
    8324:	e58dc010 	str	ip, [sp, #16]
    8328:	e58d3024 	str	r3, [sp, #36]	; 0x24
    832c:	eafffdcb 	b	7a60 <_vfiprintf_r+0x3a4>
    8330:	e1a0000b 	mov	r0, fp
    8334:	e1a0100a 	mov	r1, sl
    8338:	e1a02009 	mov	r2, r9
    833c:	ebfffcae 	bl	75fc <__sprint_r>
    8340:	e3500000 	cmp	r0, #0
    8344:	0affffdf 	beq	82c8 <_vfiprintf_r+0xc0c>
    8348:	e1a0600a 	mov	r6, sl
    834c:	e1d630bc 	ldrh	r3, [r6, #12]
    8350:	e59d5014 	ldr	r5, [sp, #20]
    8354:	e3130040 	tst	r3, #64	; 0x40
    8358:	13e05000 	mvnne	r5, #0
    835c:	e58d5014 	str	r5, [sp, #20]
    8360:	e59d0014 	ldr	r0, [sp, #20]
    8364:	e28ddf47 	add	sp, sp, #284	; 0x11c
    8368:	e28ddb01 	add	sp, sp, #1024	; 0x400
    836c:	e8bd4ff0 	pop	{r4, r5, r6, r7, r8, r9, sl, fp, lr}
    8370:	e12fff1e 	bx	lr
    8374:	e59dc018 	ldr	ip, [sp, #24]
    8378:	e59d000c 	ldr	r0, [sp, #12]
    837c:	e060600c 	rsb	r6, r0, ip
    8380:	e3560000 	cmp	r6, #0
    8384:	daffff5a 	ble	80f4 <_vfiprintf_r+0xa38>
    8388:	e3560010 	cmp	r6, #16
    838c:	e59f7494 	ldr	r7, [pc, #1172]	; 8828 <_vfiprintf_r+0x116c>
    8390:	c3a08010 	movgt	r8, #16
    8394:	ca000003 	bgt	83a8 <_vfiprintf_r+0xcec>
    8398:	ea000016 	b	83f8 <_vfiprintf_r+0xd3c>
    839c:	e2466010 	sub	r6, r6, #16
    83a0:	e3560010 	cmp	r6, #16
    83a4:	da000013 	ble	83f8 <_vfiprintf_r+0xd3c>
    83a8:	e2833001 	add	r3, r3, #1
    83ac:	e2822010 	add	r2, r2, #16
    83b0:	e3530007 	cmp	r3, #7
    83b4:	e8840180 	stm	r4, {r7, r8}
    83b8:	e58d2510 	str	r2, [sp, #1296]	; 0x510
    83bc:	e58d350c 	str	r3, [sp, #1292]	; 0x50c
    83c0:	d2844008 	addle	r4, r4, #8
    83c4:	dafffff4 	ble	839c <_vfiprintf_r+0xce0>
    83c8:	e1a0000b 	mov	r0, fp
    83cc:	e1a0100a 	mov	r1, sl
    83d0:	e1a02009 	mov	r2, r9
    83d4:	ebfffc88 	bl	75fc <__sprint_r>
    83d8:	e3500000 	cmp	r0, #0
    83dc:	1affffd9 	bne	8348 <_vfiprintf_r+0xc8c>
    83e0:	e2466010 	sub	r6, r6, #16
    83e4:	e3560010 	cmp	r6, #16
    83e8:	e59d2510 	ldr	r2, [sp, #1296]	; 0x510
    83ec:	e59d350c 	ldr	r3, [sp, #1292]	; 0x50c
    83f0:	e28d4e4a 	add	r4, sp, #1184	; 0x4a0
    83f4:	caffffeb 	bgt	83a8 <_vfiprintf_r+0xcec>
    83f8:	e2833001 	add	r3, r3, #1
    83fc:	e0822006 	add	r2, r2, r6
    8400:	e3530007 	cmp	r3, #7
    8404:	e5847000 	str	r7, [r4]
    8408:	e5846004 	str	r6, [r4, #4]
    840c:	e58d2510 	str	r2, [sp, #1296]	; 0x510
    8410:	e58d350c 	str	r3, [sp, #1292]	; 0x50c
    8414:	d2844008 	addle	r4, r4, #8
    8418:	daffff35 	ble	80f4 <_vfiprintf_r+0xa38>
    841c:	e1a0000b 	mov	r0, fp
    8420:	e1a0100a 	mov	r1, sl
    8424:	e1a02009 	mov	r2, r9
    8428:	ebfffc73 	bl	75fc <__sprint_r>
    842c:	e3500000 	cmp	r0, #0
    8430:	1affffc4 	bne	8348 <_vfiprintf_r+0xc8c>
    8434:	e59d2510 	ldr	r2, [sp, #1296]	; 0x510
    8438:	e59d350c 	ldr	r3, [sp, #1292]	; 0x50c
    843c:	e28d4e4a 	add	r4, sp, #1184	; 0x4a0
    8440:	eaffff2b 	b	80f4 <_vfiprintf_r+0xa38>
    8444:	e1a0000b 	mov	r0, fp
    8448:	e1a0100a 	mov	r1, sl
    844c:	e1a02009 	mov	r2, r9
    8450:	ebfffc69 	bl	75fc <__sprint_r>
    8454:	e3500000 	cmp	r0, #0
    8458:	1affffba 	bne	8348 <_vfiprintf_r+0xc8c>
    845c:	e59d2510 	ldr	r2, [sp, #1296]	; 0x510
    8460:	e28d4e4a 	add	r4, sp, #1184	; 0x4a0
    8464:	eaffff61 	b	81f0 <_vfiprintf_r+0xb34>
    8468:	e1a0000b 	mov	r0, fp
    846c:	e1a01006 	mov	r1, r6
    8470:	ebffebf4 	bl	3448 <__swsetup_r>
    8474:	e3500000 	cmp	r0, #0
    8478:	13e0c000 	mvnne	ip, #0
    847c:	158dc014 	strne	ip, [sp, #20]
    8480:	1affffb6 	bne	8360 <_vfiprintf_r+0xca4>
    8484:	e1d620bc 	ldrh	r2, [r6, #12]
    8488:	e1a03002 	mov	r3, r2
    848c:	e203301a 	and	r3, r3, #26
    8490:	e353000a 	cmp	r3, #10
    8494:	1afffca5 	bne	7730 <_vfiprintf_r+0x74>
    8498:	e1d6c0be 	ldrh	ip, [r6, #14]
    849c:	e31c0902 	tst	ip, #32768	; 0x8000
    84a0:	1afffca2 	bne	7730 <_vfiprintf_r+0x74>
    84a4:	e3a04b01 	mov	r4, #1024	; 0x400
    84a8:	e3c2e002 	bic	lr, r2, #2
    84ac:	e1a02005 	mov	r2, r5
    84b0:	e08d5004 	add	r5, sp, r4
    84b4:	e5967064 	ldr	r7, [r6, #100]	; 0x64
    84b8:	e596801c 	ldr	r8, [r6, #28]
    84bc:	e596a024 	ldr	sl, [r6, #36]	; 0x24
    84c0:	e1c5c4b6 	strh	ip, [r5, #70]	; 0x46
    84c4:	e28d1e43 	add	r1, sp, #1072	; 0x430
    84c8:	e28dc038 	add	ip, sp, #56	; 0x38
    84cc:	e58dc438 	str	ip, [sp, #1080]	; 0x438
    84d0:	e58dc448 	str	ip, [sp, #1096]	; 0x448
    84d4:	e1a0000b 	mov	r0, fp
    84d8:	e3a0c000 	mov	ip, #0
    84dc:	e2811008 	add	r1, r1, #8
    84e0:	e59d301c 	ldr	r3, [sp, #28]
    84e4:	e1c5e4b4 	strh	lr, [r5, #68]	; 0x44
    84e8:	e58d749c 	str	r7, [sp, #1180]	; 0x49c
    84ec:	e58d8454 	str	r8, [sp, #1108]	; 0x454
    84f0:	e58da45c 	str	sl, [sp, #1116]	; 0x45c
    84f4:	e58d4440 	str	r4, [sp, #1088]	; 0x440
    84f8:	e58d444c 	str	r4, [sp, #1100]	; 0x44c
    84fc:	e58dc450 	str	ip, [sp, #1104]	; 0x450
    8500:	ebfffc6d 	bl	76bc <_vfiprintf_r>
    8504:	e3500000 	cmp	r0, #0
    8508:	e58d0014 	str	r0, [sp, #20]
    850c:	ba000007 	blt	8530 <_vfiprintf_r+0xe74>
    8510:	e28d1e43 	add	r1, sp, #1072	; 0x430
    8514:	e1a0000b 	mov	r0, fp
    8518:	e2811008 	add	r1, r1, #8
    851c:	ebfff22d 	bl	4dd8 <_fflush_r>
    8520:	e59d5014 	ldr	r5, [sp, #20]
    8524:	e3500000 	cmp	r0, #0
    8528:	13e05000 	mvnne	r5, #0
    852c:	e58d5014 	str	r5, [sp, #20]
    8530:	e28dcb01 	add	ip, sp, #1024	; 0x400
    8534:	e1dc34b4 	ldrh	r3, [ip, #68]	; 0x44
    8538:	e3130040 	tst	r3, #64	; 0x40
    853c:	11d630bc 	ldrhne	r3, [r6, #12]
    8540:	13833040 	orrne	r3, r3, #64	; 0x40
    8544:	11c630bc 	strhne	r3, [r6, #12]
    8548:	eaffff84 	b	8360 <_vfiprintf_r+0xca4>
    854c:	e1a0000b 	mov	r0, fp
    8550:	e1a0100a 	mov	r1, sl
    8554:	e1a02009 	mov	r2, r9
    8558:	ebfffc27 	bl	75fc <__sprint_r>
    855c:	e3500000 	cmp	r0, #0
    8560:	1affff78 	bne	8348 <_vfiprintf_r+0xc8c>
    8564:	e28d4e4a 	add	r4, sp, #1184	; 0x4a0
    8568:	eafffc97 	b	77cc <_vfiprintf_r+0x110>
    856c:	e1a0000b 	mov	r0, fp
    8570:	e1a0100a 	mov	r1, sl
    8574:	e1a02009 	mov	r2, r9
    8578:	ebfffc1f 	bl	75fc <__sprint_r>
    857c:	e3500000 	cmp	r0, #0
    8580:	1affff70 	bne	8348 <_vfiprintf_r+0xc8c>
    8584:	e59d2510 	ldr	r2, [sp, #1296]	; 0x510
    8588:	e59d350c 	ldr	r3, [sp, #1292]	; 0x50c
    858c:	e28d4e4a 	add	r4, sp, #1184	; 0x4a0
    8590:	eafffec5 	b	80ac <_vfiprintf_r+0x9f0>
    8594:	e1a0000b 	mov	r0, fp
    8598:	e1a0100a 	mov	r1, sl
    859c:	e1a02009 	mov	r2, r9
    85a0:	ebfffc15 	bl	75fc <__sprint_r>
    85a4:	e3500000 	cmp	r0, #0
    85a8:	1affff66 	bne	8348 <_vfiprintf_r+0xc8c>
    85ac:	e59d2510 	ldr	r2, [sp, #1296]	; 0x510
    85b0:	e59d350c 	ldr	r3, [sp, #1292]	; 0x50c
    85b4:	e28d4e4a 	add	r4, sp, #1184	; 0x4a0
    85b8:	eafffeca 	b	80e8 <_vfiprintf_r+0xa2c>
    85bc:	ebfff2e6 	bl	515c <__sinit>
    85c0:	eafffc48 	b	76e8 <_vfiprintf_r+0x2c>
    85c4:	e3570000 	cmp	r7, #0
    85c8:	03560009 	cmpeq	r6, #9
    85cc:	92866030 	addls	r6, r6, #48	; 0x30
    85d0:	95cd6507 	strbls	r6, [sp, #1287]	; 0x507
    85d4:	9affff4f 	bls	8318 <_vfiprintf_r+0xc5c>
    85d8:	e28dcc05 	add	ip, sp, #1280	; 0x500
    85dc:	e28cc007 	add	ip, ip, #7
    85e0:	e58d500c 	str	r5, [sp, #12]
    85e4:	e58d4010 	str	r4, [sp, #16]
    85e8:	e1a0400c 	mov	r4, ip
    85ec:	e1a00006 	mov	r0, r6
    85f0:	e1a01007 	mov	r1, r7
    85f4:	e3a0200a 	mov	r2, #10
    85f8:	e3a03000 	mov	r3, #0
    85fc:	eb000695 	bl	a058 <__aeabi_uldivmod>
    8600:	e2822030 	add	r2, r2, #48	; 0x30
    8604:	e5c42000 	strb	r2, [r4]
    8608:	e1a00006 	mov	r0, r6
    860c:	e1a01007 	mov	r1, r7
    8610:	e3a0200a 	mov	r2, #10
    8614:	e3a03000 	mov	r3, #0
    8618:	eb00068e 	bl	a058 <__aeabi_uldivmod>
    861c:	e1a06000 	mov	r6, r0
    8620:	e1a07001 	mov	r7, r1
    8624:	e196c007 	orrs	ip, r6, r7
    8628:	e1a05004 	mov	r5, r4
    862c:	e2444001 	sub	r4, r4, #1
    8630:	1affffed 	bne	85ec <_vfiprintf_r+0xf30>
    8634:	e58d5024 	str	r5, [sp, #36]	; 0x24
    8638:	e59d3024 	ldr	r3, [sp, #36]	; 0x24
    863c:	e0633009 	rsb	r3, r3, r9
    8640:	e59d4010 	ldr	r4, [sp, #16]
    8644:	e59d500c 	ldr	r5, [sp, #12]
    8648:	e58d3010 	str	r3, [sp, #16]
    864c:	eafffd03 	b	7a60 <_vfiprintf_r+0x3a4>
    8650:	e59dc008 	ldr	ip, [sp, #8]
    8654:	e31c0010 	tst	ip, #16
    8658:	1a000045 	bne	8774 <_vfiprintf_r+0x10b8>
    865c:	e59dc008 	ldr	ip, [sp, #8]
    8660:	e31c0040 	tst	ip, #64	; 0x40
    8664:	e59dc01c 	ldr	ip, [sp, #28]
    8668:	11dc10b0 	ldrhne	r1, [ip]
    866c:	059c1000 	ldreq	r1, [ip]
    8670:	e3a07000 	mov	r7, #0
    8674:	e1a06001 	mov	r6, r1
    8678:	e28cc004 	add	ip, ip, #4
    867c:	e0511007 	subs	r1, r1, r7
    8680:	13a01001 	movne	r1, #1
    8684:	e58dc01c 	str	ip, [sp, #28]
    8688:	e3a02001 	mov	r2, #1
    868c:	eafffcca 	b	79bc <_vfiprintf_r+0x300>
    8690:	e59dc008 	ldr	ip, [sp, #8]
    8694:	e21c3010 	ands	r3, ip, #16
    8698:	159dc01c 	ldrne	ip, [sp, #28]
    869c:	1a00001d 	bne	8718 <_vfiprintf_r+0x105c>
    86a0:	e59dc008 	ldr	ip, [sp, #8]
    86a4:	e21c2040 	ands	r2, ip, #64	; 0x40
    86a8:	e59dc01c 	ldr	ip, [sp, #28]
    86ac:	0a000019 	beq	8718 <_vfiprintf_r+0x105c>
    86b0:	e1dc10b0 	ldrh	r1, [ip]
    86b4:	e3a07000 	mov	r7, #0
    86b8:	e1a06001 	mov	r6, r1
    86bc:	e28cc004 	add	ip, ip, #4
    86c0:	e0511007 	subs	r1, r1, r7
    86c4:	13a01001 	movne	r1, #1
    86c8:	e58dc01c 	str	ip, [sp, #28]
    86cc:	e1a02003 	mov	r2, r3
    86d0:	eafffcb9 	b	79bc <_vfiprintf_r+0x300>
    86d4:	e5d53000 	ldrb	r3, [r5]
    86d8:	e58d001c 	str	r0, [sp, #28]
    86dc:	eafffc48 	b	7804 <_vfiprintf_r+0x148>
    86e0:	e1a0000b 	mov	r0, fp
    86e4:	e1a0100a 	mov	r1, sl
    86e8:	e1a02009 	mov	r2, r9
    86ec:	ebfffbc2 	bl	75fc <__sprint_r>
    86f0:	e3500000 	cmp	r0, #0
    86f4:	1affff13 	bne	8348 <_vfiprintf_r+0xc8c>
    86f8:	e59d2510 	ldr	r2, [sp, #1296]	; 0x510
    86fc:	eafffee8 	b	82a4 <_vfiprintf_r+0xbe8>
    8700:	e59c2000 	ldr	r2, [ip]
    8704:	e28cc004 	add	ip, ip, #4
    8708:	e1a06002 	mov	r6, r2
    870c:	e3a07000 	mov	r7, #0
    8710:	e58dc01c 	str	ip, [sp, #28]
    8714:	eafffd7e 	b	7d14 <_vfiprintf_r+0x658>
    8718:	e59c1000 	ldr	r1, [ip]
    871c:	e3a07000 	mov	r7, #0
    8720:	e1a06001 	mov	r6, r1
    8724:	e28cc004 	add	ip, ip, #4
    8728:	e0511007 	subs	r1, r1, r7
    872c:	13a01001 	movne	r1, #1
    8730:	e58dc01c 	str	ip, [sp, #28]
    8734:	eafffca0 	b	79bc <_vfiprintf_r+0x300>
    8738:	e59dc01c 	ldr	ip, [sp, #28]
    873c:	e59d2014 	ldr	r2, [sp, #20]
    8740:	e59c3000 	ldr	r3, [ip]
    8744:	e1a01fc2 	asr	r1, r2, #31
    8748:	e28cc004 	add	ip, ip, #4
    874c:	e5832000 	str	r2, [r3]
    8750:	e5831004 	str	r1, [r3, #4]
    8754:	e58dc01c 	str	ip, [sp, #28]
    8758:	eafffc04 	b	7770 <_vfiprintf_r+0xb4>
    875c:	e59dc008 	ldr	ip, [sp, #8]
    8760:	e31c0040 	tst	ip, #64	; 0x40
    8764:	e59dc01c 	ldr	ip, [sp, #28]
    8768:	11dc30f0 	ldrshne	r3, [ip]
    876c:	1afffdd4 	bne	7ec4 <_vfiprintf_r+0x808>
    8770:	eafffdd2 	b	7ec0 <_vfiprintf_r+0x804>
    8774:	e59dc01c 	ldr	ip, [sp, #28]
    8778:	e59c1000 	ldr	r1, [ip]
    877c:	eaffffbb 	b	8670 <_vfiprintf_r+0xfb4>
    8780:	e59dc01c 	ldr	ip, [sp, #28]
    8784:	e59c3000 	ldr	r3, [ip]
    8788:	e28cc004 	add	ip, ip, #4
    878c:	e58dc01c 	str	ip, [sp, #28]
    8790:	e59dc014 	ldr	ip, [sp, #20]
    8794:	e583c000 	str	ip, [r3]
    8798:	eafffbf4 	b	7770 <_vfiprintf_r+0xb4>
    879c:	e59d3510 	ldr	r3, [sp, #1296]	; 0x510
    87a0:	e3530000 	cmp	r3, #0
    87a4:	e1a0600a 	mov	r6, sl
    87a8:	0afffee7 	beq	834c <_vfiprintf_r+0xc90>
    87ac:	e28d2c05 	add	r2, sp, #1280	; 0x500
    87b0:	e1a0000b 	mov	r0, fp
    87b4:	e1a0100a 	mov	r1, sl
    87b8:	e2822008 	add	r2, r2, #8
    87bc:	ebfffb8e 	bl	75fc <__sprint_r>
    87c0:	eafffee1 	b	834c <_vfiprintf_r+0xc90>
    87c4:	ebfffb74 	bl	759c <strlen>
    87c8:	e3a0c000 	mov	ip, #0
    87cc:	e58d0010 	str	r0, [sp, #16]
    87d0:	e58dc020 	str	ip, [sp, #32]
    87d4:	eafffca2 	b	7a64 <_vfiprintf_r+0x3a8>
    87d8:	e3580006 	cmp	r8, #6
    87dc:	23a08006 	movcs	r8, #6
    87e0:	e59fc044 	ldr	ip, [pc, #68]	; 882c <_vfiprintf_r+0x1170>
    87e4:	e1c83fc8 	bic	r3, r8, r8, asr #31
    87e8:	e58d8010 	str	r8, [sp, #16]
    87ec:	e58d300c 	str	r3, [sp, #12]
    87f0:	e58dc024 	str	ip, [sp, #36]	; 0x24
    87f4:	eafffcf8 	b	7bdc <_vfiprintf_r+0x520>
    87f8:	e59dc01c 	ldr	ip, [sp, #28]
    87fc:	e59c8000 	ldr	r8, [ip]
    8800:	e28c0004 	add	r0, ip, #4
    8804:	e3580000 	cmp	r8, #0
    8808:	e5d53001 	ldrb	r3, [r5, #1]
    880c:	e58d001c 	str	r0, [sp, #28]
    8810:	e1a05001 	mov	r5, r1
    8814:	b3e08000 	mvnlt	r8, #0
    8818:	eafffbf9 	b	7804 <_vfiprintf_r+0x148>
    881c:	0000ac18 	.word	0x0000ac18
    8820:	0000ac48 	.word	0x0000ac48
    8824:	0000ac5c 	.word	0x0000ac5c
    8828:	0000ac28 	.word	0x0000ac28
    882c:	0000ac70 	.word	0x0000ac70

00008830 <vfiprintf>:
    8830:	e52d4004 	push	{r4}		; (str r4, [sp, #-4]!)
    8834:	e1a03002 	mov	r3, r2
    8838:	e59f2018 	ldr	r2, [pc, #24]	; 8858 <vfiprintf+0x28>
    883c:	e1a04000 	mov	r4, r0
    8840:	e1a0c001 	mov	ip, r1
    8844:	e5920000 	ldr	r0, [r2]
    8848:	e1a01004 	mov	r1, r4
    884c:	e1a0200c 	mov	r2, ip
    8850:	e8bd0010 	pop	{r4}
    8854:	eafffb98 	b	76bc <_vfiprintf_r>
    8858:	40000000 	.word	0x40000000

0000885c <_write_r>:
    885c:	e92d4038 	push	{r3, r4, r5, lr}
    8860:	e59f4034 	ldr	r4, [pc, #52]	; 889c <_write_r+0x40>
    8864:	e1a05000 	mov	r5, r0
    8868:	e1a00001 	mov	r0, r1
    886c:	e1a01002 	mov	r1, r2
    8870:	e1a02003 	mov	r2, r3
    8874:	e3a03000 	mov	r3, #0
    8878:	e5843000 	str	r3, [r4]
    887c:	eb000e99 	bl	c2e8 <_write>
    8880:	e3700001 	cmn	r0, #1
    8884:	1a000002 	bne	8894 <_write_r+0x38>
    8888:	e5943000 	ldr	r3, [r4]
    888c:	e3530000 	cmp	r3, #0
    8890:	15853000 	strne	r3, [r5]
    8894:	e8bd4038 	pop	{r3, r4, r5, lr}
    8898:	e12fff1e 	bx	lr
    889c:	40000930 	.word	0x40000930

000088a0 <_calloc_r>:
    88a0:	e92d4010 	push	{r4, lr}
    88a4:	e0010192 	mul	r1, r2, r1
    88a8:	ebfff44d 	bl	59e4 <_malloc_r>
    88ac:	e2504000 	subs	r4, r0, #0
    88b0:	0a000018 	beq	8918 <_calloc_r+0x78>
    88b4:	e5142004 	ldr	r2, [r4, #-4]
    88b8:	e3c22003 	bic	r2, r2, #3
    88bc:	e2422004 	sub	r2, r2, #4
    88c0:	e3520024 	cmp	r2, #36	; 0x24
    88c4:	8a000016 	bhi	8924 <_calloc_r+0x84>
    88c8:	e3520013 	cmp	r2, #19
    88cc:	91a02004 	movls	r2, r4
    88d0:	9a00000c 	bls	8908 <_calloc_r+0x68>
    88d4:	e3a03000 	mov	r3, #0
    88d8:	e352001b 	cmp	r2, #27
    88dc:	e5843000 	str	r3, [r4]
    88e0:	e5843004 	str	r3, [r4, #4]
    88e4:	92842008 	addls	r2, r4, #8
    88e8:	9a000006 	bls	8908 <_calloc_r+0x68>
    88ec:	e3520024 	cmp	r2, #36	; 0x24
    88f0:	e5843008 	str	r3, [r4, #8]
    88f4:	e584300c 	str	r3, [r4, #12]
    88f8:	05843010 	streq	r3, [r4, #16]
    88fc:	05843014 	streq	r3, [r4, #20]
    8900:	12842010 	addne	r2, r4, #16
    8904:	02842018 	addeq	r2, r4, #24
    8908:	e3a03000 	mov	r3, #0
    890c:	e5823000 	str	r3, [r2]
    8910:	e5823004 	str	r3, [r2, #4]
    8914:	e5823008 	str	r3, [r2, #8]
    8918:	e1a00004 	mov	r0, r4
    891c:	e8bd4010 	pop	{r4, lr}
    8920:	e12fff1e 	bx	lr
    8924:	e3a01000 	mov	r1, #0
    8928:	ebfff69d 	bl	63a4 <memset>
    892c:	eafffff9 	b	8918 <_calloc_r+0x78>

00008930 <_close_r>:
    8930:	e92d4038 	push	{r3, r4, r5, lr}
    8934:	e59f402c 	ldr	r4, [pc, #44]	; 8968 <_close_r+0x38>
    8938:	e3a03000 	mov	r3, #0
    893c:	e1a05000 	mov	r5, r0
    8940:	e1a00001 	mov	r0, r1
    8944:	e5843000 	str	r3, [r4]
    8948:	eb000d89 	bl	bf74 <_close>
    894c:	e3700001 	cmn	r0, #1
    8950:	1a000002 	bne	8960 <_close_r+0x30>
    8954:	e5943000 	ldr	r3, [r4]
    8958:	e3530000 	cmp	r3, #0
    895c:	15853000 	strne	r3, [r5]
    8960:	e8bd4038 	pop	{r3, r4, r5, lr}
    8964:	e12fff1e 	bx	lr
    8968:	40000930 	.word	0x40000930

0000896c <_fclose_r>:
    896c:	e92d4070 	push	{r4, r5, r6, lr}
    8970:	e2514000 	subs	r4, r1, #0
    8974:	e1a05000 	mov	r5, r0
    8978:	01a06004 	moveq	r6, r4
    897c:	0a00002b 	beq	8a30 <_fclose_r+0xc4>
    8980:	ebfff25a 	bl	52f0 <__sfp_lock_acquire>
    8984:	e3550000 	cmp	r5, #0
    8988:	0a000002 	beq	8998 <_fclose_r+0x2c>
    898c:	e5953038 	ldr	r3, [r5, #56]	; 0x38
    8990:	e3530000 	cmp	r3, #0
    8994:	0a000028 	beq	8a3c <_fclose_r+0xd0>
    8998:	e1d460fc 	ldrsh	r6, [r4, #12]
    899c:	e3560000 	cmp	r6, #0
    89a0:	0a000021 	beq	8a2c <_fclose_r+0xc0>
    89a4:	e1a00005 	mov	r0, r5
    89a8:	e1a01004 	mov	r1, r4
    89ac:	ebfff109 	bl	4dd8 <_fflush_r>
    89b0:	e594302c 	ldr	r3, [r4, #44]	; 0x2c
    89b4:	e3530000 	cmp	r3, #0
    89b8:	e1a06000 	mov	r6, r0
    89bc:	0a000005 	beq	89d8 <_fclose_r+0x6c>
    89c0:	e1a00005 	mov	r0, r5
    89c4:	e594101c 	ldr	r1, [r4, #28]
    89c8:	e1a0e00f 	mov	lr, pc
    89cc:	e12fff13 	bx	r3
    89d0:	e3500000 	cmp	r0, #0
    89d4:	b3e06000 	mvnlt	r6, #0
    89d8:	e1d430bc 	ldrh	r3, [r4, #12]
    89dc:	e3130080 	tst	r3, #128	; 0x80
    89e0:	1a00001b 	bne	8a54 <_fclose_r+0xe8>
    89e4:	e5941030 	ldr	r1, [r4, #48]	; 0x30
    89e8:	e3510000 	cmp	r1, #0
    89ec:	0a000005 	beq	8a08 <_fclose_r+0x9c>
    89f0:	e2843040 	add	r3, r4, #64	; 0x40
    89f4:	e1510003 	cmp	r1, r3
    89f8:	11a00005 	movne	r0, r5
    89fc:	1bfff290 	blne	5444 <_free_r>
    8a00:	e3a03000 	mov	r3, #0
    8a04:	e5843030 	str	r3, [r4, #48]	; 0x30
    8a08:	e5941044 	ldr	r1, [r4, #68]	; 0x44
    8a0c:	e3510000 	cmp	r1, #0
    8a10:	0a000003 	beq	8a24 <_fclose_r+0xb8>
    8a14:	e1a00005 	mov	r0, r5
    8a18:	ebfff289 	bl	5444 <_free_r>
    8a1c:	e3a03000 	mov	r3, #0
    8a20:	e5843044 	str	r3, [r4, #68]	; 0x44
    8a24:	e3a03000 	mov	r3, #0
    8a28:	e1c430bc 	strh	r3, [r4, #12]
    8a2c:	ebfff230 	bl	52f4 <__sfp_lock_release>
    8a30:	e1a00006 	mov	r0, r6
    8a34:	e8bd4070 	pop	{r4, r5, r6, lr}
    8a38:	e12fff1e 	bx	lr
    8a3c:	e1a00005 	mov	r0, r5
    8a40:	ebfff1c5 	bl	515c <__sinit>
    8a44:	e1d460fc 	ldrsh	r6, [r4, #12]
    8a48:	e3560000 	cmp	r6, #0
    8a4c:	1affffd4 	bne	89a4 <_fclose_r+0x38>
    8a50:	eafffff5 	b	8a2c <_fclose_r+0xc0>
    8a54:	e1a00005 	mov	r0, r5
    8a58:	e5941010 	ldr	r1, [r4, #16]
    8a5c:	ebfff278 	bl	5444 <_free_r>
    8a60:	eaffffdf 	b	89e4 <_fclose_r+0x78>

00008a64 <fclose>:
    8a64:	e59f3008 	ldr	r3, [pc, #8]	; 8a74 <fclose+0x10>
    8a68:	e1a01000 	mov	r1, r0
    8a6c:	e5930000 	ldr	r0, [r3]
    8a70:	eaffffbd 	b	896c <_fclose_r>
    8a74:	40000000 	.word	0x40000000

00008a78 <_fputwc_r>:
    8a78:	e1d230bc 	ldrh	r3, [r2, #12]
    8a7c:	e92d45f0 	push	{r4, r5, r6, r7, r8, sl, lr}
    8a80:	e3130a02 	tst	r3, #8192	; 0x2000
    8a84:	e1a04002 	mov	r4, r2
    8a88:	05922064 	ldreq	r2, [r2, #100]	; 0x64
    8a8c:	03833a02 	orreq	r3, r3, #8192	; 0x2000
    8a90:	03822a02 	orreq	r2, r2, #8192	; 0x2000
    8a94:	01c430bc 	strheq	r3, [r4, #12]
    8a98:	05842064 	streq	r2, [r4, #100]	; 0x64
    8a9c:	e24dd00c 	sub	sp, sp, #12
    8aa0:	e1a07000 	mov	r7, r0
    8aa4:	e1a06001 	mov	r6, r1
    8aa8:	ebfff35f 	bl	582c <__locale_mb_cur_max>
    8aac:	e3500001 	cmp	r0, #1
    8ab0:	0a00003c 	beq	8ba8 <_fputwc_r+0x130>
    8ab4:	e28d5004 	add	r5, sp, #4
    8ab8:	e1a00007 	mov	r0, r7
    8abc:	e1a01005 	mov	r1, r5
    8ac0:	e1a02006 	mov	r2, r6
    8ac4:	e284305c 	add	r3, r4, #92	; 0x5c
    8ac8:	eb0003b9 	bl	99b4 <_wcrtomb_r>
    8acc:	e3700001 	cmn	r0, #1
    8ad0:	e1a0a000 	mov	sl, r0
    8ad4:	0a000023 	beq	8b68 <_fputwc_r+0xf0>
    8ad8:	e3500000 	cmp	r0, #0
    8adc:	0a000027 	beq	8b80 <_fputwc_r+0x108>
    8ae0:	e3a08000 	mov	r8, #0
    8ae4:	ea000008 	b	8b0c <_fputwc_r+0x94>
    8ae8:	e5943000 	ldr	r3, [r4]
    8aec:	e7d52008 	ldrb	r2, [r5, r8]
    8af0:	e5c32000 	strb	r2, [r3]
    8af4:	e5943000 	ldr	r3, [r4]
    8af8:	e2833001 	add	r3, r3, #1
    8afc:	e5843000 	str	r3, [r4]
    8b00:	e2888001 	add	r8, r8, #1
    8b04:	e158000a 	cmp	r8, sl
    8b08:	2a00001c 	bcs	8b80 <_fputwc_r+0x108>
    8b0c:	e5943008 	ldr	r3, [r4, #8]
    8b10:	e2433001 	sub	r3, r3, #1
    8b14:	e3530000 	cmp	r3, #0
    8b18:	e5843008 	str	r3, [r4, #8]
    8b1c:	aafffff1 	bge	8ae8 <_fputwc_r+0x70>
    8b20:	e5942018 	ldr	r2, [r4, #24]
    8b24:	e1530002 	cmp	r3, r2
    8b28:	ba000016 	blt	8b88 <_fputwc_r+0x110>
    8b2c:	e5943000 	ldr	r3, [r4]
    8b30:	e7d52008 	ldrb	r2, [r5, r8]
    8b34:	e5c32000 	strb	r2, [r3]
    8b38:	e5943000 	ldr	r3, [r4]
    8b3c:	e5d31000 	ldrb	r1, [r3]
    8b40:	e351000a 	cmp	r1, #10
    8b44:	12833001 	addne	r3, r3, #1
    8b48:	13a00000 	movne	r0, #0
    8b4c:	15843000 	strne	r3, [r4]
    8b50:	01a00007 	moveq	r0, r7
    8b54:	0a00000d 	beq	8b90 <_fputwc_r+0x118>
    8b58:	e3500000 	cmp	r0, #0
    8b5c:	0affffe7 	beq	8b00 <_fputwc_r+0x88>
    8b60:	e3e00000 	mvn	r0, #0
    8b64:	ea000002 	b	8b74 <_fputwc_r+0xfc>
    8b68:	e1d430bc 	ldrh	r3, [r4, #12]
    8b6c:	e3833040 	orr	r3, r3, #64	; 0x40
    8b70:	e1c430bc 	strh	r3, [r4, #12]
    8b74:	e28dd00c 	add	sp, sp, #12
    8b78:	e8bd45f0 	pop	{r4, r5, r6, r7, r8, sl, lr}
    8b7c:	e12fff1e 	bx	lr
    8b80:	e1a00006 	mov	r0, r6
    8b84:	eafffffa 	b	8b74 <_fputwc_r+0xfc>
    8b88:	e7d51008 	ldrb	r1, [r5, r8]
    8b8c:	e1a00007 	mov	r0, r7
    8b90:	e1a02004 	mov	r2, r4
    8b94:	eb000330 	bl	985c <__swbuf_r>
    8b98:	e3700001 	cmn	r0, #1
    8b9c:	13a00000 	movne	r0, #0
    8ba0:	03a00001 	moveq	r0, #1
    8ba4:	eaffffeb 	b	8b58 <_fputwc_r+0xe0>
    8ba8:	e35600ff 	cmp	r6, #255	; 0xff
    8bac:	83a03000 	movhi	r3, #0
    8bb0:	93a03001 	movls	r3, #1
    8bb4:	e3560000 	cmp	r6, #0
    8bb8:	03a03000 	moveq	r3, #0
    8bbc:	e3530000 	cmp	r3, #0
    8bc0:	0affffbb 	beq	8ab4 <_fputwc_r+0x3c>
    8bc4:	e28d5008 	add	r5, sp, #8
    8bc8:	e5656004 	strb	r6, [r5, #-4]!
    8bcc:	e1a0a000 	mov	sl, r0
    8bd0:	eaffffc2 	b	8ae0 <_fputwc_r+0x68>

00008bd4 <fputwc>:
    8bd4:	e92d4070 	push	{r4, r5, r6, lr}
    8bd8:	e59f403c 	ldr	r4, [pc, #60]	; 8c1c <fputwc+0x48>
    8bdc:	e5943000 	ldr	r3, [r4]
    8be0:	e3530000 	cmp	r3, #0
    8be4:	e1a06000 	mov	r6, r0
    8be8:	e1a05001 	mov	r5, r1
    8bec:	0a000005 	beq	8c08 <fputwc+0x34>
    8bf0:	e5932038 	ldr	r2, [r3, #56]	; 0x38
    8bf4:	e3520000 	cmp	r2, #0
    8bf8:	1a000002 	bne	8c08 <fputwc+0x34>
    8bfc:	e1a00003 	mov	r0, r3
    8c00:	ebfff155 	bl	515c <__sinit>
    8c04:	e5943000 	ldr	r3, [r4]
    8c08:	e1a00003 	mov	r0, r3
    8c0c:	e1a01006 	mov	r1, r6
    8c10:	e1a02005 	mov	r2, r5
    8c14:	e8bd4070 	pop	{r4, r5, r6, lr}
    8c18:	eaffff96 	b	8a78 <_fputwc_r>
    8c1c:	40000000 	.word	0x40000000

00008c20 <_fstat_r>:
    8c20:	e92d4038 	push	{r3, r4, r5, lr}
    8c24:	e59f4030 	ldr	r4, [pc, #48]	; 8c5c <_fstat_r+0x3c>
    8c28:	e3a03000 	mov	r3, #0
    8c2c:	e1a05000 	mov	r5, r0
    8c30:	e1a00001 	mov	r0, r1
    8c34:	e1a01002 	mov	r1, r2
    8c38:	e5843000 	str	r3, [r4]
    8c3c:	eb000cf6 	bl	c01c <_fstat>
    8c40:	e3700001 	cmn	r0, #1
    8c44:	1a000002 	bne	8c54 <_fstat_r+0x34>
    8c48:	e5943000 	ldr	r3, [r4]
    8c4c:	e3530000 	cmp	r3, #0
    8c50:	15853000 	strne	r3, [r5]
    8c54:	e8bd4038 	pop	{r3, r4, r5, lr}
    8c58:	e12fff1e 	bx	lr
    8c5c:	40000930 	.word	0x40000930

00008c60 <__sfvwrite_r>:
    8c60:	e92d4ff0 	push	{r4, r5, r6, r7, r8, r9, sl, fp, lr}
    8c64:	e592a008 	ldr	sl, [r2, #8]
    8c68:	e24dd00c 	sub	sp, sp, #12
    8c6c:	e35a0000 	cmp	sl, #0
    8c70:	e1a07002 	mov	r7, r2
    8c74:	e58d0004 	str	r0, [sp, #4]
    8c78:	e1a04001 	mov	r4, r1
    8c7c:	0a00004d 	beq	8db8 <__sfvwrite_r+0x158>
    8c80:	e1d130bc 	ldrh	r3, [r1, #12]
    8c84:	e3130008 	tst	r3, #8
    8c88:	0a00007b 	beq	8e7c <__sfvwrite_r+0x21c>
    8c8c:	e5912010 	ldr	r2, [r1, #16]
    8c90:	e3520000 	cmp	r2, #0
    8c94:	0a000078 	beq	8e7c <__sfvwrite_r+0x21c>
    8c98:	e213b002 	ands	fp, r3, #2
    8c9c:	13a08000 	movne	r8, #0
    8ca0:	e5975000 	ldr	r5, [r7]
    8ca4:	11a06008 	movne	r6, r8
    8ca8:	1a00002e 	bne	8d68 <__sfvwrite_r+0x108>
    8cac:	e2138001 	ands	r8, r3, #1
    8cb0:	11a0c00b 	movne	ip, fp
    8cb4:	11a0800b 	movne	r8, fp
    8cb8:	11a0600b 	movne	r6, fp
    8cbc:	1a000045 	bne	8dd8 <__sfvwrite_r+0x178>
    8cc0:	e1a06008 	mov	r6, r8
    8cc4:	e3560000 	cmp	r6, #0
    8cc8:	0a00001f 	beq	8d4c <__sfvwrite_r+0xec>
    8ccc:	e3130c02 	tst	r3, #512	; 0x200
    8cd0:	e594a008 	ldr	sl, [r4, #8]
    8cd4:	0a0000a6 	beq	8f74 <__sfvwrite_r+0x314>
    8cd8:	e156000a 	cmp	r6, sl
    8cdc:	e1a0b00a 	mov	fp, sl
    8ce0:	2a0000ba 	bcs	8fd0 <__sfvwrite_r+0x370>
    8ce4:	e5940000 	ldr	r0, [r4]
    8ce8:	e1a03006 	mov	r3, r6
    8cec:	e1a0b006 	mov	fp, r6
    8cf0:	e1a09006 	mov	r9, r6
    8cf4:	e1a0a006 	mov	sl, r6
    8cf8:	e1a0200b 	mov	r2, fp
    8cfc:	e1a01008 	mov	r1, r8
    8d00:	e58d3000 	str	r3, [sp]
    8d04:	eb000120 	bl	918c <memmove>
    8d08:	e59d3000 	ldr	r3, [sp]
    8d0c:	e5941008 	ldr	r1, [r4, #8]
    8d10:	e5942000 	ldr	r2, [r4]
    8d14:	e0633001 	rsb	r3, r3, r1
    8d18:	e082b00b 	add	fp, r2, fp
    8d1c:	e5843008 	str	r3, [r4, #8]
    8d20:	e584b000 	str	fp, [r4]
    8d24:	e5973008 	ldr	r3, [r7, #8]
    8d28:	e06aa003 	rsb	sl, sl, r3
    8d2c:	e35a0000 	cmp	sl, #0
    8d30:	e587a008 	str	sl, [r7, #8]
    8d34:	0a00001f 	beq	8db8 <__sfvwrite_r+0x158>
    8d38:	e0696006 	rsb	r6, r9, r6
    8d3c:	e3560000 	cmp	r6, #0
    8d40:	e0888009 	add	r8, r8, r9
    8d44:	e1d430bc 	ldrh	r3, [r4, #12]
    8d48:	1affffdf 	bne	8ccc <__sfvwrite_r+0x6c>
    8d4c:	e5958000 	ldr	r8, [r5]
    8d50:	e5956004 	ldr	r6, [r5, #4]
    8d54:	e2855008 	add	r5, r5, #8
    8d58:	eaffffd9 	b	8cc4 <__sfvwrite_r+0x64>
    8d5c:	e5958000 	ldr	r8, [r5]
    8d60:	e5956004 	ldr	r6, [r5, #4]
    8d64:	e2855008 	add	r5, r5, #8
    8d68:	e3560000 	cmp	r6, #0
    8d6c:	e1a02008 	mov	r2, r8
    8d70:	e59d0004 	ldr	r0, [sp, #4]
    8d74:	0afffff8 	beq	8d5c <__sfvwrite_r+0xfc>
    8d78:	e3560b01 	cmp	r6, #1024	; 0x400
    8d7c:	31a03006 	movcc	r3, r6
    8d80:	23a03b01 	movcs	r3, #1024	; 0x400
    8d84:	e594101c 	ldr	r1, [r4, #28]
    8d88:	e594c024 	ldr	ip, [r4, #36]	; 0x24
    8d8c:	e1a0e00f 	mov	lr, pc
    8d90:	e12fff1c 	bx	ip
    8d94:	e3500000 	cmp	r0, #0
    8d98:	da000070 	ble	8f60 <__sfvwrite_r+0x300>
    8d9c:	e597a008 	ldr	sl, [r7, #8]
    8da0:	e060a00a 	rsb	sl, r0, sl
    8da4:	e35a0000 	cmp	sl, #0
    8da8:	e0888000 	add	r8, r8, r0
    8dac:	e0606006 	rsb	r6, r0, r6
    8db0:	e587a008 	str	sl, [r7, #8]
    8db4:	1affffeb 	bne	8d68 <__sfvwrite_r+0x108>
    8db8:	e1a0000a 	mov	r0, sl
    8dbc:	e28dd00c 	add	sp, sp, #12
    8dc0:	e8bd4ff0 	pop	{r4, r5, r6, r7, r8, r9, sl, fp, lr}
    8dc4:	e12fff1e 	bx	lr
    8dc8:	e5958000 	ldr	r8, [r5]
    8dcc:	e5956004 	ldr	r6, [r5, #4]
    8dd0:	e3a0c000 	mov	ip, #0
    8dd4:	e2855008 	add	r5, r5, #8
    8dd8:	e3560000 	cmp	r6, #0
    8ddc:	0afffff9 	beq	8dc8 <__sfvwrite_r+0x168>
    8de0:	e35c0000 	cmp	ip, #0
    8de4:	0a000046 	beq	8f04 <__sfvwrite_r+0x2a4>
    8de8:	e5943014 	ldr	r3, [r4, #20]
    8dec:	e594a008 	ldr	sl, [r4, #8]
    8df0:	e5940000 	ldr	r0, [r4]
    8df4:	e5941010 	ldr	r1, [r4, #16]
    8df8:	e15b0006 	cmp	fp, r6
    8dfc:	31a0900b 	movcc	r9, fp
    8e00:	21a09006 	movcs	r9, r6
    8e04:	e083a00a 	add	sl, r3, sl
    8e08:	e159000a 	cmp	r9, sl
    8e0c:	d3a02000 	movle	r2, #0
    8e10:	c3a02001 	movgt	r2, #1
    8e14:	e1500001 	cmp	r0, r1
    8e18:	93a02000 	movls	r2, #0
    8e1c:	e3520000 	cmp	r2, #0
    8e20:	1a000041 	bne	8f2c <__sfvwrite_r+0x2cc>
    8e24:	e1590003 	cmp	r9, r3
    8e28:	ba000020 	blt	8eb0 <__sfvwrite_r+0x250>
    8e2c:	e594101c 	ldr	r1, [r4, #28]
    8e30:	e59d0004 	ldr	r0, [sp, #4]
    8e34:	e58dc000 	str	ip, [sp]
    8e38:	e1a02008 	mov	r2, r8
    8e3c:	e594c024 	ldr	ip, [r4, #36]	; 0x24
    8e40:	e1a0e00f 	mov	lr, pc
    8e44:	e12fff1c 	bx	ip
    8e48:	e250a000 	subs	sl, r0, #0
    8e4c:	e59dc000 	ldr	ip, [sp]
    8e50:	da000042 	ble	8f60 <__sfvwrite_r+0x300>
    8e54:	e05bb00a 	subs	fp, fp, sl
    8e58:	0a000022 	beq	8ee8 <__sfvwrite_r+0x288>
    8e5c:	e5970008 	ldr	r0, [r7, #8]
    8e60:	e06a0000 	rsb	r0, sl, r0
    8e64:	e3500000 	cmp	r0, #0
    8e68:	e088800a 	add	r8, r8, sl
    8e6c:	e06a6006 	rsb	r6, sl, r6
    8e70:	e5870008 	str	r0, [r7, #8]
    8e74:	1affffd7 	bne	8dd8 <__sfvwrite_r+0x178>
    8e78:	eaffffcf 	b	8dbc <__sfvwrite_r+0x15c>
    8e7c:	e59d0004 	ldr	r0, [sp, #4]
    8e80:	e1a01004 	mov	r1, r4
    8e84:	ebffe96f 	bl	3448 <__swsetup_r>
    8e88:	e3500000 	cmp	r0, #0
    8e8c:	e1d430bc 	ldrh	r3, [r4, #12]
    8e90:	0affff80 	beq	8c98 <__sfvwrite_r+0x38>
    8e94:	e3833040 	orr	r3, r3, #64	; 0x40
    8e98:	e59d2004 	ldr	r2, [sp, #4]
    8e9c:	e1c430bc 	strh	r3, [r4, #12]
    8ea0:	e3a03009 	mov	r3, #9
    8ea4:	e3e00000 	mvn	r0, #0
    8ea8:	e5823000 	str	r3, [r2]
    8eac:	eaffffc2 	b	8dbc <__sfvwrite_r+0x15c>
    8eb0:	e1a02009 	mov	r2, r9
    8eb4:	e1a01008 	mov	r1, r8
    8eb8:	e58dc000 	str	ip, [sp]
    8ebc:	eb0000b2 	bl	918c <memmove>
    8ec0:	e5942008 	ldr	r2, [r4, #8]
    8ec4:	e5943000 	ldr	r3, [r4]
    8ec8:	e1a0a009 	mov	sl, r9
    8ecc:	e0692002 	rsb	r2, r9, r2
    8ed0:	e0833009 	add	r3, r3, r9
    8ed4:	e05bb00a 	subs	fp, fp, sl
    8ed8:	e5842008 	str	r2, [r4, #8]
    8edc:	e5843000 	str	r3, [r4]
    8ee0:	e59dc000 	ldr	ip, [sp]
    8ee4:	1affffdc 	bne	8e5c <__sfvwrite_r+0x1fc>
    8ee8:	e59d0004 	ldr	r0, [sp, #4]
    8eec:	e1a01004 	mov	r1, r4
    8ef0:	ebffefb8 	bl	4dd8 <_fflush_r>
    8ef4:	e3500000 	cmp	r0, #0
    8ef8:	1a000018 	bne	8f60 <__sfvwrite_r+0x300>
    8efc:	e1a0c00b 	mov	ip, fp
    8f00:	eaffffd5 	b	8e5c <__sfvwrite_r+0x1fc>
    8f04:	e1a00008 	mov	r0, r8
    8f08:	e3a0100a 	mov	r1, #10
    8f0c:	e1a02006 	mov	r2, r6
    8f10:	ebfff478 	bl	60f8 <memchr>
    8f14:	e3500000 	cmp	r0, #0
    8f18:	1280b001 	addne	fp, r0, #1
    8f1c:	1068b00b 	rsbne	fp, r8, fp
    8f20:	0286b001 	addeq	fp, r6, #1
    8f24:	e3a0c001 	mov	ip, #1
    8f28:	eaffffae 	b	8de8 <__sfvwrite_r+0x188>
    8f2c:	e1a01008 	mov	r1, r8
    8f30:	e1a0200a 	mov	r2, sl
    8f34:	e58dc000 	str	ip, [sp]
    8f38:	eb000093 	bl	918c <memmove>
    8f3c:	e5943000 	ldr	r3, [r4]
    8f40:	e083300a 	add	r3, r3, sl
    8f44:	e5843000 	str	r3, [r4]
    8f48:	e59d0004 	ldr	r0, [sp, #4]
    8f4c:	e1a01004 	mov	r1, r4
    8f50:	ebffefa0 	bl	4dd8 <_fflush_r>
    8f54:	e3500000 	cmp	r0, #0
    8f58:	e59dc000 	ldr	ip, [sp]
    8f5c:	0affffbc 	beq	8e54 <__sfvwrite_r+0x1f4>
    8f60:	e1d430bc 	ldrh	r3, [r4, #12]
    8f64:	e3833040 	orr	r3, r3, #64	; 0x40
    8f68:	e1c430bc 	strh	r3, [r4, #12]
    8f6c:	e3e00000 	mvn	r0, #0
    8f70:	eaffff91 	b	8dbc <__sfvwrite_r+0x15c>
    8f74:	e5940000 	ldr	r0, [r4]
    8f78:	e5942010 	ldr	r2, [r4, #16]
    8f7c:	e15a0006 	cmp	sl, r6
    8f80:	23a03000 	movcs	r3, #0
    8f84:	33a03001 	movcc	r3, #1
    8f88:	e1500002 	cmp	r0, r2
    8f8c:	93a03000 	movls	r3, #0
    8f90:	e3530000 	cmp	r3, #0
    8f94:	e1a0900a 	mov	r9, sl
    8f98:	1a00001f 	bne	901c <__sfvwrite_r+0x3bc>
    8f9c:	e5943014 	ldr	r3, [r4, #20]
    8fa0:	e1560003 	cmp	r6, r3
    8fa4:	3a000010 	bcc	8fec <__sfvwrite_r+0x38c>
    8fa8:	e59d0004 	ldr	r0, [sp, #4]
    8fac:	e594101c 	ldr	r1, [r4, #28]
    8fb0:	e1a02008 	mov	r2, r8
    8fb4:	e594c024 	ldr	ip, [r4, #36]	; 0x24
    8fb8:	e1a0e00f 	mov	lr, pc
    8fbc:	e12fff1c 	bx	ip
    8fc0:	e250a000 	subs	sl, r0, #0
    8fc4:	daffffe5 	ble	8f60 <__sfvwrite_r+0x300>
    8fc8:	e1a0900a 	mov	r9, sl
    8fcc:	eaffff54 	b	8d24 <__sfvwrite_r+0xc4>
    8fd0:	e3130d12 	tst	r3, #1152	; 0x480
    8fd4:	1a00001c 	bne	904c <__sfvwrite_r+0x3ec>
    8fd8:	e1a0300a 	mov	r3, sl
    8fdc:	e5940000 	ldr	r0, [r4]
    8fe0:	e1a09006 	mov	r9, r6
    8fe4:	e1a0a006 	mov	sl, r6
    8fe8:	eaffff42 	b	8cf8 <__sfvwrite_r+0x98>
    8fec:	e1a02006 	mov	r2, r6
    8ff0:	e1a01008 	mov	r1, r8
    8ff4:	eb000064 	bl	918c <memmove>
    8ff8:	e5942008 	ldr	r2, [r4, #8]
    8ffc:	e5943000 	ldr	r3, [r4]
    9000:	e0662002 	rsb	r2, r6, r2
    9004:	e0833006 	add	r3, r3, r6
    9008:	e5842008 	str	r2, [r4, #8]
    900c:	e5843000 	str	r3, [r4]
    9010:	e1a0a006 	mov	sl, r6
    9014:	e1a09006 	mov	r9, r6
    9018:	eaffff41 	b	8d24 <__sfvwrite_r+0xc4>
    901c:	e1a01008 	mov	r1, r8
    9020:	e1a0200a 	mov	r2, sl
    9024:	eb000058 	bl	918c <memmove>
    9028:	e5943000 	ldr	r3, [r4]
    902c:	e083300a 	add	r3, r3, sl
    9030:	e5843000 	str	r3, [r4]
    9034:	e59d0004 	ldr	r0, [sp, #4]
    9038:	e1a01004 	mov	r1, r4
    903c:	ebffef65 	bl	4dd8 <_fflush_r>
    9040:	e3500000 	cmp	r0, #0
    9044:	0affff36 	beq	8d24 <__sfvwrite_r+0xc4>
    9048:	eaffffc4 	b	8f60 <__sfvwrite_r+0x300>
    904c:	e5941010 	ldr	r1, [r4, #16]
    9050:	e5949000 	ldr	r9, [r4]
    9054:	e594a014 	ldr	sl, [r4, #20]
    9058:	e0619009 	rsb	r9, r1, r9
    905c:	e08aa08a 	add	sl, sl, sl, lsl #1
    9060:	e08aafaa 	add	sl, sl, sl, lsr #31
    9064:	e2890001 	add	r0, r9, #1
    9068:	e0800006 	add	r0, r0, r6
    906c:	e1a0a0ca 	asr	sl, sl, #1
    9070:	e15a0000 	cmp	sl, r0
    9074:	e1a0200a 	mov	r2, sl
    9078:	31a0a000 	movcc	sl, r0
    907c:	31a02000 	movcc	r2, r0
    9080:	e3130b01 	tst	r3, #1024	; 0x400
    9084:	e59d0004 	ldr	r0, [sp, #4]
    9088:	0a000015 	beq	90e4 <__sfvwrite_r+0x484>
    908c:	e1a01002 	mov	r1, r2
    9090:	ebfff253 	bl	59e4 <_malloc_r>
    9094:	e250b000 	subs	fp, r0, #0
    9098:	0a000017 	beq	90fc <__sfvwrite_r+0x49c>
    909c:	e5941010 	ldr	r1, [r4, #16]
    90a0:	e1a02009 	mov	r2, r9
    90a4:	ebfff451 	bl	61f0 <memcpy>
    90a8:	e1d430bc 	ldrh	r3, [r4, #12]
    90ac:	e3c33d12 	bic	r3, r3, #1152	; 0x480
    90b0:	e3833080 	orr	r3, r3, #128	; 0x80
    90b4:	e1c430bc 	strh	r3, [r4, #12]
    90b8:	e08b0009 	add	r0, fp, r9
    90bc:	e069900a 	rsb	r9, r9, sl
    90c0:	e584b010 	str	fp, [r4, #16]
    90c4:	e584a014 	str	sl, [r4, #20]
    90c8:	e5849008 	str	r9, [r4, #8]
    90cc:	e5840000 	str	r0, [r4]
    90d0:	e1a03006 	mov	r3, r6
    90d4:	e1a0b006 	mov	fp, r6
    90d8:	e1a09006 	mov	r9, r6
    90dc:	e1a0a006 	mov	sl, r6
    90e0:	eaffff04 	b	8cf8 <__sfvwrite_r+0x98>
    90e4:	eb000085 	bl	9300 <_realloc_r>
    90e8:	e250b000 	subs	fp, r0, #0
    90ec:	1afffff1 	bne	90b8 <__sfvwrite_r+0x458>
    90f0:	e59d0004 	ldr	r0, [sp, #4]
    90f4:	e5941010 	ldr	r1, [r4, #16]
    90f8:	ebfff0d1 	bl	5444 <_free_r>
    90fc:	e59d2004 	ldr	r2, [sp, #4]
    9100:	e3a0300c 	mov	r3, #12
    9104:	e5823000 	str	r3, [r2]
    9108:	eaffff94 	b	8f60 <__sfvwrite_r+0x300>

0000910c <_isatty_r>:
    910c:	e92d4038 	push	{r3, r4, r5, lr}
    9110:	e59f402c 	ldr	r4, [pc, #44]	; 9144 <_isatty_r+0x38>
    9114:	e3a03000 	mov	r3, #0
    9118:	e1a05000 	mov	r5, r0
    911c:	e1a00001 	mov	r0, r1
    9120:	e5843000 	str	r3, [r4]
    9124:	eb000be7 	bl	c0c8 <_isatty>
    9128:	e3700001 	cmn	r0, #1
    912c:	1a000002 	bne	913c <_isatty_r+0x30>
    9130:	e5943000 	ldr	r3, [r4]
    9134:	e3530000 	cmp	r3, #0
    9138:	15853000 	strne	r3, [r5]
    913c:	e8bd4038 	pop	{r3, r4, r5, lr}
    9140:	e12fff1e 	bx	lr
    9144:	40000930 	.word	0x40000930

00009148 <_lseek_r>:
    9148:	e92d4038 	push	{r3, r4, r5, lr}
    914c:	e59f4034 	ldr	r4, [pc, #52]	; 9188 <_lseek_r+0x40>
    9150:	e1a05000 	mov	r5, r0
    9154:	e1a00001 	mov	r0, r1
    9158:	e1a01002 	mov	r1, r2
    915c:	e1a02003 	mov	r2, r3
    9160:	e3a03000 	mov	r3, #0
    9164:	e5843000 	str	r3, [r4]
    9168:	eb000bed 	bl	c124 <_lseek>
    916c:	e3700001 	cmn	r0, #1
    9170:	1a000002 	bne	9180 <_lseek_r+0x38>
    9174:	e5943000 	ldr	r3, [r4]
    9178:	e3530000 	cmp	r3, #0
    917c:	15853000 	strne	r3, [r5]
    9180:	e8bd4038 	pop	{r3, r4, r5, lr}
    9184:	e12fff1e 	bx	lr
    9188:	40000930 	.word	0x40000930

0000918c <memmove>:
    918c:	e1500001 	cmp	r0, r1
    9190:	e92d00f0 	push	{r4, r5, r6, r7}
    9194:	9a000011 	bls	91e0 <memmove+0x54>
    9198:	e0814002 	add	r4, r1, r2
    919c:	e1500004 	cmp	r0, r4
    91a0:	2a00000e 	bcs	91e0 <memmove+0x54>
    91a4:	e3520000 	cmp	r2, #0
    91a8:	0a00000a 	beq	91d8 <memmove+0x4c>
    91ac:	e2621000 	rsb	r1, r2, #0
    91b0:	e1a03002 	mov	r3, r2
    91b4:	e0802002 	add	r2, r0, r2
    91b8:	e0844001 	add	r4, r4, r1
    91bc:	e0822001 	add	r2, r2, r1
    91c0:	e0841003 	add	r1, r4, r3
    91c4:	e551c001 	ldrb	ip, [r1, #-1]
    91c8:	e0821003 	add	r1, r2, r3
    91cc:	e2533001 	subs	r3, r3, #1
    91d0:	e541c001 	strb	ip, [r1, #-1]
    91d4:	1afffff9 	bne	91c0 <memmove+0x34>
    91d8:	e8bd00f0 	pop	{r4, r5, r6, r7}
    91dc:	e12fff1e 	bx	lr
    91e0:	e352000f 	cmp	r2, #15
    91e4:	91a03000 	movls	r3, r0
    91e8:	9a00002b 	bls	929c <memmove+0x110>
    91ec:	e1803001 	orr	r3, r0, r1
    91f0:	e3130003 	tst	r3, #3
    91f4:	11a03000 	movne	r3, r0
    91f8:	1a000029 	bne	92a4 <memmove+0x118>
    91fc:	e2426010 	sub	r6, r2, #16
    9200:	e1a06226 	lsr	r6, r6, #4
    9204:	e2815010 	add	r5, r1, #16
    9208:	e0855206 	add	r5, r5, r6, lsl #4
    920c:	e1a03001 	mov	r3, r1
    9210:	e1a0c000 	mov	ip, r0
    9214:	e5934000 	ldr	r4, [r3]
    9218:	e58c4000 	str	r4, [ip]
    921c:	e5934004 	ldr	r4, [r3, #4]
    9220:	e58c4004 	str	r4, [ip, #4]
    9224:	e5934008 	ldr	r4, [r3, #8]
    9228:	e58c4008 	str	r4, [ip, #8]
    922c:	e593400c 	ldr	r4, [r3, #12]
    9230:	e2833010 	add	r3, r3, #16
    9234:	e1550003 	cmp	r5, r3
    9238:	e58c400c 	str	r4, [ip, #12]
    923c:	e28cc010 	add	ip, ip, #16
    9240:	1afffff3 	bne	9214 <memmove+0x88>
    9244:	e286c001 	add	ip, r6, #1
    9248:	e202200f 	and	r2, r2, #15
    924c:	e1a0c20c 	lsl	ip, ip, #4
    9250:	e3520003 	cmp	r2, #3
    9254:	e080300c 	add	r3, r0, ip
    9258:	e081100c 	add	r1, r1, ip
    925c:	9a00000e 	bls	929c <memmove+0x110>
    9260:	e2427004 	sub	r7, r2, #4
    9264:	e1a07127 	lsr	r7, r7, #2
    9268:	e0836107 	add	r6, r3, r7, lsl #2
    926c:	e1a04001 	mov	r4, r1
    9270:	e2866004 	add	r6, r6, #4
    9274:	e1a0c003 	mov	ip, r3
    9278:	e4945004 	ldr	r5, [r4], #4
    927c:	e48c5004 	str	r5, [ip], #4
    9280:	e15c0006 	cmp	ip, r6
    9284:	1afffffb 	bne	9278 <memmove+0xec>
    9288:	e287c001 	add	ip, r7, #1
    928c:	e1a0c10c 	lsl	ip, ip, #2
    9290:	e2022003 	and	r2, r2, #3
    9294:	e081100c 	add	r1, r1, ip
    9298:	e083300c 	add	r3, r3, ip
    929c:	e3520000 	cmp	r2, #0
    92a0:	0affffcc 	beq	91d8 <memmove+0x4c>
    92a4:	e0812002 	add	r2, r1, r2
    92a8:	e4d1c001 	ldrb	ip, [r1], #1
    92ac:	e1510002 	cmp	r1, r2
    92b0:	e4c3c001 	strb	ip, [r3], #1
    92b4:	1afffffb 	bne	92a8 <memmove+0x11c>
    92b8:	eaffffc6 	b	91d8 <memmove+0x4c>

000092bc <_read_r>:
    92bc:	e92d4038 	push	{r3, r4, r5, lr}
    92c0:	e59f4034 	ldr	r4, [pc, #52]	; 92fc <_read_r+0x40>
    92c4:	e1a05000 	mov	r5, r0
    92c8:	e1a00001 	mov	r0, r1
    92cc:	e1a01002 	mov	r1, r2
    92d0:	e1a02003 	mov	r2, r3
    92d4:	e3a03000 	mov	r3, #0
    92d8:	e5843000 	str	r3, [r4]
    92dc:	eb000ba6 	bl	c17c <_read>
    92e0:	e3700001 	cmn	r0, #1
    92e4:	1a000002 	bne	92f4 <_read_r+0x38>
    92e8:	e5943000 	ldr	r3, [r4]
    92ec:	e3530000 	cmp	r3, #0
    92f0:	15853000 	strne	r3, [r5]
    92f4:	e8bd4038 	pop	{r3, r4, r5, lr}
    92f8:	e12fff1e 	bx	lr
    92fc:	40000930 	.word	0x40000930

00009300 <_realloc_r>:
    9300:	e92d4ff0 	push	{r4, r5, r6, r7, r8, r9, sl, fp, lr}
    9304:	e2514000 	subs	r4, r1, #0
    9308:	e24dd00c 	sub	sp, sp, #12
    930c:	e1a08000 	mov	r8, r0
    9310:	e1a07002 	mov	r7, r2
    9314:	0a0000d0 	beq	965c <_realloc_r+0x35c>
    9318:	ebfff464 	bl	64b0 <__malloc_lock>
    931c:	e287500b 	add	r5, r7, #11
    9320:	e3550016 	cmp	r5, #22
    9324:	83c55007 	bichi	r5, r5, #7
    9328:	93a02010 	movls	r2, #16
    932c:	81a00fa5 	lsrhi	r0, r5, #31
    9330:	93a00000 	movls	r0, #0
    9334:	91a05002 	movls	r5, r2
    9338:	81a02005 	movhi	r2, r5
    933c:	e1550007 	cmp	r5, r7
    9340:	33800001 	orrcc	r0, r0, #1
    9344:	e3500000 	cmp	r0, #0
    9348:	13a0300c 	movne	r3, #12
    934c:	e514c004 	ldr	ip, [r4, #-4]
    9350:	13a07000 	movne	r7, #0
    9354:	15883000 	strne	r3, [r8]
    9358:	1a000059 	bne	94c4 <_realloc_r+0x1c4>
    935c:	e3cc9003 	bic	r9, ip, #3
    9360:	e1590002 	cmp	r9, r2
    9364:	e244b008 	sub	fp, r4, #8
    9368:	a1a06009 	movge	r6, r9
    936c:	aa000047 	bge	9490 <_realloc_r+0x190>
    9370:	e59f34e0 	ldr	r3, [pc, #1248]	; 9858 <_realloc_r+0x558>
    9374:	e593e008 	ldr	lr, [r3, #8]
    9378:	e08b1009 	add	r1, fp, r9
    937c:	e15e0001 	cmp	lr, r1
    9380:	0a0000b9 	beq	966c <_realloc_r+0x36c>
    9384:	e5916004 	ldr	r6, [r1, #4]
    9388:	e3c6a001 	bic	sl, r6, #1
    938c:	e081a00a 	add	sl, r1, sl
    9390:	e59aa004 	ldr	sl, [sl, #4]
    9394:	e31a0001 	tst	sl, #1
    9398:	11a01000 	movne	r1, r0
    939c:	0a000059 	beq	9508 <_realloc_r+0x208>
    93a0:	e31c0001 	tst	ip, #1
    93a4:	1a00008e 	bne	95e4 <_realloc_r+0x2e4>
    93a8:	e514a008 	ldr	sl, [r4, #-8]
    93ac:	e06aa00b 	rsb	sl, sl, fp
    93b0:	e59ac004 	ldr	ip, [sl, #4]
    93b4:	e3ccc003 	bic	ip, ip, #3
    93b8:	e08cc009 	add	ip, ip, r9
    93bc:	e3510000 	cmp	r1, #0
    93c0:	e58dc004 	str	ip, [sp, #4]
    93c4:	0a000058 	beq	952c <_realloc_r+0x22c>
    93c8:	e151000e 	cmp	r1, lr
    93cc:	e080600c 	add	r6, r0, ip
    93d0:	0a0000da 	beq	9740 <_realloc_r+0x440>
    93d4:	e1520006 	cmp	r2, r6
    93d8:	ca000053 	bgt	952c <_realloc_r+0x22c>
    93dc:	e2812008 	add	r2, r1, #8
    93e0:	e892000c 	ldm	r2, {r2, r3}
    93e4:	e5832008 	str	r2, [r3, #8]
    93e8:	e582300c 	str	r3, [r2, #12]
    93ec:	e1a0700a 	mov	r7, sl
    93f0:	e59a300c 	ldr	r3, [sl, #12]
    93f4:	e5b71008 	ldr	r1, [r7, #8]!
    93f8:	e2492004 	sub	r2, r9, #4
    93fc:	e3520024 	cmp	r2, #36	; 0x24
    9400:	e581300c 	str	r3, [r1, #12]
    9404:	e5831008 	str	r1, [r3, #8]
    9408:	8a000105 	bhi	9824 <_realloc_r+0x524>
    940c:	e3520013 	cmp	r2, #19
    9410:	91a03007 	movls	r3, r7
    9414:	9a000014 	bls	946c <_realloc_r+0x16c>
    9418:	e5943000 	ldr	r3, [r4]
    941c:	e58a3008 	str	r3, [sl, #8]
    9420:	e5943004 	ldr	r3, [r4, #4]
    9424:	e352001b 	cmp	r2, #27
    9428:	e58a300c 	str	r3, [sl, #12]
    942c:	92844008 	addls	r4, r4, #8
    9430:	928a3010 	addls	r3, sl, #16
    9434:	9a00000c 	bls	946c <_realloc_r+0x16c>
    9438:	e5943008 	ldr	r3, [r4, #8]
    943c:	e58a3010 	str	r3, [sl, #16]
    9440:	e594300c 	ldr	r3, [r4, #12]
    9444:	e58a3014 	str	r3, [sl, #20]
    9448:	e3520024 	cmp	r2, #36	; 0x24
    944c:	05943010 	ldreq	r3, [r4, #16]
    9450:	058a3018 	streq	r3, [sl, #24]
    9454:	05942014 	ldreq	r2, [r4, #20]
    9458:	058a201c 	streq	r2, [sl, #28]
    945c:	128a3018 	addne	r3, sl, #24
    9460:	12844010 	addne	r4, r4, #16
    9464:	028a3020 	addeq	r3, sl, #32
    9468:	02844018 	addeq	r4, r4, #24
    946c:	e5942000 	ldr	r2, [r4]
    9470:	e5832000 	str	r2, [r3]
    9474:	e5942004 	ldr	r2, [r4, #4]
    9478:	e5832004 	str	r2, [r3, #4]
    947c:	e5942008 	ldr	r2, [r4, #8]
    9480:	e5832008 	str	r2, [r3, #8]
    9484:	e59ac004 	ldr	ip, [sl, #4]
    9488:	e1a04007 	mov	r4, r7
    948c:	e1a0b00a 	mov	fp, sl
    9490:	e0653006 	rsb	r3, r5, r6
    9494:	e353000f 	cmp	r3, #15
    9498:	e20cc001 	and	ip, ip, #1
    949c:	8a00000c 	bhi	94d4 <_realloc_r+0x1d4>
    94a0:	e18cc006 	orr	ip, ip, r6
    94a4:	e58bc004 	str	ip, [fp, #4]
    94a8:	e08bb006 	add	fp, fp, r6
    94ac:	e59b3004 	ldr	r3, [fp, #4]
    94b0:	e3833001 	orr	r3, r3, #1
    94b4:	e58b3004 	str	r3, [fp, #4]
    94b8:	e1a00008 	mov	r0, r8
    94bc:	ebfff3fc 	bl	64b4 <__malloc_unlock>
    94c0:	e1a07004 	mov	r7, r4
    94c4:	e1a00007 	mov	r0, r7
    94c8:	e28dd00c 	add	sp, sp, #12
    94cc:	e8bd4ff0 	pop	{r4, r5, r6, r7, r8, r9, sl, fp, lr}
    94d0:	e12fff1e 	bx	lr
    94d4:	e08b1005 	add	r1, fp, r5
    94d8:	e3832001 	orr	r2, r3, #1
    94dc:	e18c5005 	orr	r5, ip, r5
    94e0:	e58b5004 	str	r5, [fp, #4]
    94e4:	e5812004 	str	r2, [r1, #4]
    94e8:	e0813003 	add	r3, r1, r3
    94ec:	e5932004 	ldr	r2, [r3, #4]
    94f0:	e3822001 	orr	r2, r2, #1
    94f4:	e5832004 	str	r2, [r3, #4]
    94f8:	e1a00008 	mov	r0, r8
    94fc:	e2811008 	add	r1, r1, #8
    9500:	ebffefcf 	bl	5444 <_free_r>
    9504:	eaffffeb 	b	94b8 <_realloc_r+0x1b8>
    9508:	e3c60003 	bic	r0, r6, #3
    950c:	e0806009 	add	r6, r0, r9
    9510:	e1520006 	cmp	r2, r6
    9514:	caffffa1 	bgt	93a0 <_realloc_r+0xa0>
    9518:	e2812008 	add	r2, r1, #8
    951c:	e892000c 	ldm	r2, {r2, r3}
    9520:	e582300c 	str	r3, [r2, #12]
    9524:	e5832008 	str	r2, [r3, #8]
    9528:	eaffffd8 	b	9490 <_realloc_r+0x190>
    952c:	e59d3004 	ldr	r3, [sp, #4]
    9530:	e1520003 	cmp	r2, r3
    9534:	ca00002a 	bgt	95e4 <_realloc_r+0x2e4>
    9538:	e1a0600a 	mov	r6, sl
    953c:	e59a300c 	ldr	r3, [sl, #12]
    9540:	e5b61008 	ldr	r1, [r6, #8]!
    9544:	e2492004 	sub	r2, r9, #4
    9548:	e3520024 	cmp	r2, #36	; 0x24
    954c:	e581300c 	str	r3, [r1, #12]
    9550:	e5831008 	str	r1, [r3, #8]
    9554:	8a00006e 	bhi	9714 <_realloc_r+0x414>
    9558:	e3520013 	cmp	r2, #19
    955c:	91a03006 	movls	r3, r6
    9560:	9a000014 	bls	95b8 <_realloc_r+0x2b8>
    9564:	e5943000 	ldr	r3, [r4]
    9568:	e58a3008 	str	r3, [sl, #8]
    956c:	e5943004 	ldr	r3, [r4, #4]
    9570:	e352001b 	cmp	r2, #27
    9574:	e58a300c 	str	r3, [sl, #12]
    9578:	92844008 	addls	r4, r4, #8
    957c:	928a3010 	addls	r3, sl, #16
    9580:	9a00000c 	bls	95b8 <_realloc_r+0x2b8>
    9584:	e5943008 	ldr	r3, [r4, #8]
    9588:	e58a3010 	str	r3, [sl, #16]
    958c:	e594300c 	ldr	r3, [r4, #12]
    9590:	e58a3014 	str	r3, [sl, #20]
    9594:	e3520024 	cmp	r2, #36	; 0x24
    9598:	05943010 	ldreq	r3, [r4, #16]
    959c:	058a3018 	streq	r3, [sl, #24]
    95a0:	05942014 	ldreq	r2, [r4, #20]
    95a4:	058a201c 	streq	r2, [sl, #28]
    95a8:	128a3018 	addne	r3, sl, #24
    95ac:	12844010 	addne	r4, r4, #16
    95b0:	028a3020 	addeq	r3, sl, #32
    95b4:	02844018 	addeq	r4, r4, #24
    95b8:	e5942000 	ldr	r2, [r4]
    95bc:	e5832000 	str	r2, [r3]
    95c0:	e5942004 	ldr	r2, [r4, #4]
    95c4:	e5832004 	str	r2, [r3, #4]
    95c8:	e5942008 	ldr	r2, [r4, #8]
    95cc:	e5832008 	str	r2, [r3, #8]
    95d0:	e1a04006 	mov	r4, r6
    95d4:	e59ac004 	ldr	ip, [sl, #4]
    95d8:	e59d6004 	ldr	r6, [sp, #4]
    95dc:	e1a0b00a 	mov	fp, sl
    95e0:	eaffffaa 	b	9490 <_realloc_r+0x190>
    95e4:	e1a01007 	mov	r1, r7
    95e8:	e1a00008 	mov	r0, r8
    95ec:	ebfff0fc 	bl	59e4 <_malloc_r>
    95f0:	e2507000 	subs	r7, r0, #0
    95f4:	0a000015 	beq	9650 <_realloc_r+0x350>
    95f8:	e514c004 	ldr	ip, [r4, #-4]
    95fc:	e3cc3001 	bic	r3, ip, #1
    9600:	e2472008 	sub	r2, r7, #8
    9604:	e08b3003 	add	r3, fp, r3
    9608:	e1520003 	cmp	r2, r3
    960c:	0a000080 	beq	9814 <_realloc_r+0x514>
    9610:	e2492004 	sub	r2, r9, #4
    9614:	e3520024 	cmp	r2, #36	; 0x24
    9618:	8a000045 	bhi	9734 <_realloc_r+0x434>
    961c:	e3520013 	cmp	r2, #19
    9620:	91a03007 	movls	r3, r7
    9624:	91a02004 	movls	r2, r4
    9628:	8a000023 	bhi	96bc <_realloc_r+0x3bc>
    962c:	e5921000 	ldr	r1, [r2]
    9630:	e5831000 	str	r1, [r3]
    9634:	e5921004 	ldr	r1, [r2, #4]
    9638:	e5831004 	str	r1, [r3, #4]
    963c:	e5922008 	ldr	r2, [r2, #8]
    9640:	e5832008 	str	r2, [r3, #8]
    9644:	e1a00008 	mov	r0, r8
    9648:	e1a01004 	mov	r1, r4
    964c:	ebffef7c 	bl	5444 <_free_r>
    9650:	e1a00008 	mov	r0, r8
    9654:	ebfff396 	bl	64b4 <__malloc_unlock>
    9658:	eaffff99 	b	94c4 <_realloc_r+0x1c4>
    965c:	e1a01002 	mov	r1, r2
    9660:	ebfff0df 	bl	59e4 <_malloc_r>
    9664:	e1a07000 	mov	r7, r0
    9668:	eaffff95 	b	94c4 <_realloc_r+0x1c4>
    966c:	e59e0004 	ldr	r0, [lr, #4]
    9670:	e3c00003 	bic	r0, r0, #3
    9674:	e0801009 	add	r1, r0, r9
    9678:	e2856010 	add	r6, r5, #16
    967c:	e1510006 	cmp	r1, r6
    9680:	b1a0100e 	movlt	r1, lr
    9684:	baffff45 	blt	93a0 <_realloc_r+0xa0>
    9688:	e0652001 	rsb	r2, r5, r1
    968c:	e08bb005 	add	fp, fp, r5
    9690:	e3822001 	orr	r2, r2, #1
    9694:	e58b2004 	str	r2, [fp, #4]
    9698:	e5142004 	ldr	r2, [r4, #-4]
    969c:	e2022001 	and	r2, r2, #1
    96a0:	e1855002 	orr	r5, r5, r2
    96a4:	e5045004 	str	r5, [r4, #-4]
    96a8:	e1a00008 	mov	r0, r8
    96ac:	e583b008 	str	fp, [r3, #8]
    96b0:	e1a07004 	mov	r7, r4
    96b4:	ebfff37e 	bl	64b4 <__malloc_unlock>
    96b8:	eaffff81 	b	94c4 <_realloc_r+0x1c4>
    96bc:	e5943000 	ldr	r3, [r4]
    96c0:	e5873000 	str	r3, [r7]
    96c4:	e5943004 	ldr	r3, [r4, #4]
    96c8:	e352001b 	cmp	r2, #27
    96cc:	e5873004 	str	r3, [r7, #4]
    96d0:	92842008 	addls	r2, r4, #8
    96d4:	92873008 	addls	r3, r7, #8
    96d8:	9affffd3 	bls	962c <_realloc_r+0x32c>
    96dc:	e5943008 	ldr	r3, [r4, #8]
    96e0:	e5873008 	str	r3, [r7, #8]
    96e4:	e594300c 	ldr	r3, [r4, #12]
    96e8:	e587300c 	str	r3, [r7, #12]
    96ec:	e3520024 	cmp	r2, #36	; 0x24
    96f0:	05943010 	ldreq	r3, [r4, #16]
    96f4:	05873010 	streq	r3, [r7, #16]
    96f8:	05942014 	ldreq	r2, [r4, #20]
    96fc:	12873010 	addne	r3, r7, #16
    9700:	05872014 	streq	r2, [r7, #20]
    9704:	12842010 	addne	r2, r4, #16
    9708:	02873018 	addeq	r3, r7, #24
    970c:	02842018 	addeq	r2, r4, #24
    9710:	eaffffc5 	b	962c <_realloc_r+0x32c>
    9714:	e1a01004 	mov	r1, r4
    9718:	e1a00006 	mov	r0, r6
    971c:	ebfffe9a 	bl	918c <memmove>
    9720:	e1a04006 	mov	r4, r6
    9724:	e59ac004 	ldr	ip, [sl, #4]
    9728:	e59d6004 	ldr	r6, [sp, #4]
    972c:	e1a0b00a 	mov	fp, sl
    9730:	eaffff56 	b	9490 <_realloc_r+0x190>
    9734:	e1a01004 	mov	r1, r4
    9738:	ebfffe93 	bl	918c <memmove>
    973c:	eaffffc0 	b	9644 <_realloc_r+0x344>
    9740:	e2851010 	add	r1, r5, #16
    9744:	e1560001 	cmp	r6, r1
    9748:	baffff77 	blt	952c <_realloc_r+0x22c>
    974c:	e1a0700a 	mov	r7, sl
    9750:	e59a100c 	ldr	r1, [sl, #12]
    9754:	e5b70008 	ldr	r0, [r7, #8]!
    9758:	e2492004 	sub	r2, r9, #4
    975c:	e3520024 	cmp	r2, #36	; 0x24
    9760:	e580100c 	str	r1, [r0, #12]
    9764:	e5810008 	str	r0, [r1, #8]
    9768:	8a000034 	bhi	9840 <_realloc_r+0x540>
    976c:	e3520013 	cmp	r2, #19
    9770:	91a02007 	movls	r2, r7
    9774:	9a000014 	bls	97cc <_realloc_r+0x4cc>
    9778:	e5941000 	ldr	r1, [r4]
    977c:	e58a1008 	str	r1, [sl, #8]
    9780:	e5941004 	ldr	r1, [r4, #4]
    9784:	e352001b 	cmp	r2, #27
    9788:	e58a100c 	str	r1, [sl, #12]
    978c:	928a2010 	addls	r2, sl, #16
    9790:	92844008 	addls	r4, r4, #8
    9794:	9a00000c 	bls	97cc <_realloc_r+0x4cc>
    9798:	e5941008 	ldr	r1, [r4, #8]
    979c:	e58a1010 	str	r1, [sl, #16]
    97a0:	e594100c 	ldr	r1, [r4, #12]
    97a4:	e58a1014 	str	r1, [sl, #20]
    97a8:	e3520024 	cmp	r2, #36	; 0x24
    97ac:	05942010 	ldreq	r2, [r4, #16]
    97b0:	058a2018 	streq	r2, [sl, #24]
    97b4:	05941014 	ldreq	r1, [r4, #20]
    97b8:	058a101c 	streq	r1, [sl, #28]
    97bc:	128a2018 	addne	r2, sl, #24
    97c0:	12844010 	addne	r4, r4, #16
    97c4:	028a2020 	addeq	r2, sl, #32
    97c8:	02844018 	addeq	r4, r4, #24
    97cc:	e5941000 	ldr	r1, [r4]
    97d0:	e5821000 	str	r1, [r2]
    97d4:	e5941004 	ldr	r1, [r4, #4]
    97d8:	e5821004 	str	r1, [r2, #4]
    97dc:	e5941008 	ldr	r1, [r4, #8]
    97e0:	e5821008 	str	r1, [r2, #8]
    97e4:	e0651006 	rsb	r1, r5, r6
    97e8:	e08a2005 	add	r2, sl, r5
    97ec:	e3811001 	orr	r1, r1, #1
    97f0:	e5821004 	str	r1, [r2, #4]
    97f4:	e59a1004 	ldr	r1, [sl, #4]
    97f8:	e2011001 	and	r1, r1, #1
    97fc:	e1855001 	orr	r5, r5, r1
    9800:	e58a5004 	str	r5, [sl, #4]
    9804:	e1a00008 	mov	r0, r8
    9808:	e5832008 	str	r2, [r3, #8]
    980c:	ebfff328 	bl	64b4 <__malloc_unlock>
    9810:	eaffff2b 	b	94c4 <_realloc_r+0x1c4>
    9814:	e5176004 	ldr	r6, [r7, #-4]
    9818:	e3c66003 	bic	r6, r6, #3
    981c:	e0866009 	add	r6, r6, r9
    9820:	eaffff1a 	b	9490 <_realloc_r+0x190>
    9824:	e1a01004 	mov	r1, r4
    9828:	e1a00007 	mov	r0, r7
    982c:	ebfffe56 	bl	918c <memmove>
    9830:	e1a04007 	mov	r4, r7
    9834:	e59ac004 	ldr	ip, [sl, #4]
    9838:	e1a0b00a 	mov	fp, sl
    983c:	eaffff13 	b	9490 <_realloc_r+0x190>
    9840:	e1a00007 	mov	r0, r7
    9844:	e1a01004 	mov	r1, r4
    9848:	e58d3000 	str	r3, [sp]
    984c:	ebfffe4e 	bl	918c <memmove>
    9850:	e59d3000 	ldr	r3, [sp]
    9854:	eaffffe2 	b	97e4 <_realloc_r+0x4e4>
    9858:	400004ac 	.word	0x400004ac

0000985c <__swbuf_r>:
    985c:	e92d4070 	push	{r4, r5, r6, lr}
    9860:	e2504000 	subs	r4, r0, #0
    9864:	e1a05001 	mov	r5, r1
    9868:	e1a06002 	mov	r6, r2
    986c:	0a000002 	beq	987c <__swbuf_r+0x20>
    9870:	e5943038 	ldr	r3, [r4, #56]	; 0x38
    9874:	e3530000 	cmp	r3, #0
    9878:	0a00003d 	beq	9974 <__swbuf_r+0x118>
    987c:	e1d620bc 	ldrh	r2, [r6, #12]
    9880:	e5961018 	ldr	r1, [r6, #24]
    9884:	e3120008 	tst	r2, #8
    9888:	e1a03002 	mov	r3, r2
    988c:	e5861008 	str	r1, [r6, #8]
    9890:	0a000025 	beq	992c <__swbuf_r+0xd0>
    9894:	e5961010 	ldr	r1, [r6, #16]
    9898:	e3510000 	cmp	r1, #0
    989c:	0a000022 	beq	992c <__swbuf_r+0xd0>
    98a0:	e3130a02 	tst	r3, #8192	; 0x2000
    98a4:	05963064 	ldreq	r3, [r6, #100]	; 0x64
    98a8:	03c33a02 	biceq	r3, r3, #8192	; 0x2000
    98ac:	03822a02 	orreq	r2, r2, #8192	; 0x2000
    98b0:	05863064 	streq	r3, [r6, #100]	; 0x64
    98b4:	e5963000 	ldr	r3, [r6]
    98b8:	01c620bc 	strheq	r2, [r6, #12]
    98bc:	e5962014 	ldr	r2, [r6, #20]
    98c0:	e0611003 	rsb	r1, r1, r3
    98c4:	e1510002 	cmp	r1, r2
    98c8:	b2811001 	addlt	r1, r1, #1
    98cc:	aa00001f 	bge	9950 <__swbuf_r+0xf4>
    98d0:	e5962008 	ldr	r2, [r6, #8]
    98d4:	e20550ff 	and	r5, r5, #255	; 0xff
    98d8:	e2422001 	sub	r2, r2, #1
    98dc:	e5862008 	str	r2, [r6, #8]
    98e0:	e4c35001 	strb	r5, [r3], #1
    98e4:	e5962014 	ldr	r2, [r6, #20]
    98e8:	e1520001 	cmp	r2, r1
    98ec:	e5863000 	str	r3, [r6]
    98f0:	0a000005 	beq	990c <__swbuf_r+0xb0>
    98f4:	e1d630bc 	ldrh	r3, [r6, #12]
    98f8:	e355000a 	cmp	r5, #10
    98fc:	13a03000 	movne	r3, #0
    9900:	02033001 	andeq	r3, r3, #1
    9904:	e3530000 	cmp	r3, #0
    9908:	0a000004 	beq	9920 <__swbuf_r+0xc4>
    990c:	e1a00004 	mov	r0, r4
    9910:	e1a01006 	mov	r1, r6
    9914:	ebffed2f 	bl	4dd8 <_fflush_r>
    9918:	e3500000 	cmp	r0, #0
    991c:	13e05000 	mvnne	r5, #0
    9920:	e1a00005 	mov	r0, r5
    9924:	e8bd4070 	pop	{r4, r5, r6, lr}
    9928:	e12fff1e 	bx	lr
    992c:	e1a00004 	mov	r0, r4
    9930:	e1a01006 	mov	r1, r6
    9934:	ebffe6c3 	bl	3448 <__swsetup_r>
    9938:	e3500000 	cmp	r0, #0
    993c:	1a00000e 	bne	997c <__swbuf_r+0x120>
    9940:	e1d620bc 	ldrh	r2, [r6, #12]
    9944:	e5961010 	ldr	r1, [r6, #16]
    9948:	e1a03002 	mov	r3, r2
    994c:	eaffffd3 	b	98a0 <__swbuf_r+0x44>
    9950:	e1a00004 	mov	r0, r4
    9954:	e1a01006 	mov	r1, r6
    9958:	ebffed1e 	bl	4dd8 <_fflush_r>
    995c:	e3500000 	cmp	r0, #0
    9960:	13e05000 	mvnne	r5, #0
    9964:	1affffed 	bne	9920 <__swbuf_r+0xc4>
    9968:	e5963000 	ldr	r3, [r6]
    996c:	e3a01001 	mov	r1, #1
    9970:	eaffffd6 	b	98d0 <__swbuf_r+0x74>
    9974:	ebffedf8 	bl	515c <__sinit>
    9978:	eaffffbf 	b	987c <__swbuf_r+0x20>
    997c:	e1d630bc 	ldrh	r3, [r6, #12]
    9980:	e3833040 	orr	r3, r3, #64	; 0x40
    9984:	e1c630bc 	strh	r3, [r6, #12]
    9988:	e3a03009 	mov	r3, #9
    998c:	e3e05000 	mvn	r5, #0
    9990:	e5843000 	str	r3, [r4]
    9994:	eaffffe1 	b	9920 <__swbuf_r+0xc4>

00009998 <__swbuf>:
    9998:	e1a02001 	mov	r2, r1
    999c:	e59f100c 	ldr	r1, [pc, #12]	; 99b0 <__swbuf+0x18>
    99a0:	e1a03000 	mov	r3, r0
    99a4:	e5910000 	ldr	r0, [r1]
    99a8:	e1a01003 	mov	r1, r3
    99ac:	eaffffaa 	b	985c <__swbuf_r>
    99b0:	40000000 	.word	0x40000000

000099b4 <_wcrtomb_r>:
    99b4:	e92d41f0 	push	{r4, r5, r6, r7, r8, lr}
    99b8:	e1a05003 	mov	r5, r3
    99bc:	e59f3078 	ldr	r3, [pc, #120]	; 9a3c <_wcrtomb_r+0x88>
    99c0:	e2516000 	subs	r6, r1, #0
    99c4:	e24dd018 	sub	sp, sp, #24
    99c8:	e1a04000 	mov	r4, r0
    99cc:	e1a08002 	mov	r8, r2
    99d0:	e5937000 	ldr	r7, [r3]
    99d4:	0a00000f 	beq	9a18 <_wcrtomb_r+0x64>
    99d8:	ebffef90 	bl	5820 <__locale_charset>
    99dc:	e58d5000 	str	r5, [sp]
    99e0:	e1a03000 	mov	r3, r0
    99e4:	e1a01006 	mov	r1, r6
    99e8:	e1a00004 	mov	r0, r4
    99ec:	e1a02008 	mov	r2, r8
    99f0:	e1a0e00f 	mov	lr, pc
    99f4:	e12fff17 	bx	r7
    99f8:	e3700001 	cmn	r0, #1
    99fc:	03a03000 	moveq	r3, #0
    9a00:	05853000 	streq	r3, [r5]
    9a04:	03a0308a 	moveq	r3, #138	; 0x8a
    9a08:	05843000 	streq	r3, [r4]
    9a0c:	e28dd018 	add	sp, sp, #24
    9a10:	e8bd41f0 	pop	{r4, r5, r6, r7, r8, lr}
    9a14:	e12fff1e 	bx	lr
    9a18:	ebffef80 	bl	5820 <__locale_charset>
    9a1c:	e58d5000 	str	r5, [sp]
    9a20:	e1a03000 	mov	r3, r0
    9a24:	e28d100c 	add	r1, sp, #12
    9a28:	e1a00004 	mov	r0, r4
    9a2c:	e1a02006 	mov	r2, r6
    9a30:	e1a0e00f 	mov	lr, pc
    9a34:	e12fff17 	bx	r7
    9a38:	eaffffee 	b	99f8 <_wcrtomb_r+0x44>
    9a3c:	400008bc 	.word	0x400008bc

00009a40 <wcrtomb>:
    9a40:	e92d45f0 	push	{r4, r5, r6, r7, r8, sl, lr}
    9a44:	e2507000 	subs	r7, r0, #0
    9a48:	e24dd01c 	sub	sp, sp, #28
    9a4c:	e59f5088 	ldr	r5, [pc, #136]	; 9adc <wcrtomb+0x9c>
    9a50:	e1a08001 	mov	r8, r1
    9a54:	e1a04002 	mov	r4, r2
    9a58:	0a000013 	beq	9aac <wcrtomb+0x6c>
    9a5c:	e59f307c 	ldr	r3, [pc, #124]	; 9ae0 <wcrtomb+0xa0>
    9a60:	e595a000 	ldr	sl, [r5]
    9a64:	e5936000 	ldr	r6, [r3]
    9a68:	ebffef6c 	bl	5820 <__locale_charset>
    9a6c:	e58d4000 	str	r4, [sp]
    9a70:	e1a03000 	mov	r3, r0
    9a74:	e1a01007 	mov	r1, r7
    9a78:	e1a0000a 	mov	r0, sl
    9a7c:	e1a02008 	mov	r2, r8
    9a80:	e1a0e00f 	mov	lr, pc
    9a84:	e12fff16 	bx	r6
    9a88:	e3700001 	cmn	r0, #1
    9a8c:	03a02000 	moveq	r2, #0
    9a90:	05953000 	ldreq	r3, [r5]
    9a94:	05842000 	streq	r2, [r4]
    9a98:	03a0208a 	moveq	r2, #138	; 0x8a
    9a9c:	05832000 	streq	r2, [r3]
    9aa0:	e28dd01c 	add	sp, sp, #28
    9aa4:	e8bd45f0 	pop	{r4, r5, r6, r7, r8, sl, lr}
    9aa8:	e12fff1e 	bx	lr
    9aac:	e59f302c 	ldr	r3, [pc, #44]	; 9ae0 <wcrtomb+0xa0>
    9ab0:	e5958000 	ldr	r8, [r5]
    9ab4:	e5936000 	ldr	r6, [r3]
    9ab8:	ebffef58 	bl	5820 <__locale_charset>
    9abc:	e58d4000 	str	r4, [sp]
    9ac0:	e1a03000 	mov	r3, r0
    9ac4:	e28d100c 	add	r1, sp, #12
    9ac8:	e1a00008 	mov	r0, r8
    9acc:	e1a02007 	mov	r2, r7
    9ad0:	e1a0e00f 	mov	lr, pc
    9ad4:	e12fff16 	bx	r6
    9ad8:	eaffffea 	b	9a88 <wcrtomb+0x48>
    9adc:	40000000 	.word	0x40000000
    9ae0:	400008bc 	.word	0x400008bc

00009ae4 <__ascii_wctomb>:
    9ae4:	e3510000 	cmp	r1, #0
    9ae8:	0a000006 	beq	9b08 <__ascii_wctomb+0x24>
    9aec:	e35200ff 	cmp	r2, #255	; 0xff
    9af0:	83a0308a 	movhi	r3, #138	; 0x8a
    9af4:	85803000 	strhi	r3, [r0]
    9af8:	95c12000 	strbls	r2, [r1]
    9afc:	83e00000 	mvnhi	r0, #0
    9b00:	93a00001 	movls	r0, #1
    9b04:	e12fff1e 	bx	lr
    9b08:	e1a00001 	mov	r0, r1
    9b0c:	e12fff1e 	bx	lr

00009b10 <_wctomb_r>:
    9b10:	e92d41f0 	push	{r4, r5, r6, r7, r8, lr}
    9b14:	e1a06003 	mov	r6, r3
    9b18:	e59f303c 	ldr	r3, [pc, #60]	; 9b5c <_wctomb_r+0x4c>
    9b1c:	e24dd008 	sub	sp, sp, #8
    9b20:	e1a05000 	mov	r5, r0
    9b24:	e1a08001 	mov	r8, r1
    9b28:	e1a07002 	mov	r7, r2
    9b2c:	e5934000 	ldr	r4, [r3]
    9b30:	ebffef3a 	bl	5820 <__locale_charset>
    9b34:	e58d6000 	str	r6, [sp]
    9b38:	e1a03000 	mov	r3, r0
    9b3c:	e1a01008 	mov	r1, r8
    9b40:	e1a00005 	mov	r0, r5
    9b44:	e1a02007 	mov	r2, r7
    9b48:	e1a0e00f 	mov	lr, pc
    9b4c:	e12fff14 	bx	r4
    9b50:	e28dd008 	add	sp, sp, #8
    9b54:	e8bd41f0 	pop	{r4, r5, r6, r7, r8, lr}
    9b58:	e12fff1e 	bx	lr
    9b5c:	400008bc 	.word	0x400008bc

00009b60 <__aeabi_dmul>:
    9b60:	e92d4070 	push	{r4, r5, r6, lr}
    9b64:	e3a0c0ff 	mov	ip, #255	; 0xff
    9b68:	e38ccc07 	orr	ip, ip, #1792	; 0x700
    9b6c:	e01c4a21 	ands	r4, ip, r1, lsr #20
    9b70:	101c5a23 	andsne	r5, ip, r3, lsr #20
    9b74:	1134000c 	teqne	r4, ip
    9b78:	1135000c 	teqne	r5, ip
    9b7c:	0b000075 	bleq	9d58 <__aeabi_dmul+0x1f8>
    9b80:	e0844005 	add	r4, r4, r5
    9b84:	e0216003 	eor	r6, r1, r3
    9b88:	e1c11a8c 	bic	r1, r1, ip, lsl #21
    9b8c:	e1c33a8c 	bic	r3, r3, ip, lsl #21
    9b90:	e1905601 	orrs	r5, r0, r1, lsl #12
    9b94:	11925603 	orrsne	r5, r2, r3, lsl #12
    9b98:	e3811601 	orr	r1, r1, #1048576	; 0x100000
    9b9c:	e3833601 	orr	r3, r3, #1048576	; 0x100000
    9ba0:	0a00001d 	beq	9c1c <__aeabi_dmul+0xbc>
    9ba4:	e08ec290 	umull	ip, lr, r0, r2
    9ba8:	e3a05000 	mov	r5, #0
    9bac:	e0a5e291 	umlal	lr, r5, r1, r2
    9bb0:	e2062102 	and	r2, r6, #-2147483648	; 0x80000000
    9bb4:	e0a5e390 	umlal	lr, r5, r0, r3
    9bb8:	e3a06000 	mov	r6, #0
    9bbc:	e0a65391 	umlal	r5, r6, r1, r3
    9bc0:	e33c0000 	teq	ip, #0
    9bc4:	138ee001 	orrne	lr, lr, #1
    9bc8:	e24440ff 	sub	r4, r4, #255	; 0xff
    9bcc:	e3560c02 	cmp	r6, #512	; 0x200
    9bd0:	e2c44c03 	sbc	r4, r4, #768	; 0x300
    9bd4:	2a000002 	bcs	9be4 <__aeabi_dmul+0x84>
    9bd8:	e1b0e08e 	lsls	lr, lr, #1
    9bdc:	e0b55005 	adcs	r5, r5, r5
    9be0:	e0a66006 	adc	r6, r6, r6
    9be4:	e1821586 	orr	r1, r2, r6, lsl #11
    9be8:	e1811aa5 	orr	r1, r1, r5, lsr #21
    9bec:	e1a00585 	lsl	r0, r5, #11
    9bf0:	e1800aae 	orr	r0, r0, lr, lsr #21
    9bf4:	e1a0e58e 	lsl	lr, lr, #11
    9bf8:	e254c0fd 	subs	ip, r4, #253	; 0xfd
    9bfc:	835c0c07 	cmphi	ip, #1792	; 0x700
    9c00:	8a000011 	bhi	9c4c <__aeabi_dmul+0xec>
    9c04:	e35e0102 	cmp	lr, #-2147483648	; 0x80000000
    9c08:	01b0e0a0 	lsrseq	lr, r0, #1
    9c0c:	e2b00000 	adcs	r0, r0, #0
    9c10:	e0a11a04 	adc	r1, r1, r4, lsl #20
    9c14:	e8bd4070 	pop	{r4, r5, r6, lr}
    9c18:	e12fff1e 	bx	lr
    9c1c:	e2066102 	and	r6, r6, #-2147483648	; 0x80000000
    9c20:	e1861001 	orr	r1, r6, r1
    9c24:	e1800002 	orr	r0, r0, r2
    9c28:	e0211003 	eor	r1, r1, r3
    9c2c:	e05440ac 	subs	r4, r4, ip, lsr #1
    9c30:	c074500c 	rsbsgt	r5, r4, ip
    9c34:	c1811a04 	orrgt	r1, r1, r4, lsl #20
    9c38:	c8bd4070 	popgt	{r4, r5, r6, lr}
    9c3c:	c12fff1e 	bxgt	lr
    9c40:	e3811601 	orr	r1, r1, #1048576	; 0x100000
    9c44:	e3a0e000 	mov	lr, #0
    9c48:	e2544001 	subs	r4, r4, #1
    9c4c:	ca00005d 	bgt	9dc8 <__aeabi_dmul+0x268>
    9c50:	e3740036 	cmn	r4, #54	; 0x36
    9c54:	d3a00000 	movle	r0, #0
    9c58:	d2011102 	andle	r1, r1, #-2147483648	; 0x80000000
    9c5c:	d8bd4070 	pople	{r4, r5, r6, lr}
    9c60:	d12fff1e 	bxle	lr
    9c64:	e2644000 	rsb	r4, r4, #0
    9c68:	e2544020 	subs	r4, r4, #32
    9c6c:	aa00001a 	bge	9cdc <__aeabi_dmul+0x17c>
    9c70:	e294400c 	adds	r4, r4, #12
    9c74:	ca00000c 	bgt	9cac <__aeabi_dmul+0x14c>
    9c78:	e2844014 	add	r4, r4, #20
    9c7c:	e2645020 	rsb	r5, r4, #32
    9c80:	e1a03510 	lsl	r3, r0, r5
    9c84:	e1a00430 	lsr	r0, r0, r4
    9c88:	e1800511 	orr	r0, r0, r1, lsl r5
    9c8c:	e2012102 	and	r2, r1, #-2147483648	; 0x80000000
    9c90:	e3c11102 	bic	r1, r1, #-2147483648	; 0x80000000
    9c94:	e0900fa3 	adds	r0, r0, r3, lsr #31
    9c98:	e0a21431 	adc	r1, r2, r1, lsr r4
    9c9c:	e19ee083 	orrs	lr, lr, r3, lsl #1
    9ca0:	01c00fa3 	biceq	r0, r0, r3, lsr #31
    9ca4:	e8bd4070 	pop	{r4, r5, r6, lr}
    9ca8:	e12fff1e 	bx	lr
    9cac:	e264400c 	rsb	r4, r4, #12
    9cb0:	e2645020 	rsb	r5, r4, #32
    9cb4:	e1a03410 	lsl	r3, r0, r4
    9cb8:	e1a00530 	lsr	r0, r0, r5
    9cbc:	e1800411 	orr	r0, r0, r1, lsl r4
    9cc0:	e2011102 	and	r1, r1, #-2147483648	; 0x80000000
    9cc4:	e0900fa3 	adds	r0, r0, r3, lsr #31
    9cc8:	e2a11000 	adc	r1, r1, #0
    9ccc:	e19ee083 	orrs	lr, lr, r3, lsl #1
    9cd0:	01c00fa3 	biceq	r0, r0, r3, lsr #31
    9cd4:	e8bd4070 	pop	{r4, r5, r6, lr}
    9cd8:	e12fff1e 	bx	lr
    9cdc:	e2645020 	rsb	r5, r4, #32
    9ce0:	e18ee510 	orr	lr, lr, r0, lsl r5
    9ce4:	e1a03430 	lsr	r3, r0, r4
    9ce8:	e1833511 	orr	r3, r3, r1, lsl r5
    9cec:	e1a00431 	lsr	r0, r1, r4
    9cf0:	e2011102 	and	r1, r1, #-2147483648	; 0x80000000
    9cf4:	e1c00431 	bic	r0, r0, r1, lsr r4
    9cf8:	e0800fa3 	add	r0, r0, r3, lsr #31
    9cfc:	e19ee083 	orrs	lr, lr, r3, lsl #1
    9d00:	01c00fa3 	biceq	r0, r0, r3, lsr #31
    9d04:	e8bd4070 	pop	{r4, r5, r6, lr}
    9d08:	e12fff1e 	bx	lr
    9d0c:	e3340000 	teq	r4, #0
    9d10:	1a000008 	bne	9d38 <__aeabi_dmul+0x1d8>
    9d14:	e2016102 	and	r6, r1, #-2147483648	; 0x80000000
    9d18:	e1b00080 	lsls	r0, r0, #1
    9d1c:	e0a11001 	adc	r1, r1, r1
    9d20:	e3110601 	tst	r1, #1048576	; 0x100000
    9d24:	02444001 	subeq	r4, r4, #1
    9d28:	0afffffa 	beq	9d18 <__aeabi_dmul+0x1b8>
    9d2c:	e1811006 	orr	r1, r1, r6
    9d30:	e3350000 	teq	r5, #0
    9d34:	112fff1e 	bxne	lr
    9d38:	e2036102 	and	r6, r3, #-2147483648	; 0x80000000
    9d3c:	e1b02082 	lsls	r2, r2, #1
    9d40:	e0a33003 	adc	r3, r3, r3
    9d44:	e3130601 	tst	r3, #1048576	; 0x100000
    9d48:	02455001 	subeq	r5, r5, #1
    9d4c:	0afffffa 	beq	9d3c <__aeabi_dmul+0x1dc>
    9d50:	e1833006 	orr	r3, r3, r6
    9d54:	e12fff1e 	bx	lr
    9d58:	e134000c 	teq	r4, ip
    9d5c:	e00c5a23 	and	r5, ip, r3, lsr #20
    9d60:	1135000c 	teqne	r5, ip
    9d64:	0a000007 	beq	9d88 <__aeabi_dmul+0x228>
    9d68:	e1906081 	orrs	r6, r0, r1, lsl #1
    9d6c:	11926083 	orrsne	r6, r2, r3, lsl #1
    9d70:	1affffe5 	bne	9d0c <__aeabi_dmul+0x1ac>
    9d74:	e0211003 	eor	r1, r1, r3
    9d78:	e2011102 	and	r1, r1, #-2147483648	; 0x80000000
    9d7c:	e3a00000 	mov	r0, #0
    9d80:	e8bd4070 	pop	{r4, r5, r6, lr}
    9d84:	e12fff1e 	bx	lr
    9d88:	e1906081 	orrs	r6, r0, r1, lsl #1
    9d8c:	01a00002 	moveq	r0, r2
    9d90:	01a01003 	moveq	r1, r3
    9d94:	11926083 	orrsne	r6, r2, r3, lsl #1
    9d98:	0a000010 	beq	9de0 <__aeabi_dmul+0x280>
    9d9c:	e134000c 	teq	r4, ip
    9da0:	1a000001 	bne	9dac <__aeabi_dmul+0x24c>
    9da4:	e1906601 	orrs	r6, r0, r1, lsl #12
    9da8:	1a00000c 	bne	9de0 <__aeabi_dmul+0x280>
    9dac:	e135000c 	teq	r5, ip
    9db0:	1a000003 	bne	9dc4 <__aeabi_dmul+0x264>
    9db4:	e1926603 	orrs	r6, r2, r3, lsl #12
    9db8:	11a00002 	movne	r0, r2
    9dbc:	11a01003 	movne	r1, r3
    9dc0:	1a000006 	bne	9de0 <__aeabi_dmul+0x280>
    9dc4:	e0211003 	eor	r1, r1, r3
    9dc8:	e2011102 	and	r1, r1, #-2147483648	; 0x80000000
    9dcc:	e381147f 	orr	r1, r1, #2130706432	; 0x7f000000
    9dd0:	e381160f 	orr	r1, r1, #15728640	; 0xf00000
    9dd4:	e3a00000 	mov	r0, #0
    9dd8:	e8bd4070 	pop	{r4, r5, r6, lr}
    9ddc:	e12fff1e 	bx	lr
    9de0:	e381147f 	orr	r1, r1, #2130706432	; 0x7f000000
    9de4:	e381173e 	orr	r1, r1, #16252928	; 0xf80000
    9de8:	e8bd4070 	pop	{r4, r5, r6, lr}
    9dec:	e12fff1e 	bx	lr

00009df0 <__aeabi_ddiv>:
    9df0:	e92d4070 	push	{r4, r5, r6, lr}
    9df4:	e3a0c0ff 	mov	ip, #255	; 0xff
    9df8:	e38ccc07 	orr	ip, ip, #1792	; 0x700
    9dfc:	e01c4a21 	ands	r4, ip, r1, lsr #20
    9e00:	101c5a23 	andsne	r5, ip, r3, lsr #20
    9e04:	1134000c 	teqne	r4, ip
    9e08:	1135000c 	teqne	r5, ip
    9e0c:	0b00005e 	bleq	9f8c <__aeabi_ddiv+0x19c>
    9e10:	e0444005 	sub	r4, r4, r5
    9e14:	e021e003 	eor	lr, r1, r3
    9e18:	e1925603 	orrs	r5, r2, r3, lsl #12
    9e1c:	e1a01601 	lsl	r1, r1, #12
    9e20:	0a00004c 	beq	9f58 <__aeabi_ddiv+0x168>
    9e24:	e1a03603 	lsl	r3, r3, #12
    9e28:	e3a05201 	mov	r5, #268435456	; 0x10000000
    9e2c:	e1853223 	orr	r3, r5, r3, lsr #4
    9e30:	e1833c22 	orr	r3, r3, r2, lsr #24
    9e34:	e1a02402 	lsl	r2, r2, #8
    9e38:	e1855221 	orr	r5, r5, r1, lsr #4
    9e3c:	e1855c20 	orr	r5, r5, r0, lsr #24
    9e40:	e1a06400 	lsl	r6, r0, #8
    9e44:	e20e1102 	and	r1, lr, #-2147483648	; 0x80000000
    9e48:	e1550003 	cmp	r5, r3
    9e4c:	01560002 	cmpeq	r6, r2
    9e50:	e2a440fd 	adc	r4, r4, #253	; 0xfd
    9e54:	e2844c03 	add	r4, r4, #768	; 0x300
    9e58:	2a000001 	bcs	9e64 <__aeabi_ddiv+0x74>
    9e5c:	e1b030a3 	lsrs	r3, r3, #1
    9e60:	e1a02062 	rrx	r2, r2
    9e64:	e0566002 	subs	r6, r6, r2
    9e68:	e0c55003 	sbc	r5, r5, r3
    9e6c:	e1b030a3 	lsrs	r3, r3, #1
    9e70:	e1a02062 	rrx	r2, r2
    9e74:	e3a00601 	mov	r0, #1048576	; 0x100000
    9e78:	e3a0c702 	mov	ip, #524288	; 0x80000
    9e7c:	e056e002 	subs	lr, r6, r2
    9e80:	e0d5e003 	sbcs	lr, r5, r3
    9e84:	20466002 	subcs	r6, r6, r2
    9e88:	21a0500e 	movcs	r5, lr
    9e8c:	2180000c 	orrcs	r0, r0, ip
    9e90:	e1b030a3 	lsrs	r3, r3, #1
    9e94:	e1a02062 	rrx	r2, r2
    9e98:	e056e002 	subs	lr, r6, r2
    9e9c:	e0d5e003 	sbcs	lr, r5, r3
    9ea0:	20466002 	subcs	r6, r6, r2
    9ea4:	21a0500e 	movcs	r5, lr
    9ea8:	218000ac 	orrcs	r0, r0, ip, lsr #1
    9eac:	e1b030a3 	lsrs	r3, r3, #1
    9eb0:	e1a02062 	rrx	r2, r2
    9eb4:	e056e002 	subs	lr, r6, r2
    9eb8:	e0d5e003 	sbcs	lr, r5, r3
    9ebc:	20466002 	subcs	r6, r6, r2
    9ec0:	21a0500e 	movcs	r5, lr
    9ec4:	2180012c 	orrcs	r0, r0, ip, lsr #2
    9ec8:	e1b030a3 	lsrs	r3, r3, #1
    9ecc:	e1a02062 	rrx	r2, r2
    9ed0:	e056e002 	subs	lr, r6, r2
    9ed4:	e0d5e003 	sbcs	lr, r5, r3
    9ed8:	20466002 	subcs	r6, r6, r2
    9edc:	21a0500e 	movcs	r5, lr
    9ee0:	218001ac 	orrcs	r0, r0, ip, lsr #3
    9ee4:	e195e006 	orrs	lr, r5, r6
    9ee8:	0a00000d 	beq	9f24 <__aeabi_ddiv+0x134>
    9eec:	e1a05205 	lsl	r5, r5, #4
    9ef0:	e1855e26 	orr	r5, r5, r6, lsr #28
    9ef4:	e1a06206 	lsl	r6, r6, #4
    9ef8:	e1a03183 	lsl	r3, r3, #3
    9efc:	e1833ea2 	orr	r3, r3, r2, lsr #29
    9f00:	e1a02182 	lsl	r2, r2, #3
    9f04:	e1b0c22c 	lsrs	ip, ip, #4
    9f08:	1affffdb 	bne	9e7c <__aeabi_ddiv+0x8c>
    9f0c:	e3110601 	tst	r1, #1048576	; 0x100000
    9f10:	1a000006 	bne	9f30 <__aeabi_ddiv+0x140>
    9f14:	e1811000 	orr	r1, r1, r0
    9f18:	e3a00000 	mov	r0, #0
    9f1c:	e3a0c102 	mov	ip, #-2147483648	; 0x80000000
    9f20:	eaffffd5 	b	9e7c <__aeabi_ddiv+0x8c>
    9f24:	e3110601 	tst	r1, #1048576	; 0x100000
    9f28:	01811000 	orreq	r1, r1, r0
    9f2c:	03a00000 	moveq	r0, #0
    9f30:	e254c0fd 	subs	ip, r4, #253	; 0xfd
    9f34:	835c0c07 	cmphi	ip, #1792	; 0x700
    9f38:	8affff43 	bhi	9c4c <__aeabi_dmul+0xec>
    9f3c:	e055c003 	subs	ip, r5, r3
    9f40:	0056c002 	subseq	ip, r6, r2
    9f44:	01b0c0a0 	lsrseq	ip, r0, #1
    9f48:	e2b00000 	adcs	r0, r0, #0
    9f4c:	e0a11a04 	adc	r1, r1, r4, lsl #20
    9f50:	e8bd4070 	pop	{r4, r5, r6, lr}
    9f54:	e12fff1e 	bx	lr
    9f58:	e20ee102 	and	lr, lr, #-2147483648	; 0x80000000
    9f5c:	e18e1621 	orr	r1, lr, r1, lsr #12
    9f60:	e09440ac 	adds	r4, r4, ip, lsr #1
    9f64:	c074500c 	rsbsgt	r5, r4, ip
    9f68:	c1811a04 	orrgt	r1, r1, r4, lsl #20
    9f6c:	c8bd4070 	popgt	{r4, r5, r6, lr}
    9f70:	c12fff1e 	bxgt	lr
    9f74:	e3811601 	orr	r1, r1, #1048576	; 0x100000
    9f78:	e3a0e000 	mov	lr, #0
    9f7c:	e2544001 	subs	r4, r4, #1
    9f80:	eaffff31 	b	9c4c <__aeabi_dmul+0xec>
    9f84:	e185e006 	orr	lr, r5, r6
    9f88:	eaffff2f 	b	9c4c <__aeabi_dmul+0xec>
    9f8c:	e00c5a23 	and	r5, ip, r3, lsr #20
    9f90:	e134000c 	teq	r4, ip
    9f94:	0135000c 	teqeq	r5, ip
    9f98:	0affff90 	beq	9de0 <__aeabi_dmul+0x280>
    9f9c:	e134000c 	teq	r4, ip
    9fa0:	1a000006 	bne	9fc0 <__aeabi_ddiv+0x1d0>
    9fa4:	e1904601 	orrs	r4, r0, r1, lsl #12
    9fa8:	1affff8c 	bne	9de0 <__aeabi_dmul+0x280>
    9fac:	e135000c 	teq	r5, ip
    9fb0:	1affff83 	bne	9dc4 <__aeabi_dmul+0x264>
    9fb4:	e1a00002 	mov	r0, r2
    9fb8:	e1a01003 	mov	r1, r3
    9fbc:	eaffff87 	b	9de0 <__aeabi_dmul+0x280>
    9fc0:	e135000c 	teq	r5, ip
    9fc4:	1a000004 	bne	9fdc <__aeabi_ddiv+0x1ec>
    9fc8:	e1925603 	orrs	r5, r2, r3, lsl #12
    9fcc:	0affff68 	beq	9d74 <__aeabi_dmul+0x214>
    9fd0:	e1a00002 	mov	r0, r2
    9fd4:	e1a01003 	mov	r1, r3
    9fd8:	eaffff80 	b	9de0 <__aeabi_dmul+0x280>
    9fdc:	e1906081 	orrs	r6, r0, r1, lsl #1
    9fe0:	11926083 	orrsne	r6, r2, r3, lsl #1
    9fe4:	1affff48 	bne	9d0c <__aeabi_dmul+0x1ac>
    9fe8:	e1904081 	orrs	r4, r0, r1, lsl #1
    9fec:	1affff74 	bne	9dc4 <__aeabi_dmul+0x264>
    9ff0:	e1925083 	orrs	r5, r2, r3, lsl #1
    9ff4:	1affff5e 	bne	9d74 <__aeabi_dmul+0x214>
    9ff8:	eaffff78 	b	9de0 <__aeabi_dmul+0x280>

00009ffc <__aeabi_d2iz>:
    9ffc:	e1a02081 	lsl	r2, r1, #1
    a000:	e2922602 	adds	r2, r2, #2097152	; 0x200000
    a004:	2a00000c 	bcs	a03c <__aeabi_d2iz+0x40>
    a008:	5a000009 	bpl	a034 <__aeabi_d2iz+0x38>
    a00c:	e3e03e3e 	mvn	r3, #992	; 0x3e0
    a010:	e0532ac2 	subs	r2, r3, r2, asr #21
    a014:	9a00000a 	bls	a044 <__aeabi_d2iz+0x48>
    a018:	e1a03581 	lsl	r3, r1, #11
    a01c:	e3833102 	orr	r3, r3, #-2147483648	; 0x80000000
    a020:	e1833aa0 	orr	r3, r3, r0, lsr #21
    a024:	e3110102 	tst	r1, #-2147483648	; 0x80000000
    a028:	e1a00233 	lsr	r0, r3, r2
    a02c:	12600000 	rsbne	r0, r0, #0
    a030:	e12fff1e 	bx	lr
    a034:	e3a00000 	mov	r0, #0
    a038:	e12fff1e 	bx	lr
    a03c:	e1900601 	orrs	r0, r0, r1, lsl #12
    a040:	1a000002 	bne	a050 <__aeabi_d2iz+0x54>
    a044:	e2110102 	ands	r0, r1, #-2147483648	; 0x80000000
    a048:	03e00102 	mvneq	r0, #-2147483648	; 0x80000000
    a04c:	e12fff1e 	bx	lr
    a050:	e3a00000 	mov	r0, #0
    a054:	e12fff1e 	bx	lr

0000a058 <__aeabi_uldivmod>:
    a058:	e3530000 	cmp	r3, #0
    a05c:	03520000 	cmpeq	r2, #0
    a060:	1a000004 	bne	a078 <__aeabi_uldivmod+0x20>
    a064:	e3510000 	cmp	r1, #0
    a068:	03500000 	cmpeq	r0, #0
    a06c:	13e01000 	mvnne	r1, #0
    a070:	13e00000 	mvnne	r0, #0
    a074:	eaffd8c1 	b	380 <__aeabi_idiv0>
    a078:	e24dd008 	sub	sp, sp, #8
    a07c:	e92d6000 	push	{sp, lr}
    a080:	eb000014 	bl	a0d8 <__gnu_uldivmod_helper>
    a084:	e59de004 	ldr	lr, [sp, #4]
    a088:	e28dd008 	add	sp, sp, #8
    a08c:	e8bd000c 	pop	{r2, r3}
    a090:	e12fff1e 	bx	lr

0000a094 <__gnu_ldivmod_helper>:
    a094:	e92d43f8 	push	{r3, r4, r5, r6, r7, r8, r9, lr}
    a098:	e1a04002 	mov	r4, r2
    a09c:	e1a05003 	mov	r5, r3
    a0a0:	e1a08000 	mov	r8, r0
    a0a4:	e1a09001 	mov	r9, r1
    a0a8:	eb00001a 	bl	a118 <__divdi3>
    a0ac:	e0020194 	mul	r2, r4, r1
    a0b0:	e1a03000 	mov	r3, r0
    a0b4:	e0876094 	umull	r6, r7, r4, r0
    a0b8:	e0232395 	mla	r3, r5, r3, r2
    a0bc:	e0837007 	add	r7, r3, r7
    a0c0:	e59d3020 	ldr	r3, [sp, #32]
    a0c4:	e0586006 	subs	r6, r8, r6
    a0c8:	e0c97007 	sbc	r7, r9, r7
    a0cc:	e88300c0 	stm	r3, {r6, r7}
    a0d0:	e8bd43f8 	pop	{r3, r4, r5, r6, r7, r8, r9, lr}
    a0d4:	e12fff1e 	bx	lr

0000a0d8 <__gnu_uldivmod_helper>:
    a0d8:	e92d43f8 	push	{r3, r4, r5, r6, r7, r8, r9, lr}
    a0dc:	e1a04002 	mov	r4, r2
    a0e0:	e1a08000 	mov	r8, r0
    a0e4:	e1a09001 	mov	r9, r1
    a0e8:	e1a05003 	mov	r5, r3
    a0ec:	eb000140 	bl	a5f4 <__udivdi3>
    a0f0:	e0050590 	mul	r5, r0, r5
    a0f4:	e0876490 	umull	r6, r7, r0, r4
    a0f8:	e0255194 	mla	r5, r4, r1, r5
    a0fc:	e59d3020 	ldr	r3, [sp, #32]
    a100:	e0857007 	add	r7, r5, r7
    a104:	e0586006 	subs	r6, r8, r6
    a108:	e0c97007 	sbc	r7, r9, r7
    a10c:	e88300c0 	stm	r3, {r6, r7}
    a110:	e8bd43f8 	pop	{r3, r4, r5, r6, r7, r8, r9, lr}
    a114:	e12fff1e 	bx	lr

0000a118 <__divdi3>:
    a118:	e92d4ff0 	push	{r4, r5, r6, r7, r8, r9, sl, fp, lr}
    a11c:	e2515000 	subs	r5, r1, #0
    a120:	e24dd014 	sub	sp, sp, #20
    a124:	e1a04000 	mov	r4, r0
    a128:	e1a01003 	mov	r1, r3
    a12c:	a3a07000 	movge	r7, #0
    a130:	ba000097 	blt	a394 <__divdi3+0x27c>
    a134:	e3510000 	cmp	r1, #0
    a138:	ba000091 	blt	a384 <__divdi3+0x26c>
    a13c:	e253a000 	subs	sl, r3, #0
    a140:	e1a08005 	mov	r8, r5
    a144:	e1a09002 	mov	r9, r2
    a148:	e1a06002 	mov	r6, r2
    a14c:	1a000040 	bne	a254 <__divdi3+0x13c>
    a150:	e1520005 	cmp	r2, r5
    a154:	9a00004e 	bls	a294 <__divdi3+0x17c>
    a158:	e1a00002 	mov	r0, r2
    a15c:	eb000246 	bl	aa7c <__clzsi2>
    a160:	e3500000 	cmp	r0, #0
    a164:	12603020 	rsbne	r3, r0, #32
    a168:	11a03334 	lsrne	r3, r4, r3
    a16c:	11a06019 	lslne	r6, r9, r0
    a170:	11835015 	orrne	r5, r3, r5, lsl r0
    a174:	e1a09826 	lsr	r9, r6, #16
    a178:	11a04014 	lslne	r4, r4, r0
    a17c:	e1a01009 	mov	r1, r9
    a180:	e1a00005 	mov	r0, r5
    a184:	ebffd7e6 	bl	124 <__aeabi_uidiv>
    a188:	e1a01009 	mov	r1, r9
    a18c:	e1a0a000 	mov	sl, r0
    a190:	e1a00005 	mov	r0, r5
    a194:	ebffd81f 	bl	218 <__aeabi_uidivmod>
    a198:	e1a08806 	lsl	r8, r6, #16
    a19c:	e1a08828 	lsr	r8, r8, #16
    a1a0:	e0030a98 	mul	r3, r8, sl
    a1a4:	e1a0b824 	lsr	fp, r4, #16
    a1a8:	e18bb801 	orr	fp, fp, r1, lsl #16
    a1ac:	e153000b 	cmp	r3, fp
    a1b0:	9a000007 	bls	a1d4 <__divdi3+0xbc>
    a1b4:	e09bb006 	adds	fp, fp, r6
    a1b8:	e24a2001 	sub	r2, sl, #1
    a1bc:	2a000003 	bcs	a1d0 <__divdi3+0xb8>
    a1c0:	e153000b 	cmp	r3, fp
    a1c4:	824aa002 	subhi	sl, sl, #2
    a1c8:	808bb006 	addhi	fp, fp, r6
    a1cc:	8a000000 	bhi	a1d4 <__divdi3+0xbc>
    a1d0:	e1a0a002 	mov	sl, r2
    a1d4:	e063b00b 	rsb	fp, r3, fp
    a1d8:	e1a01009 	mov	r1, r9
    a1dc:	e1a0000b 	mov	r0, fp
    a1e0:	ebffd7cf 	bl	124 <__aeabi_uidiv>
    a1e4:	e1a01009 	mov	r1, r9
    a1e8:	e1a05000 	mov	r5, r0
    a1ec:	e1a0000b 	mov	r0, fp
    a1f0:	ebffd808 	bl	218 <__aeabi_uidivmod>
    a1f4:	e0080895 	mul	r8, r5, r8
    a1f8:	e1a00804 	lsl	r0, r4, #16
    a1fc:	e1a04820 	lsr	r4, r0, #16
    a200:	e1844801 	orr	r4, r4, r1, lsl #16
    a204:	e1580004 	cmp	r8, r4
    a208:	9a000006 	bls	a228 <__divdi3+0x110>
    a20c:	e0944006 	adds	r4, r4, r6
    a210:	e2453001 	sub	r3, r5, #1
    a214:	2a000002 	bcs	a224 <__divdi3+0x10c>
    a218:	e1580004 	cmp	r8, r4
    a21c:	82455002 	subhi	r5, r5, #2
    a220:	8a000000 	bhi	a228 <__divdi3+0x110>
    a224:	e1a05003 	mov	r5, r3
    a228:	e185580a 	orr	r5, r5, sl, lsl #16
    a22c:	e3a08000 	mov	r8, #0
    a230:	e3570000 	cmp	r7, #0
    a234:	e1a00005 	mov	r0, r5
    a238:	e1a01008 	mov	r1, r8
    a23c:	0a000001 	beq	a248 <__divdi3+0x130>
    a240:	e2700000 	rsbs	r0, r0, #0
    a244:	e2e11000 	rsc	r1, r1, #0
    a248:	e28dd014 	add	sp, sp, #20
    a24c:	e8bd4ff0 	pop	{r4, r5, r6, r7, r8, r9, sl, fp, lr}
    a250:	e12fff1e 	bx	lr
    a254:	e15a0005 	cmp	sl, r5
    a258:	83a08000 	movhi	r8, #0
    a25c:	81a05008 	movhi	r5, r8
    a260:	8afffff2 	bhi	a230 <__divdi3+0x118>
    a264:	e1a00003 	mov	r0, r3
    a268:	eb000203 	bl	aa7c <__clzsi2>
    a26c:	e2506000 	subs	r6, r0, #0
    a270:	1a000083 	bne	a484 <__divdi3+0x36c>
    a274:	e15a0005 	cmp	sl, r5
    a278:	21590004 	cmpcs	r9, r4
    a27c:	83a08000 	movhi	r8, #0
    a280:	93a08001 	movls	r8, #1
    a284:	93a05001 	movls	r5, #1
    a288:	91a08006 	movls	r8, r6
    a28c:	81a05008 	movhi	r5, r8
    a290:	eaffffe6 	b	a230 <__divdi3+0x118>
    a294:	e3520000 	cmp	r2, #0
    a298:	1a000003 	bne	a2ac <__divdi3+0x194>
    a29c:	e3a00001 	mov	r0, #1
    a2a0:	e1a01002 	mov	r1, r2
    a2a4:	ebffd79e 	bl	124 <__aeabi_uidiv>
    a2a8:	e1a06000 	mov	r6, r0
    a2ac:	e1a00006 	mov	r0, r6
    a2b0:	eb0001f1 	bl	aa7c <__clzsi2>
    a2b4:	e2503000 	subs	r3, r0, #0
    a2b8:	1a000039 	bne	a3a4 <__divdi3+0x28c>
    a2bc:	e1a02806 	lsl	r2, r6, #16
    a2c0:	e1a01822 	lsr	r1, r2, #16
    a2c4:	e58d1008 	str	r1, [sp, #8]
    a2c8:	e0665005 	rsb	r5, r6, r5
    a2cc:	e1a09826 	lsr	r9, r6, #16
    a2d0:	e3a08001 	mov	r8, #1
    a2d4:	e1a01009 	mov	r1, r9
    a2d8:	e1a00005 	mov	r0, r5
    a2dc:	ebffd790 	bl	124 <__aeabi_uidiv>
    a2e0:	e1a01009 	mov	r1, r9
    a2e4:	e1a0a000 	mov	sl, r0
    a2e8:	e1a00005 	mov	r0, r5
    a2ec:	ebffd7c9 	bl	218 <__aeabi_uidivmod>
    a2f0:	e59db008 	ldr	fp, [sp, #8]
    a2f4:	e0030a9b 	mul	r3, fp, sl
    a2f8:	e1a0c824 	lsr	ip, r4, #16
    a2fc:	e18cb801 	orr	fp, ip, r1, lsl #16
    a300:	e153000b 	cmp	r3, fp
    a304:	9a000006 	bls	a324 <__divdi3+0x20c>
    a308:	e09bb006 	adds	fp, fp, r6
    a30c:	e24a2001 	sub	r2, sl, #1
    a310:	2a0000af 	bcs	a5d4 <__divdi3+0x4bc>
    a314:	e153000b 	cmp	r3, fp
    a318:	824aa002 	subhi	sl, sl, #2
    a31c:	808bb006 	addhi	fp, fp, r6
    a320:	9a0000ab 	bls	a5d4 <__divdi3+0x4bc>
    a324:	e063b00b 	rsb	fp, r3, fp
    a328:	e1a01009 	mov	r1, r9
    a32c:	e1a0000b 	mov	r0, fp
    a330:	ebffd77b 	bl	124 <__aeabi_uidiv>
    a334:	e1a01009 	mov	r1, r9
    a338:	e1a05000 	mov	r5, r0
    a33c:	e1a0000b 	mov	r0, fp
    a340:	ebffd7b4 	bl	218 <__aeabi_uidivmod>
    a344:	e59d2008 	ldr	r2, [sp, #8]
    a348:	e0030592 	mul	r3, r2, r5
    a34c:	e1a00804 	lsl	r0, r4, #16
    a350:	e1a04820 	lsr	r4, r0, #16
    a354:	e1844801 	orr	r4, r4, r1, lsl #16
    a358:	e1530004 	cmp	r3, r4
    a35c:	9a000006 	bls	a37c <__divdi3+0x264>
    a360:	e0944006 	adds	r4, r4, r6
    a364:	e2452001 	sub	r2, r5, #1
    a368:	2a000002 	bcs	a378 <__divdi3+0x260>
    a36c:	e1530004 	cmp	r3, r4
    a370:	82455002 	subhi	r5, r5, #2
    a374:	8a000000 	bhi	a37c <__divdi3+0x264>
    a378:	e1a05002 	mov	r5, r2
    a37c:	e185580a 	orr	r5, r5, sl, lsl #16
    a380:	eaffffaa 	b	a230 <__divdi3+0x118>
    a384:	e1e07007 	mvn	r7, r7
    a388:	e2722000 	rsbs	r2, r2, #0
    a38c:	e2e33000 	rsc	r3, r3, #0
    a390:	eaffff69 	b	a13c <__divdi3+0x24>
    a394:	e2744000 	rsbs	r4, r4, #0
    a398:	e2e55000 	rsc	r5, r5, #0
    a39c:	e3e07000 	mvn	r7, #0
    a3a0:	eaffff63 	b	a134 <__divdi3+0x1c>
    a3a4:	e2639020 	rsb	r9, r3, #32
    a3a8:	e1a06316 	lsl	r6, r6, r3
    a3ac:	e1a08935 	lsr	r8, r5, r9
    a3b0:	e1a0b934 	lsr	fp, r4, r9
    a3b4:	e1a0e806 	lsl	lr, r6, #16
    a3b8:	e1a09826 	lsr	r9, r6, #16
    a3bc:	e1a0a82e 	lsr	sl, lr, #16
    a3c0:	e1a01009 	mov	r1, r9
    a3c4:	e1a00008 	mov	r0, r8
    a3c8:	e18bb315 	orr	fp, fp, r5, lsl r3
    a3cc:	e1a04314 	lsl	r4, r4, r3
    a3d0:	e58da008 	str	sl, [sp, #8]
    a3d4:	ebffd752 	bl	124 <__aeabi_uidiv>
    a3d8:	e1a01009 	mov	r1, r9
    a3dc:	e1a0a000 	mov	sl, r0
    a3e0:	e1a00008 	mov	r0, r8
    a3e4:	ebffd78b 	bl	218 <__aeabi_uidivmod>
    a3e8:	e59dc008 	ldr	ip, [sp, #8]
    a3ec:	e0030a9c 	mul	r3, ip, sl
    a3f0:	e1a0582b 	lsr	r5, fp, #16
    a3f4:	e1855801 	orr	r5, r5, r1, lsl #16
    a3f8:	e1530005 	cmp	r3, r5
    a3fc:	9a000006 	bls	a41c <__divdi3+0x304>
    a400:	e0955006 	adds	r5, r5, r6
    a404:	e24a2001 	sub	r2, sl, #1
    a408:	2a000077 	bcs	a5ec <__divdi3+0x4d4>
    a40c:	e1530005 	cmp	r3, r5
    a410:	824aa002 	subhi	sl, sl, #2
    a414:	80855006 	addhi	r5, r5, r6
    a418:	9a000073 	bls	a5ec <__divdi3+0x4d4>
    a41c:	e0635005 	rsb	r5, r3, r5
    a420:	e1a01009 	mov	r1, r9
    a424:	e1a00005 	mov	r0, r5
    a428:	ebffd73d 	bl	124 <__aeabi_uidiv>
    a42c:	e1a01009 	mov	r1, r9
    a430:	e1a08000 	mov	r8, r0
    a434:	e1a00005 	mov	r0, r5
    a438:	ebffd776 	bl	218 <__aeabi_uidivmod>
    a43c:	e59d5008 	ldr	r5, [sp, #8]
    a440:	e0030895 	mul	r3, r5, r8
    a444:	e1a0280b 	lsl	r2, fp, #16
    a448:	e1a00822 	lsr	r0, r2, #16
    a44c:	e1805801 	orr	r5, r0, r1, lsl #16
    a450:	e1530005 	cmp	r3, r5
    a454:	9a000007 	bls	a478 <__divdi3+0x360>
    a458:	e0955006 	adds	r5, r5, r6
    a45c:	e2482001 	sub	r2, r8, #1
    a460:	2a000003 	bcs	a474 <__divdi3+0x35c>
    a464:	e1530005 	cmp	r3, r5
    a468:	82488002 	subhi	r8, r8, #2
    a46c:	80855006 	addhi	r5, r5, r6
    a470:	8a000000 	bhi	a478 <__divdi3+0x360>
    a474:	e1a08002 	mov	r8, r2
    a478:	e0635005 	rsb	r5, r3, r5
    a47c:	e188880a 	orr	r8, r8, sl, lsl #16
    a480:	eaffff93 	b	a2d4 <__divdi3+0x1bc>
    a484:	e2661020 	rsb	r1, r6, #32
    a488:	e1a0b139 	lsr	fp, r9, r1
    a48c:	e1a03134 	lsr	r3, r4, r1
    a490:	e18ba61a 	orr	sl, fp, sl, lsl r6
    a494:	e1a05135 	lsr	r5, r5, r1
    a498:	e1832618 	orr	r2, r3, r8, lsl r6
    a49c:	e1a0e80a 	lsl	lr, sl, #16
    a4a0:	e1a0b82a 	lsr	fp, sl, #16
    a4a4:	e1a0882e 	lsr	r8, lr, #16
    a4a8:	e1a0100b 	mov	r1, fp
    a4ac:	e1a00005 	mov	r0, r5
    a4b0:	e58d2008 	str	r2, [sp, #8]
    a4b4:	e58d800c 	str	r8, [sp, #12]
    a4b8:	ebffd719 	bl	124 <__aeabi_uidiv>
    a4bc:	e1a0100b 	mov	r1, fp
    a4c0:	e1a08000 	mov	r8, r0
    a4c4:	e1a00005 	mov	r0, r5
    a4c8:	ebffd752 	bl	218 <__aeabi_uidivmod>
    a4cc:	e59dc00c 	ldr	ip, [sp, #12]
    a4d0:	e002089c 	mul	r2, ip, r8
    a4d4:	e59d5008 	ldr	r5, [sp, #8]
    a4d8:	e1a03825 	lsr	r3, r5, #16
    a4dc:	e1831801 	orr	r1, r3, r1, lsl #16
    a4e0:	e1520001 	cmp	r2, r1
    a4e4:	e1a03619 	lsl	r3, r9, r6
    a4e8:	9a000006 	bls	a508 <__divdi3+0x3f0>
    a4ec:	e091100a 	adds	r1, r1, sl
    a4f0:	e2480001 	sub	r0, r8, #1
    a4f4:	2a00003a 	bcs	a5e4 <__divdi3+0x4cc>
    a4f8:	e1520001 	cmp	r2, r1
    a4fc:	82488002 	subhi	r8, r8, #2
    a500:	8081100a 	addhi	r1, r1, sl
    a504:	9a000036 	bls	a5e4 <__divdi3+0x4cc>
    a508:	e0629001 	rsb	r9, r2, r1
    a50c:	e1a00009 	mov	r0, r9
    a510:	e1a0100b 	mov	r1, fp
    a514:	e58d3004 	str	r3, [sp, #4]
    a518:	ebffd701 	bl	124 <__aeabi_uidiv>
    a51c:	e1a0100b 	mov	r1, fp
    a520:	e1a05000 	mov	r5, r0
    a524:	e1a00009 	mov	r0, r9
    a528:	ebffd73a 	bl	218 <__aeabi_uidivmod>
    a52c:	e59d300c 	ldr	r3, [sp, #12]
    a530:	e0020593 	mul	r2, r3, r5
    a534:	e59dc008 	ldr	ip, [sp, #8]
    a538:	e1a0080c 	lsl	r0, ip, #16
    a53c:	e1a09820 	lsr	r9, r0, #16
    a540:	e1890801 	orr	r0, r9, r1, lsl #16
    a544:	e1520000 	cmp	r2, r0
    a548:	e59d3004 	ldr	r3, [sp, #4]
    a54c:	9a000006 	bls	a56c <__divdi3+0x454>
    a550:	e090000a 	adds	r0, r0, sl
    a554:	e2451001 	sub	r1, r5, #1
    a558:	2a00001f 	bcs	a5dc <__divdi3+0x4c4>
    a55c:	e1520000 	cmp	r2, r0
    a560:	82455002 	subhi	r5, r5, #2
    a564:	8080000a 	addhi	r0, r0, sl
    a568:	9a00001b 	bls	a5dc <__divdi3+0x4c4>
    a56c:	e062e000 	rsb	lr, r2, r0
    a570:	e1855808 	orr	r5, r5, r8, lsl #16
    a574:	e1a02825 	lsr	r2, r5, #16
    a578:	e1a08823 	lsr	r8, r3, #16
    a57c:	e1c5c802 	bic	ip, r5, r2, lsl #16
    a580:	e1c39808 	bic	r9, r3, r8, lsl #16
    a584:	e003099c 	mul	r3, ip, r9
    a588:	e0090992 	mul	r9, r2, r9
    a58c:	e00c0c98 	mul	ip, r8, ip
    a590:	e0080892 	mul	r8, r2, r8
    a594:	e099c00c 	adds	ip, r9, ip
    a598:	22888801 	addcs	r8, r8, #65536	; 0x10000
    a59c:	e093380c 	adds	r3, r3, ip, lsl #16
    a5a0:	e0a8882c 	adc	r8, r8, ip, lsr #16
    a5a4:	e15e0008 	cmp	lr, r8
    a5a8:	3a000006 	bcc	a5c8 <__divdi3+0x4b0>
    a5ac:	13a02000 	movne	r2, #0
    a5b0:	03a02001 	moveq	r2, #1
    a5b4:	e1530614 	cmp	r3, r4, lsl r6
    a5b8:	93a08000 	movls	r8, #0
    a5bc:	82028001 	andhi	r8, r2, #1
    a5c0:	e3580000 	cmp	r8, #0
    a5c4:	0affff19 	beq	a230 <__divdi3+0x118>
    a5c8:	e2455001 	sub	r5, r5, #1
    a5cc:	e3a08000 	mov	r8, #0
    a5d0:	eaffff16 	b	a230 <__divdi3+0x118>
    a5d4:	e1a0a002 	mov	sl, r2
    a5d8:	eaffff51 	b	a324 <__divdi3+0x20c>
    a5dc:	e1a05001 	mov	r5, r1
    a5e0:	eaffffe1 	b	a56c <__divdi3+0x454>
    a5e4:	e1a08000 	mov	r8, r0
    a5e8:	eaffffc6 	b	a508 <__divdi3+0x3f0>
    a5ec:	e1a0a002 	mov	sl, r2
    a5f0:	eaffff89 	b	a41c <__divdi3+0x304>

0000a5f4 <__udivdi3>:
    a5f4:	e92d4ff0 	push	{r4, r5, r6, r7, r8, r9, sl, fp, lr}
    a5f8:	e2538000 	subs	r8, r3, #0
    a5fc:	e24dd00c 	sub	sp, sp, #12
    a600:	e1a05000 	mov	r5, r0
    a604:	e1a04001 	mov	r4, r1
    a608:	e1a06002 	mov	r6, r2
    a60c:	e1a0a002 	mov	sl, r2
    a610:	e1a0b000 	mov	fp, r0
    a614:	e1a09001 	mov	r9, r1
    a618:	1a00003b 	bne	a70c <__udivdi3+0x118>
    a61c:	e1520001 	cmp	r2, r1
    a620:	9a000049 	bls	a74c <__udivdi3+0x158>
    a624:	e1a00002 	mov	r0, r2
    a628:	eb000113 	bl	aa7c <__clzsi2>
    a62c:	e3500000 	cmp	r0, #0
    a630:	12603020 	rsbne	r3, r0, #32
    a634:	11a03335 	lsrne	r3, r5, r3
    a638:	11a0a016 	lslne	sl, r6, r0
    a63c:	11839014 	orrne	r9, r3, r4, lsl r0
    a640:	e1a0482a 	lsr	r4, sl, #16
    a644:	11a0b015 	lslne	fp, r5, r0
    a648:	e1a01004 	mov	r1, r4
    a64c:	e1a00009 	mov	r0, r9
    a650:	ebffd6b3 	bl	124 <__aeabi_uidiv>
    a654:	e1a01004 	mov	r1, r4
    a658:	e1a06000 	mov	r6, r0
    a65c:	e1a00009 	mov	r0, r9
    a660:	ebffd6ec 	bl	218 <__aeabi_uidivmod>
    a664:	e1a0780a 	lsl	r7, sl, #16
    a668:	e1a07827 	lsr	r7, r7, #16
    a66c:	e0030697 	mul	r3, r7, r6
    a670:	e1a0882b 	lsr	r8, fp, #16
    a674:	e1888801 	orr	r8, r8, r1, lsl #16
    a678:	e1530008 	cmp	r3, r8
    a67c:	9a000007 	bls	a6a0 <__udivdi3+0xac>
    a680:	e098800a 	adds	r8, r8, sl
    a684:	e2462001 	sub	r2, r6, #1
    a688:	2a000003 	bcs	a69c <__udivdi3+0xa8>
    a68c:	e1530008 	cmp	r3, r8
    a690:	82466002 	subhi	r6, r6, #2
    a694:	8088800a 	addhi	r8, r8, sl
    a698:	8a000000 	bhi	a6a0 <__udivdi3+0xac>
    a69c:	e1a06002 	mov	r6, r2
    a6a0:	e0638008 	rsb	r8, r3, r8
    a6a4:	e1a01004 	mov	r1, r4
    a6a8:	e1a00008 	mov	r0, r8
    a6ac:	ebffd69c 	bl	124 <__aeabi_uidiv>
    a6b0:	e1a01004 	mov	r1, r4
    a6b4:	e1a05000 	mov	r5, r0
    a6b8:	e1a00008 	mov	r0, r8
    a6bc:	ebffd6d5 	bl	218 <__aeabi_uidivmod>
    a6c0:	e0070795 	mul	r7, r5, r7
    a6c4:	e1a0080b 	lsl	r0, fp, #16
    a6c8:	e1a0b820 	lsr	fp, r0, #16
    a6cc:	e18bb801 	orr	fp, fp, r1, lsl #16
    a6d0:	e157000b 	cmp	r7, fp
    a6d4:	9a000005 	bls	a6f0 <__udivdi3+0xfc>
    a6d8:	e09bb00a 	adds	fp, fp, sl
    a6dc:	e2453001 	sub	r3, r5, #1
    a6e0:	2a0000d2 	bcs	aa30 <__udivdi3+0x43c>
    a6e4:	e157000b 	cmp	r7, fp
    a6e8:	82455002 	subhi	r5, r5, #2
    a6ec:	9a0000cf 	bls	aa30 <__udivdi3+0x43c>
    a6f0:	e1855806 	orr	r5, r5, r6, lsl #16
    a6f4:	e3a07000 	mov	r7, #0
    a6f8:	e1a00005 	mov	r0, r5
    a6fc:	e1a01007 	mov	r1, r7
    a700:	e28dd00c 	add	sp, sp, #12
    a704:	e8bd4ff0 	pop	{r4, r5, r6, r7, r8, r9, sl, fp, lr}
    a708:	e12fff1e 	bx	lr
    a70c:	e1580001 	cmp	r8, r1
    a710:	83a07000 	movhi	r7, #0
    a714:	81a05007 	movhi	r5, r7
    a718:	8afffff6 	bhi	a6f8 <__udivdi3+0x104>
    a71c:	e1a00008 	mov	r0, r8
    a720:	eb0000d5 	bl	aa7c <__clzsi2>
    a724:	e2507000 	subs	r7, r0, #0
    a728:	1a00003f 	bne	a82c <__udivdi3+0x238>
    a72c:	e1580004 	cmp	r8, r4
    a730:	21560005 	cmpcs	r6, r5
    a734:	83a04000 	movhi	r4, #0
    a738:	93a04001 	movls	r4, #1
    a73c:	93a05001 	movls	r5, #1
    a740:	81a07004 	movhi	r7, r4
    a744:	81a05004 	movhi	r5, r4
    a748:	eaffffea 	b	a6f8 <__udivdi3+0x104>
    a74c:	e3520000 	cmp	r2, #0
    a750:	1a000003 	bne	a764 <__udivdi3+0x170>
    a754:	e3a00001 	mov	r0, #1
    a758:	e1a01002 	mov	r1, r2
    a75c:	ebffd670 	bl	124 <__aeabi_uidiv>
    a760:	e1a0a000 	mov	sl, r0
    a764:	e1a0000a 	mov	r0, sl
    a768:	eb0000c3 	bl	aa7c <__clzsi2>
    a76c:	e2503000 	subs	r3, r0, #0
    a770:	1a000079 	bne	a95c <__udivdi3+0x368>
    a774:	e1a0980a 	lsl	r9, sl, #16
    a778:	e06a4004 	rsb	r4, sl, r4
    a77c:	e1a0882a 	lsr	r8, sl, #16
    a780:	e1a09829 	lsr	r9, r9, #16
    a784:	e3a07001 	mov	r7, #1
    a788:	e1a01008 	mov	r1, r8
    a78c:	e1a00004 	mov	r0, r4
    a790:	ebffd663 	bl	124 <__aeabi_uidiv>
    a794:	e1a01008 	mov	r1, r8
    a798:	e1a05000 	mov	r5, r0
    a79c:	e1a00004 	mov	r0, r4
    a7a0:	ebffd69c 	bl	218 <__aeabi_uidivmod>
    a7a4:	e0030599 	mul	r3, r9, r5
    a7a8:	e1a0c82b 	lsr	ip, fp, #16
    a7ac:	e18c6801 	orr	r6, ip, r1, lsl #16
    a7b0:	e1530006 	cmp	r3, r6
    a7b4:	9a000006 	bls	a7d4 <__udivdi3+0x1e0>
    a7b8:	e096600a 	adds	r6, r6, sl
    a7bc:	e2452001 	sub	r2, r5, #1
    a7c0:	2a00009f 	bcs	aa44 <__udivdi3+0x450>
    a7c4:	e1530006 	cmp	r3, r6
    a7c8:	82455002 	subhi	r5, r5, #2
    a7cc:	8086600a 	addhi	r6, r6, sl
    a7d0:	9a00009b 	bls	aa44 <__udivdi3+0x450>
    a7d4:	e0636006 	rsb	r6, r3, r6
    a7d8:	e1a01008 	mov	r1, r8
    a7dc:	e1a00006 	mov	r0, r6
    a7e0:	ebffd64f 	bl	124 <__aeabi_uidiv>
    a7e4:	e1a01008 	mov	r1, r8
    a7e8:	e1a04000 	mov	r4, r0
    a7ec:	e1a00006 	mov	r0, r6
    a7f0:	ebffd688 	bl	218 <__aeabi_uidivmod>
    a7f4:	e0090994 	mul	r9, r4, r9
    a7f8:	e1a0b80b 	lsl	fp, fp, #16
    a7fc:	e1a0382b 	lsr	r3, fp, #16
    a800:	e183b801 	orr	fp, r3, r1, lsl #16
    a804:	e159000b 	cmp	r9, fp
    a808:	9a000005 	bls	a824 <__udivdi3+0x230>
    a80c:	e09bb00a 	adds	fp, fp, sl
    a810:	e2443001 	sub	r3, r4, #1
    a814:	2a000087 	bcs	aa38 <__udivdi3+0x444>
    a818:	e159000b 	cmp	r9, fp
    a81c:	82444002 	subhi	r4, r4, #2
    a820:	9a000084 	bls	aa38 <__udivdi3+0x444>
    a824:	e1845805 	orr	r5, r4, r5, lsl #16
    a828:	eaffffb2 	b	a6f8 <__udivdi3+0x104>
    a82c:	e267a020 	rsb	sl, r7, #32
    a830:	e1a01a36 	lsr	r1, r6, sl
    a834:	e1a02a35 	lsr	r2, r5, sl
    a838:	e1818718 	orr	r8, r1, r8, lsl r7
    a83c:	e1a0ba34 	lsr	fp, r4, sl
    a840:	e1829714 	orr	r9, r2, r4, lsl r7
    a844:	e1a0a828 	lsr	sl, r8, #16
    a848:	e1a0e808 	lsl	lr, r8, #16
    a84c:	e1a0100a 	mov	r1, sl
    a850:	e1a0000b 	mov	r0, fp
    a854:	e1a0482e 	lsr	r4, lr, #16
    a858:	e58d9004 	str	r9, [sp, #4]
    a85c:	ebffd630 	bl	124 <__aeabi_uidiv>
    a860:	e1a0100a 	mov	r1, sl
    a864:	e1a09000 	mov	r9, r0
    a868:	e1a0000b 	mov	r0, fp
    a86c:	ebffd669 	bl	218 <__aeabi_uidivmod>
    a870:	e0020994 	mul	r2, r4, r9
    a874:	e59dc004 	ldr	ip, [sp, #4]
    a878:	e1a0082c 	lsr	r0, ip, #16
    a87c:	e180b801 	orr	fp, r0, r1, lsl #16
    a880:	e152000b 	cmp	r2, fp
    a884:	e1a03716 	lsl	r3, r6, r7
    a888:	9a000003 	bls	a89c <__udivdi3+0x2a8>
    a88c:	e09bb008 	adds	fp, fp, r8
    a890:	e2491001 	sub	r1, r9, #1
    a894:	3a000071 	bcc	aa60 <__udivdi3+0x46c>
    a898:	e1a09001 	mov	r9, r1
    a89c:	e062b00b 	rsb	fp, r2, fp
    a8a0:	e1a0100a 	mov	r1, sl
    a8a4:	e1a0000b 	mov	r0, fp
    a8a8:	e58d3000 	str	r3, [sp]
    a8ac:	ebffd61c 	bl	124 <__aeabi_uidiv>
    a8b0:	e1a0100a 	mov	r1, sl
    a8b4:	e1a06000 	mov	r6, r0
    a8b8:	e1a0000b 	mov	r0, fp
    a8bc:	ebffd655 	bl	218 <__aeabi_uidivmod>
    a8c0:	e0040496 	mul	r4, r6, r4
    a8c4:	e59dc004 	ldr	ip, [sp, #4]
    a8c8:	e1a0080c 	lsl	r0, ip, #16
    a8cc:	e1a03820 	lsr	r3, r0, #16
    a8d0:	e1832801 	orr	r2, r3, r1, lsl #16
    a8d4:	e1540002 	cmp	r4, r2
    a8d8:	e59d3000 	ldr	r3, [sp]
    a8dc:	9a000003 	bls	a8f0 <__udivdi3+0x2fc>
    a8e0:	e0922008 	adds	r2, r2, r8
    a8e4:	e2461001 	sub	r1, r6, #1
    a8e8:	3a000057 	bcc	aa4c <__udivdi3+0x458>
    a8ec:	e1a06001 	mov	r6, r1
    a8f0:	e0644002 	rsb	r4, r4, r2
    a8f4:	e1869809 	orr	r9, r6, r9, lsl #16
    a8f8:	e1a02829 	lsr	r2, r9, #16
    a8fc:	e1a0e823 	lsr	lr, r3, #16
    a900:	e1c90802 	bic	r0, r9, r2, lsl #16
    a904:	e1c3680e 	bic	r6, r3, lr, lsl #16
    a908:	e0030690 	mul	r3, r0, r6
    a90c:	e0060692 	mul	r6, r2, r6
    a910:	e000009e 	mul	r0, lr, r0
    a914:	e00e0e92 	mul	lr, r2, lr
    a918:	e0960000 	adds	r0, r6, r0
    a91c:	228ee801 	addcs	lr, lr, #65536	; 0x10000
    a920:	e0933800 	adds	r3, r3, r0, lsl #16
    a924:	e0aee820 	adc	lr, lr, r0, lsr #16
    a928:	e154000e 	cmp	r4, lr
    a92c:	3a000007 	bcc	a950 <__udivdi3+0x35c>
    a930:	13a02000 	movne	r2, #0
    a934:	03a02001 	moveq	r2, #1
    a938:	e1530715 	cmp	r3, r5, lsl r7
    a93c:	93a07000 	movls	r7, #0
    a940:	82027001 	andhi	r7, r2, #1
    a944:	e3570000 	cmp	r7, #0
    a948:	01a05009 	moveq	r5, r9
    a94c:	0affff69 	beq	a6f8 <__udivdi3+0x104>
    a950:	e2495001 	sub	r5, r9, #1
    a954:	e3a07000 	mov	r7, #0
    a958:	eaffff66 	b	a6f8 <__udivdi3+0x104>
    a95c:	e2631020 	rsb	r1, r3, #32
    a960:	e1a0a31a 	lsl	sl, sl, r3
    a964:	e1a07134 	lsr	r7, r4, r1
    a968:	e1a02135 	lsr	r2, r5, r1
    a96c:	e1a0882a 	lsr	r8, sl, #16
    a970:	e1a0c80a 	lsl	ip, sl, #16
    a974:	e1a01008 	mov	r1, r8
    a978:	e1a00007 	mov	r0, r7
    a97c:	e1824314 	orr	r4, r2, r4, lsl r3
    a980:	e1a0b315 	lsl	fp, r5, r3
    a984:	e1a0982c 	lsr	r9, ip, #16
    a988:	ebffd5e5 	bl	124 <__aeabi_uidiv>
    a98c:	e1a01008 	mov	r1, r8
    a990:	e1a05000 	mov	r5, r0
    a994:	e1a00007 	mov	r0, r7
    a998:	ebffd61e 	bl	218 <__aeabi_uidivmod>
    a99c:	e0030599 	mul	r3, r9, r5
    a9a0:	e1a06824 	lsr	r6, r4, #16
    a9a4:	e1866801 	orr	r6, r6, r1, lsl #16
    a9a8:	e1530006 	cmp	r3, r6
    a9ac:	9a000006 	bls	a9cc <__udivdi3+0x3d8>
    a9b0:	e096600a 	adds	r6, r6, sl
    a9b4:	e2452001 	sub	r2, r5, #1
    a9b8:	2a00002d 	bcs	aa74 <__udivdi3+0x480>
    a9bc:	e1530006 	cmp	r3, r6
    a9c0:	82455002 	subhi	r5, r5, #2
    a9c4:	8086600a 	addhi	r6, r6, sl
    a9c8:	9a000029 	bls	aa74 <__udivdi3+0x480>
    a9cc:	e0636006 	rsb	r6, r3, r6
    a9d0:	e1a01008 	mov	r1, r8
    a9d4:	e1a00006 	mov	r0, r6
    a9d8:	ebffd5d1 	bl	124 <__aeabi_uidiv>
    a9dc:	e1a01008 	mov	r1, r8
    a9e0:	e1a07000 	mov	r7, r0
    a9e4:	e1a00006 	mov	r0, r6
    a9e8:	ebffd60a 	bl	218 <__aeabi_uidivmod>
    a9ec:	e0030799 	mul	r3, r9, r7
    a9f0:	e1a00804 	lsl	r0, r4, #16
    a9f4:	e1a04820 	lsr	r4, r0, #16
    a9f8:	e1844801 	orr	r4, r4, r1, lsl #16
    a9fc:	e1530004 	cmp	r3, r4
    aa00:	9a000007 	bls	aa24 <__udivdi3+0x430>
    aa04:	e094400a 	adds	r4, r4, sl
    aa08:	e2472001 	sub	r2, r7, #1
    aa0c:	2a000003 	bcs	aa20 <__udivdi3+0x42c>
    aa10:	e1530004 	cmp	r3, r4
    aa14:	82477002 	subhi	r7, r7, #2
    aa18:	8084400a 	addhi	r4, r4, sl
    aa1c:	8a000000 	bhi	aa24 <__udivdi3+0x430>
    aa20:	e1a07002 	mov	r7, r2
    aa24:	e0634004 	rsb	r4, r3, r4
    aa28:	e1877805 	orr	r7, r7, r5, lsl #16
    aa2c:	eaffff55 	b	a788 <__udivdi3+0x194>
    aa30:	e1a05003 	mov	r5, r3
    aa34:	eaffff2d 	b	a6f0 <__udivdi3+0xfc>
    aa38:	e1a04003 	mov	r4, r3
    aa3c:	e1845805 	orr	r5, r4, r5, lsl #16
    aa40:	eaffff2c 	b	a6f8 <__udivdi3+0x104>
    aa44:	e1a05002 	mov	r5, r2
    aa48:	eaffff61 	b	a7d4 <__udivdi3+0x1e0>
    aa4c:	e1540002 	cmp	r4, r2
    aa50:	82466002 	subhi	r6, r6, #2
    aa54:	80822008 	addhi	r2, r2, r8
    aa58:	8affffa4 	bhi	a8f0 <__udivdi3+0x2fc>
    aa5c:	eaffffa2 	b	a8ec <__udivdi3+0x2f8>
    aa60:	e152000b 	cmp	r2, fp
    aa64:	82499002 	subhi	r9, r9, #2
    aa68:	808bb008 	addhi	fp, fp, r8
    aa6c:	8affff8a 	bhi	a89c <__udivdi3+0x2a8>
    aa70:	eaffff88 	b	a898 <__udivdi3+0x2a4>
    aa74:	e1a05002 	mov	r5, r2
    aa78:	eaffffd3 	b	a9cc <__udivdi3+0x3d8>

0000aa7c <__clzsi2>:
    aa7c:	e3a0101c 	mov	r1, #28
    aa80:	e3500801 	cmp	r0, #65536	; 0x10000
    aa84:	21a00820 	lsrcs	r0, r0, #16
    aa88:	22411010 	subcs	r1, r1, #16
    aa8c:	e3500c01 	cmp	r0, #256	; 0x100
    aa90:	21a00420 	lsrcs	r0, r0, #8
    aa94:	22411008 	subcs	r1, r1, #8
    aa98:	e3500010 	cmp	r0, #16
    aa9c:	21a00220 	lsrcs	r0, r0, #4
    aaa0:	22411004 	subcs	r1, r1, #4
    aaa4:	e28f2008 	add	r2, pc, #8
    aaa8:	e7d20000 	ldrb	r0, [r2, r0]
    aaac:	e0800001 	add	r0, r0, r1
    aab0:	e12fff1e 	bx	lr
    aab4:	02020304 	.word	0x02020304
    aab8:	01010101 	.word	0x01010101
	...
    aac4:	6f727245 	.word	0x6f727245
    aac8:	00002172 	.word	0x00002172

0000aacc <blanks.6610>:
    aacc:	20202020 20202020 20202020 20202020                     

0000aadc <zeroes.6611>:
    aadc:	30303030 30303030 30303030 30303030     0000000000000000

0000aaec <_global_impure_ptr>:
    aaec:	40000008                                ...@

0000aaf0 <p05.5117>:
    aaf0:	00000005 00000019 0000007d 00000000     ........}.......

0000ab00 <__mprec_tens>:
    ab00:	00000000 3ff00000 00000000 40240000     .......?......$@
    ab10:	00000000 40590000 00000000 408f4000     ......Y@.....@.@
    ab20:	00000000 40c38800 00000000 40f86a00     .......@.....j.@
    ab30:	00000000 412e8480 00000000 416312d0     .......A......cA
    ab40:	00000000 4197d784 00000000 41cdcd65     .......A....e..A
    ab50:	20000000 4202a05f e8000000 42374876     ... _..B....vH7B
    ab60:	a2000000 426d1a94 e5400000 42a2309c     ......mB..@..0.B
    ab70:	1e900000 42d6bcc4 26340000 430c6bf5     .......B..4&.k.C
    ab80:	37e08000 4341c379 85d8a000 43763457     ...7y.AC....W4vC
    ab90:	674ec800 43abc16d 60913d00 43e158e4     ..Ngm..C.=.`.X.C
    aba0:	78b58c40 4415af1d d6e2ef50 444b1ae4     @..x...DP.....KD
    abb0:	064dd592 4480f0cf c7e14af6 44b52d02     ..M....D.J...-.D
    abc0:	79d99db4 44ea7843                       ...yCx.D

0000abc8 <__mprec_tinytens>:
    abc8:	97d889bc 3c9cd2b2 d5a8a733 3949f623     .......<3...#.I9
    abd8:	44f4a73d 32a50ffd cf8c979d 255bba08     =..D...2......[%
    abe8:	64ac6f43 0ac80628                       Co.d(...

0000abf0 <__mprec_bigtens>:
    abf0:	37e08000 4341c379 b5056e17 4693b8b5     ...7y.AC.n.....F
    ac00:	e93ff9f5 4d384f03 f9301d32 5a827748     ..?..O8M2.0.Hw.Z
    ac10:	7f73bf3c 75154fdd                       <.s..O.u

0000ac18 <blanks.6553>:
    ac18:	20202020 20202020 20202020 20202020                     

0000ac28 <zeroes.6554>:
    ac28:	30303030 30303030 30303030 30303030     0000000000000000
    ac38:	00464e49 00666e69 004e414e 006e616e     INF.inf.NAN.nan.
    ac48:	33323130 37363534 42413938 46454443     0123456789ABCDEF
    ac58:	00000000 33323130 37363534 62613938     ....0123456789ab
    ac68:	66656463 00000000 6c756e28 0000296c     cdef....(null)..
    ac78:	00000030 69666e49 7974696e 00000000     0...Infinity....
    ac88:	004e614e 00000043 49534f50 00000058     NaN.C...POSIX...
    ac98:	0000002e                                ....

Disassembly of section .text.UART0Handler:

0000ac9c <UART0Handler>:
#include "UART.h"
#include "cb.h"
#include "irq.h"

void UART0Handler ()
{
    ac9c:	e52db004 	push	{fp}		; (str fp, [sp, #-4]!)
    aca0:	e28db000 	add	fp, sp, #0
	VICVectAddr = 0;		/* Acknowledge Interrupt */
    aca4:	e3e030ff 	mvn	r3, #255	; 0xff
    aca8:	e3a02000 	mov	r2, #0
    acac:	e5832000 	str	r2, [r3]
}
    acb0:	e28bd000 	add	sp, fp, #0
    acb4:	e8bd0800 	pop	{fp}
    acb8:	e12fff1e 	bx	lr

Disassembly of section .text.uart_enable_power:

0000acbc <uart_enable_power>:

static int32_t uart_enable_power(UART_T *dev)
{
    acbc:	e52db004 	push	{fp}		; (str fp, [sp, #-4]!)
    acc0:	e28db000 	add	fp, sp, #0
    acc4:	e24dd00c 	sub	sp, sp, #12
    acc8:	e50b0008 	str	r0, [fp, #-8]
	/* Set up power for UART module */
	if(dev == LPC_UART0)
    accc:	e51b2008 	ldr	r2, [fp, #-8]
    acd0:	e59f30a8 	ldr	r3, [pc, #168]	; ad80 <uart_enable_power+0xc4>
    acd4:	e1520003 	cmp	r2, r3
    acd8:	1a000005 	bne	acf4 <uart_enable_power+0x38>
	{
		/* Power */
		PCONP = PCONP | PCUART0;
    acdc:	e59f10a0 	ldr	r1, [pc, #160]	; ad84 <uart_enable_power+0xc8>
    ace0:	e59f309c 	ldr	r3, [pc, #156]	; ad84 <uart_enable_power+0xc8>
    ace4:	e5933000 	ldr	r3, [r3]
    ace8:	e3832008 	orr	r2, r3, #8
    acec:	e1a03001 	mov	r3, r1
    acf0:	e5832000 	str	r2, [r3]
	}
	if(dev == LPC_UART1)
    acf4:	e51b2008 	ldr	r2, [fp, #-8]
    acf8:	e59f3088 	ldr	r3, [pc, #136]	; ad88 <uart_enable_power+0xcc>
    acfc:	e1520003 	cmp	r2, r3
    ad00:	1a000005 	bne	ad1c <uart_enable_power+0x60>
	{
		/* Power */
		PCONP = PCONP | PCUART1;
    ad04:	e59f1078 	ldr	r1, [pc, #120]	; ad84 <uart_enable_power+0xc8>
    ad08:	e59f3074 	ldr	r3, [pc, #116]	; ad84 <uart_enable_power+0xc8>
    ad0c:	e5933000 	ldr	r3, [r3]
    ad10:	e3832010 	orr	r2, r3, #16
    ad14:	e1a03001 	mov	r3, r1
    ad18:	e5832000 	str	r2, [r3]
	}
	if(dev == LPC_UART2)
    ad1c:	e51b2008 	ldr	r2, [fp, #-8]
    ad20:	e59f3064 	ldr	r3, [pc, #100]	; ad8c <uart_enable_power+0xd0>
    ad24:	e1520003 	cmp	r2, r3
    ad28:	1a000005 	bne	ad44 <uart_enable_power+0x88>
	{
		/* Power */
		PCONP = PCONP | PCUART2;
    ad2c:	e59f1050 	ldr	r1, [pc, #80]	; ad84 <uart_enable_power+0xc8>
    ad30:	e59f304c 	ldr	r3, [pc, #76]	; ad84 <uart_enable_power+0xc8>
    ad34:	e5933000 	ldr	r3, [r3]
    ad38:	e3832401 	orr	r2, r3, #16777216	; 0x1000000
    ad3c:	e1a03001 	mov	r3, r1
    ad40:	e5832000 	str	r2, [r3]
	}
	if(dev == LPC_UART3)
    ad44:	e51b2008 	ldr	r2, [fp, #-8]
    ad48:	e59f3040 	ldr	r3, [pc, #64]	; ad90 <uart_enable_power+0xd4>
    ad4c:	e1520003 	cmp	r2, r3
    ad50:	1a000005 	bne	ad6c <uart_enable_power+0xb0>
	{
		/* Power */
		PCONP = PCONP | PCUART3;
    ad54:	e59f1028 	ldr	r1, [pc, #40]	; ad84 <uart_enable_power+0xc8>
    ad58:	e59f3024 	ldr	r3, [pc, #36]	; ad84 <uart_enable_power+0xc8>
    ad5c:	e5933000 	ldr	r3, [r3]
    ad60:	e3832402 	orr	r2, r3, #33554432	; 0x2000000
    ad64:	e1a03001 	mov	r3, r1
    ad68:	e5832000 	str	r2, [r3]
	}

	return EOK;
    ad6c:	e3a03000 	mov	r3, #0
}
    ad70:	e1a00003 	mov	r0, r3
    ad74:	e28bd000 	add	sp, fp, #0
    ad78:	e8bd0800 	pop	{fp}
    ad7c:	e12fff1e 	bx	lr
    ad80:	e000c000 	.word	0xe000c000
    ad84:	e01fc0c4 	.word	0xe01fc0c4
    ad88:	e0010000 	.word	0xe0010000
    ad8c:	e0078000 	.word	0xe0078000
    ad90:	e007c000 	.word	0xe007c000

Disassembly of section .text.uart_set_clock:

0000ad94 <uart_set_clock>:

static int32_t uart_set_clock(UART_T *dev, uint8_t divisor)
{
    ad94:	e52db004 	push	{fp}		; (str fp, [sp, #-4]!)
    ad98:	e28db000 	add	fp, sp, #0
    ad9c:	e24dd014 	sub	sp, sp, #20
    ada0:	e50b0010 	str	r0, [fp, #-16]
    ada4:	e1a03001 	mov	r3, r1
    ada8:	e54b3011 	strb	r3, [fp, #-17]	; 0xffffffef
	uint32_t uClk;

	switch (divisor)
    adac:	e55b3011 	ldrb	r3, [fp, #-17]	; 0xffffffef
    adb0:	e2433001 	sub	r3, r3, #1
    adb4:	e3530007 	cmp	r3, #7
    adb8:	979ff103 	ldrls	pc, [pc, r3, lsl #2]
    adbc:	ea000013 	b	ae10 <uart_set_clock+0x7c>
    adc0:	0000ade0 	.word	0x0000ade0
    adc4:	0000adec 	.word	0x0000adec
    adc8:	0000ae10 	.word	0x0000ae10
    adcc:	0000adf8 	.word	0x0000adf8
    add0:	0000ae10 	.word	0x0000ae10
    add4:	0000ae10 	.word	0x0000ae10
    add8:	0000ae10 	.word	0x0000ae10
    addc:	0000ae04 	.word	0x0000ae04
	{
	case 1:
		uClk = 1;
    ade0:	e3a03001 	mov	r3, #1
    ade4:	e50b3008 	str	r3, [fp, #-8]
		break;
    ade8:	ea00000c 	b	ae20 <uart_set_clock+0x8c>
	case 2:
		uClk = 2;
    adec:	e3a03002 	mov	r3, #2
    adf0:	e50b3008 	str	r3, [fp, #-8]
		break;
    adf4:	ea000009 	b	ae20 <uart_set_clock+0x8c>
	case 4:
		uClk = 0;
    adf8:	e3a03000 	mov	r3, #0
    adfc:	e50b3008 	str	r3, [fp, #-8]
		break;
    ae00:	ea000006 	b	ae20 <uart_set_clock+0x8c>
	case 8:
		uClk = 3;
    ae04:	e3a03003 	mov	r3, #3
    ae08:	e50b3008 	str	r3, [fp, #-8]
		break;
    ae0c:	ea000003 	b	ae20 <uart_set_clock+0x8c>
	default:
		uClk = 1;
    ae10:	e3a03001 	mov	r3, #1
    ae14:	e50b3008 	str	r3, [fp, #-8]
		return EPARAM;
    ae18:	e3e03001 	mvn	r3, #1
    ae1c:	ea000030 	b	aee4 <uart_set_clock+0x150>
		break;
	}

	/* Set up clock UART module */
	if(dev == LPC_UART0)
    ae20:	e51b2010 	ldr	r2, [fp, #-16]
    ae24:	e59f30c8 	ldr	r3, [pc, #200]	; aef4 <uart_set_clock+0x160>
    ae28:	e1520003 	cmp	r2, r3
    ae2c:	1a000007 	bne	ae50 <uart_set_clock+0xbc>
	{
		/* Clock */
		PCLKSEL0 = PCLKSEL0 | ((uint32_t)(uClk << PCLK_UART0));
    ae30:	e59f10c0 	ldr	r1, [pc, #192]	; aef8 <uart_set_clock+0x164>
    ae34:	e59f30bc 	ldr	r3, [pc, #188]	; aef8 <uart_set_clock+0x164>
    ae38:	e5932000 	ldr	r2, [r3]
    ae3c:	e51b3008 	ldr	r3, [fp, #-8]
    ae40:	e1a03303 	lsl	r3, r3, #6
    ae44:	e1822003 	orr	r2, r2, r3
    ae48:	e1a03001 	mov	r3, r1
    ae4c:	e5832000 	str	r2, [r3]
	}
	if(dev == LPC_UART1)
    ae50:	e51b2010 	ldr	r2, [fp, #-16]
    ae54:	e59f30a0 	ldr	r3, [pc, #160]	; aefc <uart_set_clock+0x168>
    ae58:	e1520003 	cmp	r2, r3
    ae5c:	1a000007 	bne	ae80 <uart_set_clock+0xec>
	{
		/* Clock */
		PCLKSEL0 = PCLKSEL0 | ((uint32_t)(uClk << PCLK_UART1));
    ae60:	e59f1090 	ldr	r1, [pc, #144]	; aef8 <uart_set_clock+0x164>
    ae64:	e59f308c 	ldr	r3, [pc, #140]	; aef8 <uart_set_clock+0x164>
    ae68:	e5932000 	ldr	r2, [r3]
    ae6c:	e51b3008 	ldr	r3, [fp, #-8]
    ae70:	e1a03403 	lsl	r3, r3, #8
    ae74:	e1822003 	orr	r2, r2, r3
    ae78:	e1a03001 	mov	r3, r1
    ae7c:	e5832000 	str	r2, [r3]
	}
	if(dev == LPC_UART2)
    ae80:	e51b2010 	ldr	r2, [fp, #-16]
    ae84:	e59f3074 	ldr	r3, [pc, #116]	; af00 <uart_set_clock+0x16c>
    ae88:	e1520003 	cmp	r2, r3
    ae8c:	1a000007 	bne	aeb0 <uart_set_clock+0x11c>
	{
		/* Clock */
		PCLKSEL1 = PCLKSEL1 | ((uint32_t)(uClk << PCLK_UART2));
    ae90:	e59f106c 	ldr	r1, [pc, #108]	; af04 <uart_set_clock+0x170>
    ae94:	e59f3068 	ldr	r3, [pc, #104]	; af04 <uart_set_clock+0x170>
    ae98:	e5932000 	ldr	r2, [r3]
    ae9c:	e51b3008 	ldr	r3, [fp, #-8]
    aea0:	e1a03803 	lsl	r3, r3, #16
    aea4:	e1822003 	orr	r2, r2, r3
    aea8:	e1a03001 	mov	r3, r1
    aeac:	e5832000 	str	r2, [r3]
	}
	if(dev == LPC_UART3)
    aeb0:	e51b2010 	ldr	r2, [fp, #-16]
    aeb4:	e59f304c 	ldr	r3, [pc, #76]	; af08 <uart_set_clock+0x174>
    aeb8:	e1520003 	cmp	r2, r3
    aebc:	1a000007 	bne	aee0 <uart_set_clock+0x14c>
	{
		/* Clock */
		PCLKSEL1 = PCLKSEL1 | ((uint32_t)(uClk << PCLK_UART3));
    aec0:	e59f103c 	ldr	r1, [pc, #60]	; af04 <uart_set_clock+0x170>
    aec4:	e59f3038 	ldr	r3, [pc, #56]	; af04 <uart_set_clock+0x170>
    aec8:	e5932000 	ldr	r2, [r3]
    aecc:	e51b3008 	ldr	r3, [fp, #-8]
    aed0:	e1a03903 	lsl	r3, r3, #18
    aed4:	e1822003 	orr	r2, r2, r3
    aed8:	e1a03001 	mov	r3, r1
    aedc:	e5832000 	str	r2, [r3]
	}

	return EOK;
    aee0:	e3a03000 	mov	r3, #0
}
    aee4:	e1a00003 	mov	r0, r3
    aee8:	e28bd000 	add	sp, fp, #0
    aeec:	e8bd0800 	pop	{fp}
    aef0:	e12fff1e 	bx	lr
    aef4:	e000c000 	.word	0xe000c000
    aef8:	e01fc1a8 	.word	0xe01fc1a8
    aefc:	e0010000 	.word	0xe0010000
    af00:	e0078000 	.word	0xe0078000
    af04:	e01fc1ac 	.word	0xe01fc1ac
    af08:	e007c000 	.word	0xe007c000

Disassembly of section .text.uart_set_divisors:

0000af10 <uart_set_divisors>:

static int32_t uart_set_divisors(UART_T *dev, uint32_t baudrate, uint8_t udivisor)
{
    af10:	e92d4830 	push	{r4, r5, fp, lr}
    af14:	e28db00c 	add	fp, sp, #12
    af18:	e24dd020 	sub	sp, sp, #32
    af1c:	e50b0020 	str	r0, [fp, #-32]	; 0xffffffe0
    af20:	e50b1024 	str	r1, [fp, #-36]	; 0xffffffdc
    af24:	e1a03002 	mov	r3, r2
    af28:	e54b3025 	strb	r3, [fp, #-37]	; 0xffffffdb
	uint16_t DLest;
	uint8_t  divaddval, mulval, dlm, dll;
	uint8_t	 cnt;

	/* calculate peripheral clock */
	PCLK = CLK_HZ / udivisor;
    af2c:	e55b3025 	ldrb	r3, [fp, #-37]	; 0xffffffdb
    af30:	e59f0230 	ldr	r0, [pc, #560]	; b168 <uart_set_divisors+0x258>
    af34:	e1a01003 	mov	r1, r3
    af38:	ebffd4be 	bl	238 <__aeabi_idiv>
    af3c:	e1a03000 	mov	r3, r0
    af40:	e50b3018 	str	r3, [fp, #-24]	; 0xffffffe8

	/* check if result of DLest calculation
	 *  is an integer, then DIVADDVAL = 0, MULVAL = 1 */
	if( ( PCLK % ( 16 * baudrate ) ) == 0)
    af44:	e51b3024 	ldr	r3, [fp, #-36]	; 0xffffffdc
    af48:	e1a03203 	lsl	r3, r3, #4
    af4c:	e51b2018 	ldr	r2, [fp, #-24]	; 0xffffffe8
    af50:	e1a00002 	mov	r0, r2
    af54:	e1a01003 	mov	r1, r3
    af58:	ebffd4ae 	bl	218 <__aeabi_uidivmod>
    af5c:	e1a03001 	mov	r3, r1
    af60:	e3530000 	cmp	r3, #0
    af64:	1a000004 	bne	af7c <uart_set_divisors+0x6c>
	{
		divaddval = 0;
    af68:	e3a03000 	mov	r3, #0
    af6c:	e54b3019 	strb	r3, [fp, #-25]	; 0xffffffe7
		mulval = 1;
    af70:	e3a03001 	mov	r3, #1
    af74:	e54b301a 	strb	r3, [fp, #-26]	; 0xffffffe6
    af78:	ea000071 	b	b144 <uart_set_divisors+0x234>
	}
	else
	{
		float FRest = 1.5;
    af7c:	e59f31e8 	ldr	r3, [pc, #488]	; b16c <uart_set_divisors+0x25c>
    af80:	e50b3014 	str	r3, [fp, #-20]	; 0xffffffec

		for(cnt = 0; cnt < 9; cnt++)
    af84:	e3a03000 	mov	r3, #0
    af88:	e54b300f 	strb	r3, [fp, #-15]
    af8c:	ea000062 	b	b11c <uart_set_divisors+0x20c>
		{
			/* calculate DLest */
			DLest = (uint32_t)(PCLK / (float)(16 * baudrate * FRest));
    af90:	e51b0018 	ldr	r0, [fp, #-24]	; 0xffffffe8
    af94:	ebffd6ec 	bl	b4c <__aeabi_ui2f>
    af98:	e1a04000 	mov	r4, r0
    af9c:	e51b3024 	ldr	r3, [fp, #-36]	; 0xffffffdc
    afa0:	e1a03203 	lsl	r3, r3, #4
    afa4:	e1a00003 	mov	r0, r3
    afa8:	ebffd6e7 	bl	b4c <__aeabi_ui2f>
    afac:	e1a03000 	mov	r3, r0
    afb0:	e1a00003 	mov	r0, r3
    afb4:	e51b1014 	ldr	r1, [fp, #-20]	; 0xffffffec
    afb8:	ebffd71c 	bl	c30 <__aeabi_fmul>
    afbc:	e1a03000 	mov	r3, r0
    afc0:	e1a00004 	mov	r0, r4
    afc4:	e1a01003 	mov	r1, r3
    afc8:	ebffd77e 	bl	dc8 <__aeabi_fdiv>
    afcc:	e1a03000 	mov	r3, r0
    afd0:	e1a00003 	mov	r0, r3
    afd4:	ebffd7d3 	bl	f28 <__aeabi_f2uiz>
    afd8:	e1a03000 	mov	r3, r0
    afdc:	e14b30be 	strh	r3, [fp, #-14]
			FRest = (float)(PCLK / (16 * baudrate * DLest));
    afe0:	e15b30be 	ldrh	r3, [fp, #-14]
    afe4:	e51b2024 	ldr	r2, [fp, #-36]	; 0xffffffdc
    afe8:	e0030392 	mul	r3, r2, r3
    afec:	e1a03203 	lsl	r3, r3, #4
    aff0:	e51b0018 	ldr	r0, [fp, #-24]	; 0xffffffe8
    aff4:	e1a01003 	mov	r1, r3
    aff8:	ebffd449 	bl	124 <__aeabi_uidiv>
    affc:	e1a03000 	mov	r3, r0
    b000:	e1a00003 	mov	r0, r3
    b004:	ebffd6d0 	bl	b4c <__aeabi_ui2f>
    b008:	e1a03000 	mov	r3, r0
    b00c:	e50b3014 	str	r3, [fp, #-20]	; 0xffffffec

			/* if FRest is out of range */
			if( (FRest>1.9) || (FRest<1.1) )
    b010:	e51b0014 	ldr	r0, [fp, #-20]	; 0xffffffec
    b014:	ebffd5b4 	bl	6ec <__aeabi_f2d>
    b018:	e1a03000 	mov	r3, r0
    b01c:	e1a04001 	mov	r4, r1
    b020:	e3a02001 	mov	r2, #1
    b024:	e1a05002 	mov	r5, r2
    b028:	e1a00003 	mov	r0, r3
    b02c:	e1a01004 	mov	r1, r4
    b030:	e28f3e12 	add	r3, pc, #288	; 0x120
    b034:	e893000c 	ldm	r3, {r2, r3}
    b038:	ebffd623 	bl	8cc <__aeabi_dcmpgt>
    b03c:	e1a03000 	mov	r3, r0
    b040:	e3530000 	cmp	r3, #0
    b044:	1a000001 	bne	b050 <uart_set_divisors+0x140>
    b048:	e3a03000 	mov	r3, #0
    b04c:	e1a05003 	mov	r5, r3
    b050:	e20530ff 	and	r3, r5, #255	; 0xff
    b054:	e3530000 	cmp	r3, #0
    b058:	1a000012 	bne	b0a8 <uart_set_divisors+0x198>
    b05c:	e51b0014 	ldr	r0, [fp, #-20]	; 0xffffffec
    b060:	ebffd5a1 	bl	6ec <__aeabi_f2d>
    b064:	e1a03000 	mov	r3, r0
    b068:	e1a04001 	mov	r4, r1
    b06c:	e3a02001 	mov	r2, #1
    b070:	e1a05002 	mov	r5, r2
    b074:	e1a00003 	mov	r0, r3
    b078:	e1a01004 	mov	r1, r4
    b07c:	e28f30dc 	add	r3, pc, #220	; 0xdc
    b080:	e893000c 	ldm	r3, {r2, r3}
    b084:	ebffd5fe 	bl	884 <__aeabi_dcmplt>
    b088:	e1a03000 	mov	r3, r0
    b08c:	e3530000 	cmp	r3, #0
    b090:	1a000001 	bne	b09c <uart_set_divisors+0x18c>
    b094:	e3a03000 	mov	r3, #0
    b098:	e1a05003 	mov	r5, r3
    b09c:	e20530ff 	and	r3, r5, #255	; 0xff
    b0a0:	e3530000 	cmp	r3, #0
    b0a4:	0a00001f 	beq	b128 <uart_set_divisors+0x218>
			{
				/* choose another FRest from 1.1 to 1.9 */
				FRest = 1.1 + (cnt / 10);
    b0a8:	e55b200f 	ldrb	r2, [fp, #-15]
    b0ac:	e59f30bc 	ldr	r3, [pc, #188]	; b170 <uart_set_divisors+0x260>
    b0b0:	e0831392 	umull	r1, r3, r2, r3
    b0b4:	e1a031a3 	lsr	r3, r3, #3
    b0b8:	e20330ff 	and	r3, r3, #255	; 0xff
    b0bc:	e1a00003 	mov	r0, r3
    b0c0:	ebffd57f 	bl	6c4 <__aeabi_i2d>
    b0c4:	e1a03000 	mov	r3, r0
    b0c8:	e1a04001 	mov	r4, r1
    b0cc:	e1a00003 	mov	r0, r3
    b0d0:	e1a01004 	mov	r1, r4
    b0d4:	e28f3084 	add	r3, pc, #132	; 0x84
    b0d8:	e893000c 	ldm	r3, {r2, r3}
    b0dc:	ebffd4ab 	bl	390 <__adddf3>
    b0e0:	e1a03000 	mov	r3, r0
    b0e4:	e1a04001 	mov	r4, r1
    b0e8:	e1a00003 	mov	r0, r3
    b0ec:	e1a01004 	mov	r1, r4
    b0f0:	ebffd5fb 	bl	8e4 <__aeabi_d2f>
    b0f4:	e1a03000 	mov	r3, r0
    b0f8:	e50b3014 	str	r3, [fp, #-20]	; 0xffffffec
				/* if FRest above 1.9, then end with an error */
				if(cnt == 9)
    b0fc:	e55b300f 	ldrb	r3, [fp, #-15]
    b100:	e3530009 	cmp	r3, #9
    b104:	1a000001 	bne	b110 <uart_set_divisors+0x200>
				{
					/* cannot find correct values */
					return ECALCBAUD;
    b108:	e3e03002 	mvn	r3, #2
    b10c:	ea00000d 	b	b148 <uart_set_divisors+0x238>
	}
	else
	{
		float FRest = 1.5;

		for(cnt = 0; cnt < 9; cnt++)
    b110:	e55b300f 	ldrb	r3, [fp, #-15]
    b114:	e2833001 	add	r3, r3, #1
    b118:	e54b300f 	strb	r3, [fp, #-15]
    b11c:	e55b300f 	ldrb	r3, [fp, #-15]
    b120:	e3530008 	cmp	r3, #8
    b124:	9affff99 	bls	af90 <uart_set_divisors+0x80>
		/* see in look up table for the right values */
		/* TODO: implement lookup Table from Datasheet p.440
		 * Don't forget DLAB bit and write to dev
		 */
		/* DLM = DLest[15:8] and DLL = DLest[7:0] */
		dlm = (DLest & 0xFF00) >> 8;
    b128:	e15b30be 	ldrh	r3, [fp, #-14]
    b12c:	e1a03423 	lsr	r3, r3, #8
    b130:	e1a03803 	lsl	r3, r3, #16
    b134:	e1a03823 	lsr	r3, r3, #16
    b138:	e54b301b 	strb	r3, [fp, #-27]	; 0xffffffe5
		dll = DLest & 0x00FF;
    b13c:	e15b30be 	ldrh	r3, [fp, #-14]
    b140:	e54b301c 	strb	r3, [fp, #-28]	; 0xffffffe4
	}

	return EOK;
    b144:	e3a03000 	mov	r3, #0
}
    b148:	e1a00003 	mov	r0, r3
    b14c:	e24bd00c 	sub	sp, fp, #12
    b150:	e8bd4830 	pop	{r4, r5, fp, lr}
    b154:	e12fff1e 	bx	lr
    b158:	66666666 	.word	0x66666666
    b15c:	3ffe6666 	.word	0x3ffe6666
    b160:	9999999a 	.word	0x9999999a
    b164:	3ff19999 	.word	0x3ff19999
    b168:	02dc6c00 	.word	0x02dc6c00
    b16c:	3fc00000 	.word	0x3fc00000
    b170:	cccccccd 	.word	0xcccccccd
    b174:	e1a00000 	nop			; (mov r0, r0)

Disassembly of section .text.uart_init:

0000b178 <uart_init>:

int32_t uart_init(UART_T *dev, UART_CFG_T *cfg, void(*callback)(void))
{
    b178:	e92d4800 	push	{fp, lr}
    b17c:	e28db004 	add	fp, sp, #4
    b180:	e24dd018 	sub	sp, sp, #24
    b184:	e50b0010 	str	r0, [fp, #-16]
    b188:	e50b1014 	str	r1, [fp, #-20]	; 0xffffffec
    b18c:	e50b2018 	str	r2, [fp, #-24]	; 0xffffffe8
	uint32_t tmp;
	uint8_t divisor = 1;
    b190:	e3a03001 	mov	r3, #1
    b194:	e54b3009 	strb	r3, [fp, #-9]

	/* Check input parameter */
	if(PARAM_UARTx(dev)==EPARAM)
    b198:	e51b2010 	ldr	r2, [fp, #-16]
    b19c:	e59f3288 	ldr	r3, [pc, #648]	; b42c <uart_init+0x2b4>
    b1a0:	e1520003 	cmp	r2, r3
    b1a4:	0a00000d 	beq	b1e0 <uart_init+0x68>
    b1a8:	e51b2010 	ldr	r2, [fp, #-16]
    b1ac:	e59f327c 	ldr	r3, [pc, #636]	; b430 <uart_init+0x2b8>
    b1b0:	e1520003 	cmp	r2, r3
    b1b4:	0a000009 	beq	b1e0 <uart_init+0x68>
    b1b8:	e51b2010 	ldr	r2, [fp, #-16]
    b1bc:	e59f3270 	ldr	r3, [pc, #624]	; b434 <uart_init+0x2bc>
    b1c0:	e1520003 	cmp	r2, r3
    b1c4:	0a000005 	beq	b1e0 <uart_init+0x68>
    b1c8:	e51b2010 	ldr	r2, [fp, #-16]
    b1cc:	e59f3264 	ldr	r3, [pc, #612]	; b438 <uart_init+0x2c0>
    b1d0:	e1520003 	cmp	r2, r3
    b1d4:	0a000001 	beq	b1e0 <uart_init+0x68>
	{
		return EPARAM;
    b1d8:	e3e03001 	mvn	r3, #1
    b1dc:	ea00008e 	b	b41c <uart_init+0x2a4>
	}

	if(uart_enable_power(dev)!=EOK)
    b1e0:	e51b0010 	ldr	r0, [fp, #-16]
    b1e4:	ebfffeb4 	bl	acbc <uart_enable_power>
    b1e8:	e1a03000 	mov	r3, r0
    b1ec:	e3530000 	cmp	r3, #0
    b1f0:	0a000001 	beq	b1fc <uart_init+0x84>
	{
		(void)printf("Error!");
    b1f4:	e59f0240 	ldr	r0, [pc, #576]	; b43c <uart_init+0x2c4>
    b1f8:	ebffd76c 	bl	fb0 <printf>
	}

	if(uart_set_clock(dev, divisor)!=EOK)
    b1fc:	e55b3009 	ldrb	r3, [fp, #-9]
    b200:	e51b0010 	ldr	r0, [fp, #-16]
    b204:	e1a01003 	mov	r1, r3
    b208:	ebfffee1 	bl	ad94 <uart_set_clock>
    b20c:	e1a03000 	mov	r3, r0
    b210:	e3530000 	cmp	r3, #0
    b214:	0a000001 	beq	b220 <uart_init+0xa8>
	{
		(void)printf("Error!");
    b218:	e59f021c 	ldr	r0, [pc, #540]	; b43c <uart_init+0x2c4>
    b21c:	ebffd763 	bl	fb0 <printf>
	}

	/* FIFOs are empty */
	dev->FCR = ( UART_FCR_FIFO_EN | UART_FCR_RX_RS | UART_FCR_TX_RS);
    b220:	e51b3010 	ldr	r3, [fp, #-16]
    b224:	e3a02007 	mov	r2, #7
    b228:	e5c3200c 	strb	r2, [r3, #12]
	/* Disable FIFO */
	dev->FCR = 0;
    b22c:	e51b3010 	ldr	r3, [fp, #-16]
    b230:	e3a02000 	mov	r2, #0
    b234:	e5c3200c 	strb	r2, [r3, #12]

	/* Dummy reading */
	while (dev->LSR & UART_LSR_RDR)
    b238:	ea000003 	b	b24c <uart_init+0xd4>
	{
		tmp = dev->RBR;
    b23c:	e51b3010 	ldr	r3, [fp, #-16]
    b240:	e5d33000 	ldrb	r3, [r3]
    b244:	e20330ff 	and	r3, r3, #255	; 0xff
    b248:	e50b3008 	str	r3, [fp, #-8]
	dev->FCR = ( UART_FCR_FIFO_EN | UART_FCR_RX_RS | UART_FCR_TX_RS);
	/* Disable FIFO */
	dev->FCR = 0;

	/* Dummy reading */
	while (dev->LSR & UART_LSR_RDR)
    b24c:	e51b3010 	ldr	r3, [fp, #-16]
    b250:	e5d3300e 	ldrb	r3, [r3, #14]
    b254:	e20330ff 	and	r3, r3, #255	; 0xff
    b258:	e2033001 	and	r3, r3, #1
    b25c:	e20330ff 	and	r3, r3, #255	; 0xff
    b260:	e3530000 	cmp	r3, #0
    b264:	1afffff4 	bne	b23c <uart_init+0xc4>
	{
		tmp = dev->RBR;
	}

	dev->TER = UART_TER_TXEN;
    b268:	e51b3010 	ldr	r3, [fp, #-16]
    b26c:	e3e0207f 	mvn	r2, #127	; 0x7f
    b270:	e5c32018 	strb	r2, [r3, #24]
	/* Wait for current transmit complete */
	while (!(dev->LSR & UART_LSR_THRE));
    b274:	e1a00000 	nop			; (mov r0, r0)
    b278:	e51b3010 	ldr	r3, [fp, #-16]
    b27c:	e5d3300e 	ldrb	r3, [r3, #14]
    b280:	e20330ff 	and	r3, r3, #255	; 0xff
    b284:	e2033020 	and	r3, r3, #32
    b288:	e3530000 	cmp	r3, #0
    b28c:	0afffff9 	beq	b278 <uart_init+0x100>
	/* Disable Tx */
	dev->TER = 0;
    b290:	e51b3010 	ldr	r3, [fp, #-16]
    b294:	e3a02000 	mov	r2, #0
    b298:	e5c32018 	strb	r2, [r3, #24]

	/* Disable interrupt */
	dev->IER = 0;
    b29c:	e51b3010 	ldr	r3, [fp, #-16]
    b2a0:	e3a02000 	mov	r2, #0
    b2a4:	e5832004 	str	r2, [r3, #4]
	/* Set LCR to default state */
	dev->LCR = 0;
    b2a8:	e51b3010 	ldr	r3, [fp, #-16]
    b2ac:	e3a02000 	mov	r2, #0
    b2b0:	e5c3200d 	strb	r2, [r3, #13]
	/* Set ACR to default state */
	dev->ACR = 0;
    b2b4:	e51b3010 	ldr	r3, [fp, #-16]
    b2b8:	e3a02000 	mov	r2, #0
    b2bc:	e5832010 	str	r2, [r3, #16]
	/* Dummy reading */
	tmp = dev->LSR;
    b2c0:	e51b3010 	ldr	r3, [fp, #-16]
    b2c4:	e5d3300e 	ldrb	r3, [r3, #14]
    b2c8:	e20330ff 	and	r3, r3, #255	; 0xff
    b2cc:	e50b3008 	str	r3, [fp, #-8]

	if(uart_set_divisors(dev, cfg->Baud_rate, divisor)!=EOK)
    b2d0:	e51b3014 	ldr	r3, [fp, #-20]	; 0xffffffec
    b2d4:	e5932000 	ldr	r2, [r3]
    b2d8:	e55b3009 	ldrb	r3, [fp, #-9]
    b2dc:	e51b0010 	ldr	r0, [fp, #-16]
    b2e0:	e1a01002 	mov	r1, r2
    b2e4:	e1a02003 	mov	r2, r3
    b2e8:	ebffff08 	bl	af10 <uart_set_divisors>
    b2ec:	e1a03000 	mov	r3, r0
    b2f0:	e3530000 	cmp	r3, #0
    b2f4:	0a000001 	beq	b300 <uart_init+0x188>
	{
		(void)printf("Error!");
    b2f8:	e59f013c 	ldr	r0, [pc, #316]	; b43c <uart_init+0x2c4>
    b2fc:	ebffd72b 	bl	fb0 <printf>
	}

	tmp = (dev->LCR & (UART_LCR_DLAB_EN | UART_LCR_BREAK_EN)) & UART_LCR_BITMASK;
    b300:	e51b3010 	ldr	r3, [fp, #-16]
    b304:	e5d3300d 	ldrb	r3, [r3, #13]
    b308:	e20330ff 	and	r3, r3, #255	; 0xff
    b30c:	e20330c0 	and	r3, r3, #192	; 0xc0
    b310:	e50b3008 	str	r3, [fp, #-8]

	/* set Databits */
	switch (cfg->Databits){
    b314:	e51b3014 	ldr	r3, [fp, #-20]	; 0xffffffec
    b318:	e5d33005 	ldrb	r3, [r3, #5]
    b31c:	e3530001 	cmp	r3, #1
    b320:	0a000004 	beq	b338 <uart_init+0x1c0>
    b324:	e3530002 	cmp	r3, #2
    b328:	0a000006 	beq	b348 <uart_init+0x1d0>
    b32c:	e3530000 	cmp	r3, #0
    b330:	0a00000c 	beq	b368 <uart_init+0x1f0>
    b334:	ea000007 	b	b358 <uart_init+0x1e0>
	case UART_DATABIT_5:
		tmp |= UART_LCR_WLEN5;
		break;
	case UART_DATABIT_6:
		tmp |= UART_LCR_WLEN6;
    b338:	e51b3008 	ldr	r3, [fp, #-8]
    b33c:	e3833001 	orr	r3, r3, #1
    b340:	e50b3008 	str	r3, [fp, #-8]
		break;
    b344:	ea000008 	b	b36c <uart_init+0x1f4>
	case UART_DATABIT_7:
		tmp |= UART_LCR_WLEN7;
    b348:	e51b3008 	ldr	r3, [fp, #-8]
    b34c:	e3833002 	orr	r3, r3, #2
    b350:	e50b3008 	str	r3, [fp, #-8]
		break;
    b354:	ea000004 	b	b36c <uart_init+0x1f4>
	case UART_DATABIT_8:
	default:
		tmp |= UART_LCR_WLEN8;
    b358:	e51b3008 	ldr	r3, [fp, #-8]
    b35c:	e3833003 	orr	r3, r3, #3
    b360:	e50b3008 	str	r3, [fp, #-8]
		break;
    b364:	ea000000 	b	b36c <uart_init+0x1f4>

	/* set Databits */
	switch (cfg->Databits){
	case UART_DATABIT_5:
		tmp |= UART_LCR_WLEN5;
		break;
    b368:	e1a00000 	nop			; (mov r0, r0)
		tmp |= UART_LCR_WLEN8;
		break;
	}

	/* set Parity mode */
	if (cfg->Parity == UART_PARITY_NONE)
    b36c:	e51b3014 	ldr	r3, [fp, #-20]	; 0xffffffec
    b370:	e5d33004 	ldrb	r3, [r3, #4]
    b374:	e3530000 	cmp	r3, #0
    b378:	0a000019 	beq	b3e4 <uart_init+0x26c>
	{
		/* Do nothing... */
	}
	else
	{
		tmp |= UART_LCR_PARITY_EN;
    b37c:	e51b3008 	ldr	r3, [fp, #-8]
    b380:	e3833008 	orr	r3, r3, #8
    b384:	e50b3008 	str	r3, [fp, #-8]
		switch (cfg->Parity)
    b388:	e51b3014 	ldr	r3, [fp, #-20]	; 0xffffffec
    b38c:	e5d33004 	ldrb	r3, [r3, #4]
    b390:	e2433001 	sub	r3, r3, #1
    b394:	e3530003 	cmp	r3, #3
    b398:	979ff103 	ldrls	pc, [pc, r3, lsl #2]
    b39c:	ea00000f 	b	b3e0 <uart_init+0x268>
    b3a0:	0000b3e0 	.word	0x0000b3e0
    b3a4:	0000b3b0 	.word	0x0000b3b0
    b3a8:	0000b3c0 	.word	0x0000b3c0
    b3ac:	0000b3d0 	.word	0x0000b3d0
		case UART_PARITY_ODD:
			tmp |= UART_LCR_PARITY_ODD;
			break;

		case UART_PARITY_EVEN:
			tmp |= UART_LCR_PARITY_EVEN;
    b3b0:	e51b3008 	ldr	r3, [fp, #-8]
    b3b4:	e3833010 	orr	r3, r3, #16
    b3b8:	e50b3008 	str	r3, [fp, #-8]
			break;
    b3bc:	ea000008 	b	b3e4 <uart_init+0x26c>

		case UART_PARITY_SP1:
			tmp |= UART_LCR_PARITY_F_1;
    b3c0:	e51b3008 	ldr	r3, [fp, #-8]
    b3c4:	e3833020 	orr	r3, r3, #32
    b3c8:	e50b3008 	str	r3, [fp, #-8]
			break;
    b3cc:	ea000004 	b	b3e4 <uart_init+0x26c>

		case UART_PARITY_SP0:
			tmp |= UART_LCR_PARITY_F_0;
    b3d0:	e51b3008 	ldr	r3, [fp, #-8]
    b3d4:	e3833030 	orr	r3, r3, #48	; 0x30
    b3d8:	e50b3008 	str	r3, [fp, #-8]
			break;
    b3dc:	ea000000 	b	b3e4 <uart_init+0x26c>
		default:
			break;
    b3e0:	e1a00000 	nop			; (mov r0, r0)
		}
	}

	/* set stop bits */
	switch (cfg->Stopbits){
    b3e4:	e51b3014 	ldr	r3, [fp, #-20]	; 0xffffffec
    b3e8:	e5d33006 	ldrb	r3, [r3, #6]
    b3ec:	e3530001 	cmp	r3, #1
    b3f0:	1a000003 	bne	b404 <uart_init+0x28c>
	case UART_STOPBIT_2:
		tmp |= UART_LCR_STOPBIT_SEL;
    b3f4:	e51b3008 	ldr	r3, [fp, #-8]
    b3f8:	e3833004 	orr	r3, r3, #4
    b3fc:	e50b3008 	str	r3, [fp, #-8]
		break;
    b400:	ea000000 	b	b408 <uart_init+0x290>
	case UART_STOPBIT_1:
	default:
		/* Do no thing... */
		break;
    b404:	e1a00000 	nop			; (mov r0, r0)
	}

	/* write back to LCR, configure FIFO and disable Tx */
	dev->LCR = (uint8_t)(tmp & UART_LCR_BITMASK);
    b408:	e51b3008 	ldr	r3, [fp, #-8]
    b40c:	e20320ff 	and	r2, r3, #255	; 0xff
    b410:	e51b3010 	ldr	r3, [fp, #-16]
    b414:	e5c3200d 	strb	r2, [r3, #13]
//	if ( install_irq( UART0_INT, (void *)UART0Handler(), HIGHEST_PRIORITY  ) == FALSE )
//	{
//		return (FALSE);
//	}

	return EOK;
    b418:	e3a03000 	mov	r3, #0
}
    b41c:	e1a00003 	mov	r0, r3
    b420:	e24bd004 	sub	sp, fp, #4
    b424:	e8bd4800 	pop	{fp, lr}
    b428:	e12fff1e 	bx	lr
    b42c:	e000c000 	.word	0xe000c000
    b430:	e0010000 	.word	0xe0010000
    b434:	e0078000 	.word	0xe0078000
    b438:	e007c000 	.word	0xe007c000
    b43c:	0000aac4 	.word	0x0000aac4

Disassembly of section .text.uart_enable:

0000b440 <uart_enable>:

void uart_enable(UART_T *dev, uint8_t flag)
{
    b440:	e52db004 	push	{fp}		; (str fp, [sp, #-4]!)
    b444:	e28db000 	add	fp, sp, #0
    b448:	e24dd014 	sub	sp, sp, #20
    b44c:	e50b0010 	str	r0, [fp, #-16]
    b450:	e1a03001 	mov	r3, r1
    b454:	e54b3011 	strb	r3, [fp, #-17]	; 0xffffffef
	uint32_t tmp;

	switch(flag) {
    b458:	e55b3011 	ldrb	r3, [fp, #-17]	; 0xffffffef
    b45c:	e3530006 	cmp	r3, #6
    b460:	979ff103 	ldrls	pc, [pc, r3, lsl #2]
    b464:	ea00001b 	b	b4d8 <uart_enable+0x98>
    b468:	0000b484 	.word	0x0000b484
    b46c:	0000b490 	.word	0x0000b490
    b470:	0000b49c 	.word	0x0000b49c
    b474:	0000b4a8 	.word	0x0000b4a8
    b478:	0000b4b4 	.word	0x0000b4b4
    b47c:	0000b4c0 	.word	0x0000b4c0
    b480:	0000b4cc 	.word	0x0000b4cc
	case 0:
		tmp = UART_IER_RBRINT_EN;
    b484:	e3a03001 	mov	r3, #1
    b488:	e50b3008 	str	r3, [fp, #-8]
		break;
    b48c:	ea000014 	b	b4e4 <uart_enable+0xa4>
	case 1:
		tmp = UART_IER_THREINT_EN;
    b490:	e3a03002 	mov	r3, #2
    b494:	e50b3008 	str	r3, [fp, #-8]
		break;
    b498:	ea000011 	b	b4e4 <uart_enable+0xa4>
	case 2:
		tmp = UART_IER_RLSINT_EN;
    b49c:	e3a03004 	mov	r3, #4
    b4a0:	e50b3008 	str	r3, [fp, #-8]
		break;
    b4a4:	ea00000e 	b	b4e4 <uart_enable+0xa4>
	case 3:
		tmp = UART1_IER_MSINT_EN;
    b4a8:	e3a03008 	mov	r3, #8
    b4ac:	e50b3008 	str	r3, [fp, #-8]
		break;
    b4b0:	ea00000b 	b	b4e4 <uart_enable+0xa4>
	case 4:
		tmp = UART1_IER_CTSINT_EN;
    b4b4:	e3a03080 	mov	r3, #128	; 0x80
    b4b8:	e50b3008 	str	r3, [fp, #-8]
		break;
    b4bc:	ea000008 	b	b4e4 <uart_enable+0xa4>
	case 5:
		tmp = UART_IER_ABEOINT_EN;
    b4c0:	e3a03c01 	mov	r3, #256	; 0x100
    b4c4:	e50b3008 	str	r3, [fp, #-8]
		break;
    b4c8:	ea000005 	b	b4e4 <uart_enable+0xa4>
	case 6:
		tmp = UART_IER_ABTOINT_EN;
    b4cc:	e3a03c02 	mov	r3, #512	; 0x200
    b4d0:	e50b3008 	str	r3, [fp, #-8]
		break;
    b4d4:	ea000002 	b	b4e4 <uart_enable+0xa4>
	default:
		tmp = (uint32_t)0;
    b4d8:	e3a03000 	mov	r3, #0
    b4dc:	e50b3008 	str	r3, [fp, #-8]
		break;
    b4e0:	e1a00000 	nop			; (mov r0, r0)
	}

	/* write to IER register */
	dev->IER |= tmp;
    b4e4:	e51b3010 	ldr	r3, [fp, #-16]
    b4e8:	e5932004 	ldr	r2, [r3, #4]
    b4ec:	e51b3008 	ldr	r3, [fp, #-8]
    b4f0:	e1822003 	orr	r2, r2, r3
    b4f4:	e51b3010 	ldr	r3, [fp, #-16]
    b4f8:	e5832004 	str	r2, [r3, #4]
}
    b4fc:	e28bd000 	add	sp, fp, #0
    b500:	e8bd0800 	pop	{fp}
    b504:	e12fff1e 	bx	lr

Disassembly of section .text.uart_disable:

0000b508 <uart_disable>:

void uart_disable(UART_T *dev, uint8_t flag)
{
    b508:	e52db004 	push	{fp}		; (str fp, [sp, #-4]!)
    b50c:	e28db000 	add	fp, sp, #0
    b510:	e24dd014 	sub	sp, sp, #20
    b514:	e50b0010 	str	r0, [fp, #-16]
    b518:	e1a03001 	mov	r3, r1
    b51c:	e54b3011 	strb	r3, [fp, #-17]	; 0xffffffef
	uint32_t tmp;

	switch(flag) {
    b520:	e55b3011 	ldrb	r3, [fp, #-17]	; 0xffffffef
    b524:	e3530006 	cmp	r3, #6
    b528:	979ff103 	ldrls	pc, [pc, r3, lsl #2]
    b52c:	ea00001b 	b	b5a0 <uart_disable+0x98>
    b530:	0000b54c 	.word	0x0000b54c
    b534:	0000b558 	.word	0x0000b558
    b538:	0000b564 	.word	0x0000b564
    b53c:	0000b570 	.word	0x0000b570
    b540:	0000b57c 	.word	0x0000b57c
    b544:	0000b588 	.word	0x0000b588
    b548:	0000b594 	.word	0x0000b594
	case 0:
		tmp = UART_IER_RBRINT_EN;
    b54c:	e3a03001 	mov	r3, #1
    b550:	e50b3008 	str	r3, [fp, #-8]
		break;
    b554:	ea000014 	b	b5ac <uart_disable+0xa4>
	case 1:
		tmp = UART_IER_THREINT_EN;
    b558:	e3a03002 	mov	r3, #2
    b55c:	e50b3008 	str	r3, [fp, #-8]
		break;
    b560:	ea000011 	b	b5ac <uart_disable+0xa4>
	case 2:
		tmp = UART_IER_RLSINT_EN;
    b564:	e3a03004 	mov	r3, #4
    b568:	e50b3008 	str	r3, [fp, #-8]
		break;
    b56c:	ea00000e 	b	b5ac <uart_disable+0xa4>
	case 3:
		tmp = UART1_IER_MSINT_EN;
    b570:	e3a03008 	mov	r3, #8
    b574:	e50b3008 	str	r3, [fp, #-8]
		break;
    b578:	ea00000b 	b	b5ac <uart_disable+0xa4>
	case 4:
		tmp = UART1_IER_CTSINT_EN;
    b57c:	e3a03080 	mov	r3, #128	; 0x80
    b580:	e50b3008 	str	r3, [fp, #-8]
		break;
    b584:	ea000008 	b	b5ac <uart_disable+0xa4>
	case 5:
		tmp = UART_IER_ABEOINT_EN;
    b588:	e3a03c01 	mov	r3, #256	; 0x100
    b58c:	e50b3008 	str	r3, [fp, #-8]
		break;
    b590:	ea000005 	b	b5ac <uart_disable+0xa4>
	case 6:
		tmp = UART_IER_ABTOINT_EN;
    b594:	e3a03c02 	mov	r3, #512	; 0x200
    b598:	e50b3008 	str	r3, [fp, #-8]
		break;
    b59c:	ea000002 	b	b5ac <uart_disable+0xa4>
	default:
		tmp = (uint32_t)0;
    b5a0:	e3a03000 	mov	r3, #0
    b5a4:	e50b3008 	str	r3, [fp, #-8]
		break;
    b5a8:	e1a00000 	nop			; (mov r0, r0)
	}

	/* write to IER register */
	dev->IER &= (~tmp) & UART_IER_BITMASK;
    b5ac:	e51b3010 	ldr	r3, [fp, #-16]
    b5b0:	e5932004 	ldr	r2, [r3, #4]
    b5b4:	e51b3008 	ldr	r3, [fp, #-8]
    b5b8:	e1e03003 	mvn	r3, r3
    b5bc:	e0022003 	and	r2, r2, r3
    b5c0:	e59f3014 	ldr	r3, [pc, #20]	; b5dc <uart_disable+0xd4>
    b5c4:	e0023003 	and	r3, r2, r3
    b5c8:	e51b2010 	ldr	r2, [fp, #-16]
    b5cc:	e5823004 	str	r3, [r2, #4]
}
    b5d0:	e28bd000 	add	sp, fp, #0
    b5d4:	e8bd0800 	pop	{fp}
    b5d8:	e12fff1e 	bx	lr
    b5dc:	00000307 	.word	0x00000307

Disassembly of section .text.get_char:

0000b5e0 <get_char>:

uint8_t get_char(UART_T *dev)
{
    b5e0:	e52db004 	push	{fp}		; (str fp, [sp, #-4]!)
    b5e4:	e28db000 	add	fp, sp, #0
    b5e8:	e24dd00c 	sub	sp, sp, #12
    b5ec:	e50b0008 	str	r0, [fp, #-8]
	/* Check input parameter */
	if(PARAM_UARTx(dev)==EPARAM)
    b5f0:	e51b2008 	ldr	r2, [fp, #-8]
    b5f4:	e59f3050 	ldr	r3, [pc, #80]	; b64c <get_char+0x6c>
    b5f8:	e1520003 	cmp	r2, r3
    b5fc:	0a00000d 	beq	b638 <get_char+0x58>
    b600:	e51b2008 	ldr	r2, [fp, #-8]
    b604:	e59f3044 	ldr	r3, [pc, #68]	; b650 <get_char+0x70>
    b608:	e1520003 	cmp	r2, r3
    b60c:	0a000009 	beq	b638 <get_char+0x58>
    b610:	e51b2008 	ldr	r2, [fp, #-8]
    b614:	e59f3038 	ldr	r3, [pc, #56]	; b654 <get_char+0x74>
    b618:	e1520003 	cmp	r2, r3
    b61c:	0a000005 	beq	b638 <get_char+0x58>
    b620:	e51b2008 	ldr	r2, [fp, #-8]
    b624:	e59f302c 	ldr	r3, [pc, #44]	; b658 <get_char+0x78>
    b628:	e1520003 	cmp	r2, r3
    b62c:	0a000001 	beq	b638 <get_char+0x58>
	{
		return EPARAM;
    b630:	e3a030fe 	mov	r3, #254	; 0xfe
    b634:	ea000000 	b	b63c <get_char+0x5c>
	}

	return EOK;
    b638:	e3a03000 	mov	r3, #0
}
    b63c:	e1a00003 	mov	r0, r3
    b640:	e28bd000 	add	sp, fp, #0
    b644:	e8bd0800 	pop	{fp}
    b648:	e12fff1e 	bx	lr
    b64c:	e000c000 	.word	0xe000c000
    b650:	e0010000 	.word	0xe0010000
    b654:	e0078000 	.word	0xe0078000
    b658:	e007c000 	.word	0xe007c000

Disassembly of section .text.put_char:

0000b65c <put_char>:

void put_char(UART_T *dev)
{
    b65c:	e52db004 	push	{fp}		; (str fp, [sp, #-4]!)
    b660:	e28db000 	add	fp, sp, #0
    b664:	e24dd00c 	sub	sp, sp, #12
    b668:	e50b0008 	str	r0, [fp, #-8]

}
    b66c:	e28bd000 	add	sp, fp, #0
    b670:	e8bd0800 	pop	{fp}
    b674:	e12fff1e 	bx	lr

Disassembly of section .text.initSendCB:

0000b678 <initSendCB>:
unsigned char volatile RecvCB_Out;
unsigned char volatile RecvCB_Full;
unsigned char volatile RecvCB_Empty;

static void initSendCB(void)
{
    b678:	e52db004 	push	{fp}		; (str fp, [sp, #-4]!)
    b67c:	e28db000 	add	fp, sp, #0
	SendCB_Full  = FALSE;
    b680:	e59f1054 	ldr	r1, [pc, #84]	; b6dc <initSendCB+0x64>
    b684:	e3a03000 	mov	r3, #0
    b688:	e1a02003 	mov	r2, r3
    b68c:	e1a03001 	mov	r3, r1
    b690:	e5c32000 	strb	r2, [r3]
	SendCB_Empty = TRUE;
    b694:	e59f1044 	ldr	r1, [pc, #68]	; b6e0 <initSendCB+0x68>
    b698:	e3a03001 	mov	r3, #1
    b69c:	e1a02003 	mov	r2, r3
    b6a0:	e1a03001 	mov	r3, r1
    b6a4:	e5c32000 	strb	r2, [r3]
	SendCB_In	 = 0;
    b6a8:	e59f1034 	ldr	r1, [pc, #52]	; b6e4 <initSendCB+0x6c>
    b6ac:	e3a03000 	mov	r3, #0
    b6b0:	e1a02003 	mov	r2, r3
    b6b4:	e1a03001 	mov	r3, r1
    b6b8:	e5c32000 	strb	r2, [r3]
	SendCB_Out	 = 0;
    b6bc:	e59f1024 	ldr	r1, [pc, #36]	; b6e8 <initSendCB+0x70>
    b6c0:	e3a03000 	mov	r3, #0
    b6c4:	e1a02003 	mov	r2, r3
    b6c8:	e1a03001 	mov	r3, r1
    b6cc:	e5c32000 	strb	r2, [r3]
}
    b6d0:	e28bd000 	add	sp, fp, #0
    b6d4:	e8bd0800 	pop	{fp}
    b6d8:	e12fff1e 	bx	lr
    b6dc:	4000091e 	.word	0x4000091e
    b6e0:	40000904 	.word	0x40000904
    b6e4:	4000091a 	.word	0x4000091a
    b6e8:	4000091c 	.word	0x4000091c

Disassembly of section .text.initRecvCB:

0000b6ec <initRecvCB>:

static void initRecvCB(void)
{
    b6ec:	e52db004 	push	{fp}		; (str fp, [sp, #-4]!)
    b6f0:	e28db000 	add	fp, sp, #0
	RecvCB_Full  = FALSE;
    b6f4:	e59f1054 	ldr	r1, [pc, #84]	; b750 <initRecvCB+0x64>
    b6f8:	e3a03000 	mov	r3, #0
    b6fc:	e1a02003 	mov	r2, r3
    b700:	e1a03001 	mov	r3, r1
    b704:	e5c32000 	strb	r2, [r3]
	RecvCB_Empty = TRUE;
    b708:	e59f1044 	ldr	r1, [pc, #68]	; b754 <initRecvCB+0x68>
    b70c:	e3a03001 	mov	r3, #1
    b710:	e1a02003 	mov	r2, r3
    b714:	e1a03001 	mov	r3, r1
    b718:	e5c32000 	strb	r2, [r3]
	RecvCB_In	 = 0;
    b71c:	e59f1034 	ldr	r1, [pc, #52]	; b758 <initRecvCB+0x6c>
    b720:	e3a03000 	mov	r3, #0
    b724:	e1a02003 	mov	r2, r3
    b728:	e1a03001 	mov	r3, r1
    b72c:	e5c32000 	strb	r2, [r3]
	RecvCB_Out	 = 0;
    b730:	e59f1024 	ldr	r1, [pc, #36]	; b75c <initRecvCB+0x70>
    b734:	e3a03000 	mov	r3, #0
    b738:	e1a02003 	mov	r2, r3
    b73c:	e1a03001 	mov	r3, r1
    b740:	e5c32000 	strb	r2, [r3]
}
    b744:	e28bd000 	add	sp, fp, #0
    b748:	e8bd0800 	pop	{fp}
    b74c:	e12fff1e 	bx	lr
    b750:	40000919 	.word	0x40000919
    b754:	40000918 	.word	0x40000918
    b758:	4000091d 	.word	0x4000091d
    b75c:	4000091b 	.word	0x4000091b

Disassembly of section .text.initCB:

0000b760 <initCB>:

void initCB(void)
{
    b760:	e92d4800 	push	{fp, lr}
    b764:	e28db004 	add	fp, sp, #4
	initSendCB();
    b768:	ebffffc2 	bl	b678 <initSendCB>
	initRecvCB();
    b76c:	ebffffde 	bl	b6ec <initRecvCB>
}
    b770:	e24bd004 	sub	sp, fp, #4
    b774:	e8bd4800 	pop	{fp, lr}
    b778:	e12fff1e 	bx	lr

Disassembly of section .text.putSendCB:

0000b77c <putSendCB>:
 * \param      c Character to send
 *
 * \return     TRUE if successful otherwise FALSE!
 */
int32_t putSendCB(unsigned char c)
{
    b77c:	e52db004 	push	{fp}		; (str fp, [sp, #-4]!)
    b780:	e28db000 	add	fp, sp, #0
    b784:	e24dd014 	sub	sp, sp, #20
    b788:	e1a03000 	mov	r3, r0
    b78c:	e54b300d 	strb	r3, [fp, #-13]
	int32_t ret = ECB;
    b790:	e3e03003 	mvn	r3, #3
    b794:	e50b3008 	str	r3, [fp, #-8]
	if(SendCB_Full == FALSE){
    b798:	e59f30c0 	ldr	r3, [pc, #192]	; b860 <putSendCB+0xe4>
    b79c:	e5d33000 	ldrb	r3, [r3]
    b7a0:	e20330ff 	and	r3, r3, #255	; 0xff
    b7a4:	e3530000 	cmp	r3, #0
    b7a8:	1a000022 	bne	b838 <putSendCB+0xbc>
		SendCB_Array[SendCB_In] = c;
    b7ac:	e59f30b0 	ldr	r3, [pc, #176]	; b864 <putSendCB+0xe8>
    b7b0:	e5d33000 	ldrb	r3, [r3]
    b7b4:	e20330ff 	and	r3, r3, #255	; 0xff
    b7b8:	e59f20a8 	ldr	r2, [pc, #168]	; b868 <putSendCB+0xec>
    b7bc:	e55b100d 	ldrb	r1, [fp, #-13]
    b7c0:	e7c21003 	strb	r1, [r2, r3]
		SendCB_In = (SendCB_In + 1) % CB_SIZE;
    b7c4:	e59f3098 	ldr	r3, [pc, #152]	; b864 <putSendCB+0xe8>
    b7c8:	e5d33000 	ldrb	r3, [r3]
    b7cc:	e20330ff 	and	r3, r3, #255	; 0xff
    b7d0:	e2832001 	add	r2, r3, #1
    b7d4:	e1a03fc2 	asr	r3, r2, #31
    b7d8:	e1a03e23 	lsr	r3, r3, #28
    b7dc:	e0822003 	add	r2, r2, r3
    b7e0:	e202200f 	and	r2, r2, #15
    b7e4:	e0633002 	rsb	r3, r3, r2
    b7e8:	e20330ff 	and	r3, r3, #255	; 0xff
    b7ec:	e59f1070 	ldr	r1, [pc, #112]	; b864 <putSendCB+0xe8>
    b7f0:	e1a02003 	mov	r2, r3
    b7f4:	e1a03001 	mov	r3, r1
    b7f8:	e5c32000 	strb	r2, [r3]
		if(SendCB_In == SendCB_Out){
    b7fc:	e59f3060 	ldr	r3, [pc, #96]	; b864 <putSendCB+0xe8>
    b800:	e5d33000 	ldrb	r3, [r3]
    b804:	e20320ff 	and	r2, r3, #255	; 0xff
    b808:	e59f305c 	ldr	r3, [pc, #92]	; b86c <putSendCB+0xf0>
    b80c:	e5d33000 	ldrb	r3, [r3]
    b810:	e20330ff 	and	r3, r3, #255	; 0xff
    b814:	e1520003 	cmp	r2, r3
    b818:	1a000004 	bne	b830 <putSendCB+0xb4>
			SendCB_Full = TRUE;
    b81c:	e59f103c 	ldr	r1, [pc, #60]	; b860 <putSendCB+0xe4>
    b820:	e3a03001 	mov	r3, #1
    b824:	e1a02003 	mov	r2, r3
    b828:	e1a03001 	mov	r3, r1
    b82c:	e5c32000 	strb	r2, [r3]
		}
		ret = EOK;
    b830:	e3a03000 	mov	r3, #0
    b834:	e50b3008 	str	r3, [fp, #-8]
	}
	SendCB_Empty = FALSE;
    b838:	e59f1030 	ldr	r1, [pc, #48]	; b870 <putSendCB+0xf4>
    b83c:	e3a03000 	mov	r3, #0
    b840:	e1a02003 	mov	r2, r3
    b844:	e1a03001 	mov	r3, r1
    b848:	e5c32000 	strb	r2, [r3]
	return ret;
    b84c:	e51b3008 	ldr	r3, [fp, #-8]
}
    b850:	e1a00003 	mov	r0, r3
    b854:	e28bd000 	add	sp, fp, #0
    b858:	e8bd0800 	pop	{fp}
    b85c:	e12fff1e 	bx	lr
    b860:	4000091e 	.word	0x4000091e
    b864:	4000091a 	.word	0x4000091a
    b868:	40000908 	.word	0x40000908
    b86c:	4000091c 	.word	0x4000091c
    b870:	40000904 	.word	0x40000904

Disassembly of section .text.getSendCB:

0000b874 <getSendCB>:
 * \param      *i Pointer to character location
 *
 * \return     TRUE if successful otherwise FALSE!
 */
int32_t getSendCB(unsigned char *i)
{
    b874:	e52db004 	push	{fp}		; (str fp, [sp, #-4]!)
    b878:	e28db000 	add	fp, sp, #0
    b87c:	e24dd014 	sub	sp, sp, #20
    b880:	e50b0010 	str	r0, [fp, #-16]
	int32_t ret = ECB;
    b884:	e3e03003 	mvn	r3, #3
    b888:	e50b3008 	str	r3, [fp, #-8]
	if(SendCB_Empty == FALSE){
    b88c:	e59f30c4 	ldr	r3, [pc, #196]	; b958 <getSendCB+0xe4>
    b890:	e5d33000 	ldrb	r3, [r3]
    b894:	e20330ff 	and	r3, r3, #255	; 0xff
    b898:	e3530000 	cmp	r3, #0
    b89c:	1a000023 	bne	b930 <getSendCB+0xbc>
		*i = SendCB_Array[SendCB_Out];
    b8a0:	e59f30b4 	ldr	r3, [pc, #180]	; b95c <getSendCB+0xe8>
    b8a4:	e5d33000 	ldrb	r3, [r3]
    b8a8:	e20330ff 	and	r3, r3, #255	; 0xff
    b8ac:	e59f20ac 	ldr	r2, [pc, #172]	; b960 <getSendCB+0xec>
    b8b0:	e7d22003 	ldrb	r2, [r2, r3]
    b8b4:	e51b3010 	ldr	r3, [fp, #-16]
    b8b8:	e5c32000 	strb	r2, [r3]
		SendCB_Out = (SendCB_Out + 1) % CB_SIZE;
    b8bc:	e59f3098 	ldr	r3, [pc, #152]	; b95c <getSendCB+0xe8>
    b8c0:	e5d33000 	ldrb	r3, [r3]
    b8c4:	e20330ff 	and	r3, r3, #255	; 0xff
    b8c8:	e2832001 	add	r2, r3, #1
    b8cc:	e1a03fc2 	asr	r3, r2, #31
    b8d0:	e1a03e23 	lsr	r3, r3, #28
    b8d4:	e0822003 	add	r2, r2, r3
    b8d8:	e202200f 	and	r2, r2, #15
    b8dc:	e0633002 	rsb	r3, r3, r2
    b8e0:	e20330ff 	and	r3, r3, #255	; 0xff
    b8e4:	e59f1070 	ldr	r1, [pc, #112]	; b95c <getSendCB+0xe8>
    b8e8:	e1a02003 	mov	r2, r3
    b8ec:	e1a03001 	mov	r3, r1
    b8f0:	e5c32000 	strb	r2, [r3]
		if(SendCB_In == SendCB_Out){
    b8f4:	e59f3068 	ldr	r3, [pc, #104]	; b964 <getSendCB+0xf0>
    b8f8:	e5d33000 	ldrb	r3, [r3]
    b8fc:	e20320ff 	and	r2, r3, #255	; 0xff
    b900:	e59f3054 	ldr	r3, [pc, #84]	; b95c <getSendCB+0xe8>
    b904:	e5d33000 	ldrb	r3, [r3]
    b908:	e20330ff 	and	r3, r3, #255	; 0xff
    b90c:	e1520003 	cmp	r2, r3
    b910:	1a000004 	bne	b928 <getSendCB+0xb4>
			SendCB_Empty = TRUE;
    b914:	e59f103c 	ldr	r1, [pc, #60]	; b958 <getSendCB+0xe4>
    b918:	e3a03001 	mov	r3, #1
    b91c:	e1a02003 	mov	r2, r3
    b920:	e1a03001 	mov	r3, r1
    b924:	e5c32000 	strb	r2, [r3]
		}
		ret = EOK;
    b928:	e3a03000 	mov	r3, #0
    b92c:	e50b3008 	str	r3, [fp, #-8]
	}
	SendCB_Full = FALSE;
    b930:	e59f1030 	ldr	r1, [pc, #48]	; b968 <getSendCB+0xf4>
    b934:	e3a03000 	mov	r3, #0
    b938:	e1a02003 	mov	r2, r3
    b93c:	e1a03001 	mov	r3, r1
    b940:	e5c32000 	strb	r2, [r3]
	return ret;
    b944:	e51b3008 	ldr	r3, [fp, #-8]
}
    b948:	e1a00003 	mov	r0, r3
    b94c:	e28bd000 	add	sp, fp, #0
    b950:	e8bd0800 	pop	{fp}
    b954:	e12fff1e 	bx	lr
    b958:	40000904 	.word	0x40000904
    b95c:	4000091c 	.word	0x4000091c
    b960:	40000908 	.word	0x40000908
    b964:	4000091a 	.word	0x4000091a
    b968:	4000091e 	.word	0x4000091e

Disassembly of section .text.putRecvCB:

0000b96c <putRecvCB>:
 * \param      c Character to send
 *
 * \return     TRUE if successful otherwise FALSE!
 */
int32_t putRecvCB(unsigned char c)
{
    b96c:	e52db004 	push	{fp}		; (str fp, [sp, #-4]!)
    b970:	e28db000 	add	fp, sp, #0
    b974:	e24dd014 	sub	sp, sp, #20
    b978:	e1a03000 	mov	r3, r0
    b97c:	e54b300d 	strb	r3, [fp, #-13]
	int32_t ret = ECB;
    b980:	e3e03003 	mvn	r3, #3
    b984:	e50b3008 	str	r3, [fp, #-8]
	if(RecvCB_Full == FALSE){
    b988:	e59f30c0 	ldr	r3, [pc, #192]	; ba50 <putRecvCB+0xe4>
    b98c:	e5d33000 	ldrb	r3, [r3]
    b990:	e20330ff 	and	r3, r3, #255	; 0xff
    b994:	e3530000 	cmp	r3, #0
    b998:	1a000022 	bne	ba28 <putRecvCB+0xbc>
		RecvCB_Array[RecvCB_In] = c;
    b99c:	e59f30b0 	ldr	r3, [pc, #176]	; ba54 <putRecvCB+0xe8>
    b9a0:	e5d33000 	ldrb	r3, [r3]
    b9a4:	e20330ff 	and	r3, r3, #255	; 0xff
    b9a8:	e59f20a8 	ldr	r2, [pc, #168]	; ba58 <putRecvCB+0xec>
    b9ac:	e55b100d 	ldrb	r1, [fp, #-13]
    b9b0:	e7c21003 	strb	r1, [r2, r3]
		RecvCB_In = (RecvCB_In + 1) % CB_SIZE;
    b9b4:	e59f3098 	ldr	r3, [pc, #152]	; ba54 <putRecvCB+0xe8>
    b9b8:	e5d33000 	ldrb	r3, [r3]
    b9bc:	e20330ff 	and	r3, r3, #255	; 0xff
    b9c0:	e2832001 	add	r2, r3, #1
    b9c4:	e1a03fc2 	asr	r3, r2, #31
    b9c8:	e1a03e23 	lsr	r3, r3, #28
    b9cc:	e0822003 	add	r2, r2, r3
    b9d0:	e202200f 	and	r2, r2, #15
    b9d4:	e0633002 	rsb	r3, r3, r2
    b9d8:	e20330ff 	and	r3, r3, #255	; 0xff
    b9dc:	e59f1070 	ldr	r1, [pc, #112]	; ba54 <putRecvCB+0xe8>
    b9e0:	e1a02003 	mov	r2, r3
    b9e4:	e1a03001 	mov	r3, r1
    b9e8:	e5c32000 	strb	r2, [r3]
		if(RecvCB_In == RecvCB_Out){
    b9ec:	e59f3060 	ldr	r3, [pc, #96]	; ba54 <putRecvCB+0xe8>
    b9f0:	e5d33000 	ldrb	r3, [r3]
    b9f4:	e20320ff 	and	r2, r3, #255	; 0xff
    b9f8:	e59f305c 	ldr	r3, [pc, #92]	; ba5c <putRecvCB+0xf0>
    b9fc:	e5d33000 	ldrb	r3, [r3]
    ba00:	e20330ff 	and	r3, r3, #255	; 0xff
    ba04:	e1520003 	cmp	r2, r3
    ba08:	1a000004 	bne	ba20 <putRecvCB+0xb4>
			RecvCB_Full = TRUE;
    ba0c:	e59f103c 	ldr	r1, [pc, #60]	; ba50 <putRecvCB+0xe4>
    ba10:	e3a03001 	mov	r3, #1
    ba14:	e1a02003 	mov	r2, r3
    ba18:	e1a03001 	mov	r3, r1
    ba1c:	e5c32000 	strb	r2, [r3]
		}
		ret = EOK;
    ba20:	e3a03000 	mov	r3, #0
    ba24:	e50b3008 	str	r3, [fp, #-8]
	}
	RecvCB_Empty = FALSE;
    ba28:	e59f1030 	ldr	r1, [pc, #48]	; ba60 <putRecvCB+0xf4>
    ba2c:	e3a03000 	mov	r3, #0
    ba30:	e1a02003 	mov	r2, r3
    ba34:	e1a03001 	mov	r3, r1
    ba38:	e5c32000 	strb	r2, [r3]
	return ret;
    ba3c:	e51b3008 	ldr	r3, [fp, #-8]
}
    ba40:	e1a00003 	mov	r0, r3
    ba44:	e28bd000 	add	sp, fp, #0
    ba48:	e8bd0800 	pop	{fp}
    ba4c:	e12fff1e 	bx	lr
    ba50:	40000919 	.word	0x40000919
    ba54:	4000091d 	.word	0x4000091d
    ba58:	40000920 	.word	0x40000920
    ba5c:	4000091b 	.word	0x4000091b
    ba60:	40000918 	.word	0x40000918

Disassembly of section .text.getRecvCB:

0000ba64 <getRecvCB>:
 * \param      *i Pointer to character location
 *
 * \return     TRUE if successful otherwise FALSE!
 */
int32_t getRecvCB(unsigned char *i)
{
    ba64:	e52db004 	push	{fp}		; (str fp, [sp, #-4]!)
    ba68:	e28db000 	add	fp, sp, #0
    ba6c:	e24dd014 	sub	sp, sp, #20
    ba70:	e50b0010 	str	r0, [fp, #-16]
	int32_t ret = ECB;
    ba74:	e3e03003 	mvn	r3, #3
    ba78:	e50b3008 	str	r3, [fp, #-8]
	if(RecvCB_Empty == FALSE){
    ba7c:	e59f30c4 	ldr	r3, [pc, #196]	; bb48 <getRecvCB+0xe4>
    ba80:	e5d33000 	ldrb	r3, [r3]
    ba84:	e20330ff 	and	r3, r3, #255	; 0xff
    ba88:	e3530000 	cmp	r3, #0
    ba8c:	1a000023 	bne	bb20 <getRecvCB+0xbc>
		*i = RecvCB_Array[RecvCB_Out];
    ba90:	e59f30b4 	ldr	r3, [pc, #180]	; bb4c <getRecvCB+0xe8>
    ba94:	e5d33000 	ldrb	r3, [r3]
    ba98:	e20330ff 	and	r3, r3, #255	; 0xff
    ba9c:	e59f20ac 	ldr	r2, [pc, #172]	; bb50 <getRecvCB+0xec>
    baa0:	e7d22003 	ldrb	r2, [r2, r3]
    baa4:	e51b3010 	ldr	r3, [fp, #-16]
    baa8:	e5c32000 	strb	r2, [r3]
		RecvCB_Out = (RecvCB_Out + 1) % CB_SIZE;
    baac:	e59f3098 	ldr	r3, [pc, #152]	; bb4c <getRecvCB+0xe8>
    bab0:	e5d33000 	ldrb	r3, [r3]
    bab4:	e20330ff 	and	r3, r3, #255	; 0xff
    bab8:	e2832001 	add	r2, r3, #1
    babc:	e1a03fc2 	asr	r3, r2, #31
    bac0:	e1a03e23 	lsr	r3, r3, #28
    bac4:	e0822003 	add	r2, r2, r3
    bac8:	e202200f 	and	r2, r2, #15
    bacc:	e0633002 	rsb	r3, r3, r2
    bad0:	e20330ff 	and	r3, r3, #255	; 0xff
    bad4:	e59f1070 	ldr	r1, [pc, #112]	; bb4c <getRecvCB+0xe8>
    bad8:	e1a02003 	mov	r2, r3
    badc:	e1a03001 	mov	r3, r1
    bae0:	e5c32000 	strb	r2, [r3]
		if(RecvCB_In == RecvCB_Out){
    bae4:	e59f3068 	ldr	r3, [pc, #104]	; bb54 <getRecvCB+0xf0>
    bae8:	e5d33000 	ldrb	r3, [r3]
    baec:	e20320ff 	and	r2, r3, #255	; 0xff
    baf0:	e59f3054 	ldr	r3, [pc, #84]	; bb4c <getRecvCB+0xe8>
    baf4:	e5d33000 	ldrb	r3, [r3]
    baf8:	e20330ff 	and	r3, r3, #255	; 0xff
    bafc:	e1520003 	cmp	r2, r3
    bb00:	1a000004 	bne	bb18 <getRecvCB+0xb4>
			RecvCB_Empty = TRUE;
    bb04:	e59f103c 	ldr	r1, [pc, #60]	; bb48 <getRecvCB+0xe4>
    bb08:	e3a03001 	mov	r3, #1
    bb0c:	e1a02003 	mov	r2, r3
    bb10:	e1a03001 	mov	r3, r1
    bb14:	e5c32000 	strb	r2, [r3]
		}
		ret = EOK;
    bb18:	e3a03000 	mov	r3, #0
    bb1c:	e50b3008 	str	r3, [fp, #-8]
	}
	RecvCB_Full = FALSE;
    bb20:	e59f1030 	ldr	r1, [pc, #48]	; bb58 <getRecvCB+0xf4>
    bb24:	e3a03000 	mov	r3, #0
    bb28:	e1a02003 	mov	r2, r3
    bb2c:	e1a03001 	mov	r3, r1
    bb30:	e5c32000 	strb	r2, [r3]
	return ret;
    bb34:	e51b3008 	ldr	r3, [fp, #-8]
}
    bb38:	e1a00003 	mov	r0, r3
    bb3c:	e28bd000 	add	sp, fp, #0
    bb40:	e8bd0800 	pop	{fp}
    bb44:	e12fff1e 	bx	lr
    bb48:	40000918 	.word	0x40000918
    bb4c:	4000091b 	.word	0x4000091b
    bb50:	40000920 	.word	0x40000920
    bb54:	4000091d 	.word	0x4000091d
    bb58:	40000919 	.word	0x40000919

Disassembly of section .text.SystemInit:

0000bb5c <SystemInit>:
#include "init.h"

/** Do not step through this function. Run through the whole function at once when debugging. **/

int SystemInit(void)
{
    bb5c:	e52db004 	push	{fp}		; (str fp, [sp, #-4]!)
    bb60:	e28db000 	add	fp, sp, #0
    bb64:	e24dd00c 	sub	sp, sp, #12
	unsigned int MValue, NValue;

	MValue = 0;
    bb68:	e3a03000 	mov	r3, #0
    bb6c:	e50b3008 	str	r3, [fp, #-8]
	NValue = 0;
    bb70:	e3a03000 	mov	r3, #0
    bb74:	e50b300c 	str	r3, [fp, #-12]

	PINSEL0 |= 0x00000000;
    bb78:	e59f1220 	ldr	r1, [pc, #544]	; bda0 <SystemInit+0x244>
    bb7c:	e59f321c 	ldr	r3, [pc, #540]	; bda0 <SystemInit+0x244>
    bb80:	e5932000 	ldr	r2, [r3]
    bb84:	e1a03001 	mov	r3, r1
    bb88:	e5832000 	str	r2, [r3]
	PINSEL1 |= 0x00000000;
    bb8c:	e59f1210 	ldr	r1, [pc, #528]	; bda4 <SystemInit+0x248>
    bb90:	e59f320c 	ldr	r3, [pc, #524]	; bda4 <SystemInit+0x248>
    bb94:	e5932000 	ldr	r2, [r3]
    bb98:	e1a03001 	mov	r3, r1
    bb9c:	e5832000 	str	r2, [r3]

	MEMMAP = 1;
    bba0:	e59f3200 	ldr	r3, [pc, #512]	; bda8 <SystemInit+0x24c>
    bba4:	e3a02001 	mov	r2, #1
    bba8:	e5832000 	str	r2, [r3]

	PCONP |= 0x80000000;
    bbac:	e59f11f8 	ldr	r1, [pc, #504]	; bdac <SystemInit+0x250>
    bbb0:	e59f31f4 	ldr	r3, [pc, #500]	; bdac <SystemInit+0x250>
    bbb4:	e5933000 	ldr	r3, [r3]
    bbb8:	e3832102 	orr	r2, r3, #-2147483648	; 0x80000000
    bbbc:	e1a03001 	mov	r3, r1
    bbc0:	e5832000 	str	r2, [r3]

	if(PLLSTAT & (1<<25))
    bbc4:	e59f31e4 	ldr	r3, [pc, #484]	; bdb0 <SystemInit+0x254>
    bbc8:	e5933000 	ldr	r3, [r3]
    bbcc:	e2033402 	and	r3, r3, #33554432	; 0x2000000
    bbd0:	e3530000 	cmp	r3, #0
    bbd4:	0a000008 	beq	bbfc <SystemInit+0xa0>
	{
		PLLCON = 1;
    bbd8:	e59f31d4 	ldr	r3, [pc, #468]	; bdb4 <SystemInit+0x258>
    bbdc:	e3a02001 	mov	r2, #1
    bbe0:	e5832000 	str	r2, [r3]
		PLLFEED = 0xAA;
    bbe4:	e59f31cc 	ldr	r3, [pc, #460]	; bdb8 <SystemInit+0x25c>
    bbe8:	e3a020aa 	mov	r2, #170	; 0xaa
    bbec:	e5832000 	str	r2, [r3]
		PLLFEED = 0x55;
    bbf0:	e59f31c0 	ldr	r3, [pc, #448]	; bdb8 <SystemInit+0x25c>
    bbf4:	e3a02055 	mov	r2, #85	; 0x55
    bbf8:	e5832000 	str	r2, [r3]
	}

	PLLCON = 0;						/* Disable PLL, disconnected */
    bbfc:	e59f31b0 	ldr	r3, [pc, #432]	; bdb4 <SystemInit+0x258>
    bc00:	e3a02000 	mov	r2, #0
    bc04:	e5832000 	str	r2, [r3]
	PLLFEED = 0xaa;
    bc08:	e59f31a8 	ldr	r3, [pc, #424]	; bdb8 <SystemInit+0x25c>
    bc0c:	e3a020aa 	mov	r2, #170	; 0xaa
    bc10:	e5832000 	str	r2, [r3]
	PLLFEED = 0x55;
    bc14:	e59f319c 	ldr	r3, [pc, #412]	; bdb8 <SystemInit+0x25c>
    bc18:	e3a02055 	mov	r2, #85	; 0x55
    bc1c:	e5832000 	str	r2, [r3]

	SCS |= 0x20;					/* enable main oscialltor */
    bc20:	e59f1194 	ldr	r1, [pc, #404]	; bdbc <SystemInit+0x260>
    bc24:	e59f3190 	ldr	r3, [pc, #400]	; bdbc <SystemInit+0x260>
    bc28:	e5933000 	ldr	r3, [r3]
    bc2c:	e3832020 	orr	r2, r3, #32
    bc30:	e1a03001 	mov	r3, r1
    bc34:	e5832000 	str	r2, [r3]
	while(!(SCS & 0x40));			/* wait until ready */
    bc38:	e1a00000 	nop			; (mov r0, r0)
    bc3c:	e59f3178 	ldr	r3, [pc, #376]	; bdbc <SystemInit+0x260>
    bc40:	e5933000 	ldr	r3, [r3]
    bc44:	e2033040 	and	r3, r3, #64	; 0x40
    bc48:	e3530000 	cmp	r3, #0
    bc4c:	0afffffa 	beq	bc3c <SystemInit+0xe0>

	CLKSRCSEL = 0x1;				/* use main oscillator */
    bc50:	e59f3168 	ldr	r3, [pc, #360]	; bdc0 <SystemInit+0x264>
    bc54:	e3a02001 	mov	r2, #1
    bc58:	e5832000 	str	r2, [r3]

	PLLCFG = 15 | (0 << 16);
    bc5c:	e59f3160 	ldr	r3, [pc, #352]	; bdc4 <SystemInit+0x268>
    bc60:	e3a0200f 	mov	r2, #15
    bc64:	e5832000 	str	r2, [r3]
	PLLFEED = 0xAA;
    bc68:	e59f3148 	ldr	r3, [pc, #328]	; bdb8 <SystemInit+0x25c>
    bc6c:	e3a020aa 	mov	r2, #170	; 0xaa
    bc70:	e5832000 	str	r2, [r3]
	PLLFEED = 0x55;
    bc74:	e59f313c 	ldr	r3, [pc, #316]	; bdb8 <SystemInit+0x25c>
    bc78:	e3a02055 	mov	r2, #85	; 0x55
    bc7c:	e5832000 	str	r2, [r3]

	PLLCON = 1;
    bc80:	e59f312c 	ldr	r3, [pc, #300]	; bdb4 <SystemInit+0x258>
    bc84:	e3a02001 	mov	r2, #1
    bc88:	e5832000 	str	r2, [r3]
	PLLFEED = 0xAA;
    bc8c:	e59f3124 	ldr	r3, [pc, #292]	; bdb8 <SystemInit+0x25c>
    bc90:	e3a020aa 	mov	r2, #170	; 0xaa
    bc94:	e5832000 	str	r2, [r3]
	PLLFEED = 0x55;
    bc98:	e59f3118 	ldr	r3, [pc, #280]	; bdb8 <SystemInit+0x25c>
    bc9c:	e3a02055 	mov	r2, #85	; 0x55
    bca0:	e5832000 	str	r2, [r3]

	CCLKCFG = 3;
    bca4:	e59f311c 	ldr	r3, [pc, #284]	; bdc8 <SystemInit+0x26c>
    bca8:	e3a02003 	mov	r2, #3
    bcac:	e5832000 	str	r2, [r3]
	USBCLKCFG = 3;
    bcb0:	e59f3114 	ldr	r3, [pc, #276]	; bdcc <SystemInit+0x270>
    bcb4:	e3a02003 	mov	r2, #3
    bcb8:	e5832000 	str	r2, [r3]

	while(((PLLSTAT & (1 << 26)) == 0));
    bcbc:	e1a00000 	nop			; (mov r0, r0)
    bcc0:	e59f30e8 	ldr	r3, [pc, #232]	; bdb0 <SystemInit+0x254>
    bcc4:	e5933000 	ldr	r3, [r3]
    bcc8:	e2033301 	and	r3, r3, #67108864	; 0x4000000
    bccc:	e3530000 	cmp	r3, #0
    bcd0:	0afffffa 	beq	bcc0 <SystemInit+0x164>

	MValue = PLLSTAT & 0x00007FFF;
    bcd4:	e59f30d4 	ldr	r3, [pc, #212]	; bdb0 <SystemInit+0x254>
    bcd8:	e5933000 	ldr	r3, [r3]
    bcdc:	e1a03883 	lsl	r3, r3, #17
    bce0:	e1a038a3 	lsr	r3, r3, #17
    bce4:	e50b3008 	str	r3, [fp, #-8]
	NValue = (PLLSTAT & 0x00FF0000) >> 16;
    bce8:	e59f30c0 	ldr	r3, [pc, #192]	; bdb0 <SystemInit+0x254>
    bcec:	e5933000 	ldr	r3, [r3]
    bcf0:	e20338ff 	and	r3, r3, #16711680	; 0xff0000
    bcf4:	e1a03823 	lsr	r3, r3, #16
    bcf8:	e50b300c 	str	r3, [fp, #-12]

	while((MValue != 15) && (NValue != 0));
    bcfc:	e51b3008 	ldr	r3, [fp, #-8]
    bd00:	e353000f 	cmp	r3, #15
    bd04:	0a000002 	beq	bd14 <SystemInit+0x1b8>
    bd08:	e51b300c 	ldr	r3, [fp, #-12]
    bd0c:	e3530000 	cmp	r3, #0
    bd10:	1afffff9 	bne	bcfc <SystemInit+0x1a0>

	PLLCON = 3;
    bd14:	e59f3098 	ldr	r3, [pc, #152]	; bdb4 <SystemInit+0x258>
    bd18:	e3a02003 	mov	r2, #3
    bd1c:	e5832000 	str	r2, [r3]
	PLLFEED = 0xAA;
    bd20:	e59f3090 	ldr	r3, [pc, #144]	; bdb8 <SystemInit+0x25c>
    bd24:	e3a020aa 	mov	r2, #170	; 0xaa
    bd28:	e5832000 	str	r2, [r3]
	PLLFEED = 0x55;
    bd2c:	e59f3084 	ldr	r3, [pc, #132]	; bdb8 <SystemInit+0x25c>
    bd30:	e3a02055 	mov	r2, #85	; 0x55
    bd34:	e5832000 	str	r2, [r3]

	while(((PLLSTAT & (1 << 25)) == 0));
    bd38:	e1a00000 	nop			; (mov r0, r0)
    bd3c:	e59f306c 	ldr	r3, [pc, #108]	; bdb0 <SystemInit+0x254>
    bd40:	e5933000 	ldr	r3, [r3]
    bd44:	e2033402 	and	r3, r3, #33554432	; 0x2000000
    bd48:	e3530000 	cmp	r3, #0
    bd4c:	0afffffa 	beq	bd3c <SystemInit+0x1e0>

	PCLKSEL0 = 0xAAAAAAAA;
    bd50:	e59f3078 	ldr	r3, [pc, #120]	; bdd0 <SystemInit+0x274>
    bd54:	e59f2078 	ldr	r2, [pc, #120]	; bdd4 <SystemInit+0x278>
    bd58:	e5832000 	str	r2, [r3]
	PCLKSEL1 = 0xAAAAAAAA;
    bd5c:	e59f3074 	ldr	r3, [pc, #116]	; bdd8 <SystemInit+0x27c>
    bd60:	e59f206c 	ldr	r2, [pc, #108]	; bdd4 <SystemInit+0x278>
    bd64:	e5832000 	str	r2, [r3]


	MAMCR = 0;
    bd68:	e59f306c 	ldr	r3, [pc, #108]	; bddc <SystemInit+0x280>
    bd6c:	e3a02000 	mov	r2, #0
    bd70:	e5832000 	str	r2, [r3]

	MAMTIM = 4;					/* wait 4 clock cycles */
    bd74:	e59f3064 	ldr	r3, [pc, #100]	; bde0 <SystemInit+0x284>
    bd78:	e3a02004 	mov	r2, #4
    bd7c:	e5832000 	str	r2, [r3]

	MAMCR = 2;					/* fully enabled */
    bd80:	e59f3054 	ldr	r3, [pc, #84]	; bddc <SystemInit+0x280>
    bd84:	e3a02002 	mov	r2, #2
    bd88:	e5832000 	str	r2, [r3]

	return (0);
    bd8c:	e3a03000 	mov	r3, #0
}
    bd90:	e1a00003 	mov	r0, r3
    bd94:	e28bd000 	add	sp, fp, #0
    bd98:	e8bd0800 	pop	{fp}
    bd9c:	e12fff1e 	bx	lr
    bda0:	e002c000 	.word	0xe002c000
    bda4:	e002c004 	.word	0xe002c004
    bda8:	e01fc040 	.word	0xe01fc040
    bdac:	e01fc0c4 	.word	0xe01fc0c4
    bdb0:	e01fc088 	.word	0xe01fc088
    bdb4:	e01fc080 	.word	0xe01fc080
    bdb8:	e01fc08c 	.word	0xe01fc08c
    bdbc:	e01fc1a0 	.word	0xe01fc1a0
    bdc0:	e01fc10c 	.word	0xe01fc10c
    bdc4:	e01fc084 	.word	0xe01fc084
    bdc8:	e01fc104 	.word	0xe01fc104
    bdcc:	e01fc108 	.word	0xe01fc108
    bdd0:	e01fc1a8 	.word	0xe01fc1a8
    bdd4:	aaaaaaaa 	.word	0xaaaaaaaa
    bdd8:	e01fc1ac 	.word	0xe01fc1ac
    bddc:	e01fc000 	.word	0xe01fc000
    bde0:	e01fc004 	.word	0xe01fc004

Disassembly of section .text.ISRDummyHandler:

0000bde4 <ISRDummyHandler>:
 */

#include "lpc246x.h"
#include "irq.h"

void ISRDummyHandler(void){
    bde4:	e92d080c 	push	{r2, r3, fp}
    bde8:	e28db008 	add	fp, sp, #8

	/*** Do Interrupt handling here ***/

	VICVectAddr = 0;       /* Acknowledge Interrupt */
    bdec:	e3e030ff 	mvn	r3, #255	; 0xff
    bdf0:	e3a02000 	mov	r2, #0
    bdf4:	e5832000 	str	r2, [r3]
}
    bdf8:	e24bd008 	sub	sp, fp, #8
    bdfc:	e8bd080c 	pop	{r2, r3, fp}
    be00:	e25ef004 	subs	pc, lr, #4

Disassembly of section .text.init_VIC:

0000be04 <init_VIC>:


/*** initialize the interrupt controller ***/
void init_VIC(void)
{
    be04:	e52db004 	push	{fp}		; (str fp, [sp, #-4]!)
    be08:	e28db000 	add	fp, sp, #0
    be0c:	e24dd014 	sub	sp, sp, #20
    unsigned int i = 0;
    be10:	e3a03000 	mov	r3, #0
    be14:	e50b3008 	str	r3, [fp, #-8]
    unsigned int *vect_addr, *vect_cntl;

    /* initialize VIC */
    VICIntEnClr = 0xffffffff;
    be18:	e59f308c 	ldr	r3, [pc, #140]	; beac <init_VIC+0xa8>
    be1c:	e3e02000 	mvn	r2, #0
    be20:	e5832000 	str	r2, [r3]
    VICVectAddr = 0;
    be24:	e3e030ff 	mvn	r3, #255	; 0xff
    be28:	e3a02000 	mov	r2, #0
    be2c:	e5832000 	str	r2, [r3]
    VICIntSelect = 0;
    be30:	e59f3078 	ldr	r3, [pc, #120]	; beb0 <init_VIC+0xac>
    be34:	e3a02000 	mov	r2, #0
    be38:	e5832000 	str	r2, [r3]

    /* set all the vector and vector control register to 0 */
    for ( i = 0; i < VIC_SIZE; i++ )
    be3c:	e3a03000 	mov	r3, #0
    be40:	e50b3008 	str	r3, [fp, #-8]
    be44:	ea000012 	b	be94 <init_VIC+0x90>
    {
		vect_addr = (unsigned int *)(VIC_BASE_ADDR + VECT_ADDR_INDEX + i*4);
    be48:	e51b3008 	ldr	r3, [fp, #-8]
    be4c:	e2833101 	add	r3, r3, #1073741824	; 0x40000000
    be50:	e2433d0f 	sub	r3, r3, #960	; 0x3c0
    be54:	e1a03103 	lsl	r3, r3, #2
    be58:	e50b300c 	str	r3, [fp, #-12]
		vect_cntl = (unsigned int *)(VIC_BASE_ADDR + VECT_CNTL_INDEX + i*4);
    be5c:	e51b3008 	ldr	r3, [fp, #-8]
    be60:	e2833101 	add	r3, r3, #1073741824	; 0x40000000
    be64:	e2433d0e 	sub	r3, r3, #896	; 0x380
    be68:	e1a03103 	lsl	r3, r3, #2
    be6c:	e50b3010 	str	r3, [fp, #-16]
		*vect_addr = 0x0;
    be70:	e51b300c 	ldr	r3, [fp, #-12]
    be74:	e3a02000 	mov	r2, #0
    be78:	e5832000 	str	r2, [r3]
		*vect_cntl = 0xF;
    be7c:	e51b3010 	ldr	r3, [fp, #-16]
    be80:	e3a0200f 	mov	r2, #15
    be84:	e5832000 	str	r2, [r3]
    VICIntEnClr = 0xffffffff;
    VICVectAddr = 0;
    VICIntSelect = 0;

    /* set all the vector and vector control register to 0 */
    for ( i = 0; i < VIC_SIZE; i++ )
    be88:	e51b3008 	ldr	r3, [fp, #-8]
    be8c:	e2833001 	add	r3, r3, #1
    be90:	e50b3008 	str	r3, [fp, #-8]
    be94:	e51b3008 	ldr	r3, [fp, #-8]
    be98:	e353001f 	cmp	r3, #31
    be9c:	9affffe9 	bls	be48 <init_VIC+0x44>
		vect_cntl = (unsigned int *)(VIC_BASE_ADDR + VECT_CNTL_INDEX + i*4);
		*vect_addr = 0x0;
		*vect_cntl = 0xF;
    }
    return;
}
    bea0:	e28bd000 	add	sp, fp, #0
    bea4:	e8bd0800 	pop	{fp}
    bea8:	e12fff1e 	bx	lr
    beac:	fffff014 	.word	0xfffff014
    beb0:	fffff00c 	.word	0xfffff00c

Disassembly of section .text.install_irq:

0000beb4 <install_irq>:

/*** routine to install the interupt ***/
unsigned int install_irq (unsigned int irq_nr, void (*HandlerAddr)(void), unsigned int priority)
{
    beb4:	e52db004 	push	{fp}		; (str fp, [sp, #-4]!)
    beb8:	e28db000 	add	fp, sp, #0
    bebc:	e24dd01c 	sub	sp, sp, #28
    bec0:	e50b0010 	str	r0, [fp, #-16]
    bec4:	e50b1014 	str	r1, [fp, #-20]	; 0xffffffec
    bec8:	e50b2018 	str	r2, [fp, #-24]	; 0xffffffe8
		unsigned int *vect_addr;
		unsigned int *vect_cntl;

    VICIntEnClr = 1 << irq_nr;	/* Disable Interrupt */
    becc:	e59f1098 	ldr	r1, [pc, #152]	; bf6c <install_irq+0xb8>
    bed0:	e51b3010 	ldr	r3, [fp, #-16]
    bed4:	e3a02001 	mov	r2, #1
    bed8:	e1a03312 	lsl	r3, r2, r3
    bedc:	e1a02003 	mov	r2, r3
    bee0:	e1a03001 	mov	r3, r1
    bee4:	e5832000 	str	r2, [r3]
    if ( irq_nr >= VIC_SIZE )
    bee8:	e51b3010 	ldr	r3, [fp, #-16]
    beec:	e353001f 	cmp	r3, #31
    bef0:	9a000001 	bls	befc <install_irq+0x48>
    {
		return ( FALSE );
    bef4:	e3a03000 	mov	r3, #0
    bef8:	ea000017 	b	bf5c <install_irq+0xa8>
    }
    else
    {
		/* find first un-assigned VIC address for the handler */
		vect_addr = (unsigned int *)(VIC_BASE_ADDR + VECT_ADDR_INDEX + irq_nr*4);
    befc:	e51b3010 	ldr	r3, [fp, #-16]
    bf00:	e2833101 	add	r3, r3, #1073741824	; 0x40000000
    bf04:	e2433d0f 	sub	r3, r3, #960	; 0x3c0
    bf08:	e1a03103 	lsl	r3, r3, #2
    bf0c:	e50b3008 	str	r3, [fp, #-8]
		vect_cntl = (unsigned int *)(VIC_BASE_ADDR + VECT_CNTL_INDEX + irq_nr*4);
    bf10:	e51b3010 	ldr	r3, [fp, #-16]
    bf14:	e2833101 	add	r3, r3, #1073741824	; 0x40000000
    bf18:	e2433d0e 	sub	r3, r3, #896	; 0x380
    bf1c:	e1a03103 	lsl	r3, r3, #2
    bf20:	e50b300c 	str	r3, [fp, #-12]
		*vect_addr = (unsigned int)HandlerAddr;	/* set interrupt vector */
    bf24:	e51b2014 	ldr	r2, [fp, #-20]	; 0xffffffec
    bf28:	e51b3008 	ldr	r3, [fp, #-8]
    bf2c:	e5832000 	str	r2, [r3]
		*vect_cntl = priority;
    bf30:	e51b300c 	ldr	r3, [fp, #-12]
    bf34:	e51b2018 	ldr	r2, [fp, #-24]	; 0xffffffe8
    bf38:	e5832000 	str	r2, [r3]
		VICIntEnable = 1 << irq_nr;	/* Enable Interrupt */
    bf3c:	e59f102c 	ldr	r1, [pc, #44]	; bf70 <install_irq+0xbc>
    bf40:	e51b3010 	ldr	r3, [fp, #-16]
    bf44:	e3a02001 	mov	r2, #1
    bf48:	e1a03312 	lsl	r3, r2, r3
    bf4c:	e1a02003 	mov	r2, r3
    bf50:	e1a03001 	mov	r3, r1
    bf54:	e5832000 	str	r2, [r3]
		return( TRUE );
    bf58:	e3a03001 	mov	r3, #1
    }
}
    bf5c:	e1a00003 	mov	r0, r3
    bf60:	e28bd000 	add	sp, fp, #0
    bf64:	e8bd0800 	pop	{fp}
    bf68:	e12fff1e 	bx	lr
    bf6c:	fffff014 	.word	0xfffff014
    bf70:	fffff010 	.word	0xfffff010

Disassembly of section .text._close:

0000bf74 <_close>:

char *__env[1] = { 0 };
char **environ = __env;

int _close(int file)
{
    bf74:	e52db004 	push	{fp}		; (str fp, [sp, #-4]!)
    bf78:	e28db000 	add	fp, sp, #0
    bf7c:	e24dd00c 	sub	sp, sp, #12
    bf80:	e50b0008 	str	r0, [fp, #-8]
  return -1;
    bf84:	e3e03000 	mvn	r3, #0
}
    bf88:	e1a00003 	mov	r0, r3
    bf8c:	e28bd000 	add	sp, fp, #0
    bf90:	e8bd0800 	pop	{fp}
    bf94:	e12fff1e 	bx	lr

Disassembly of section .text._execve:

0000bf98 <_execve>:

int _execve(char *name, char **argv, char **env)
{
    bf98:	e52db004 	push	{fp}		; (str fp, [sp, #-4]!)
    bf9c:	e28db000 	add	fp, sp, #0
    bfa0:	e24dd014 	sub	sp, sp, #20
    bfa4:	e50b0008 	str	r0, [fp, #-8]
    bfa8:	e50b100c 	str	r1, [fp, #-12]
    bfac:	e50b2010 	str	r2, [fp, #-16]
  errno = ENOMEM;
    bfb0:	e59f3018 	ldr	r3, [pc, #24]	; bfd0 <_execve+0x38>
    bfb4:	e3a0200c 	mov	r2, #12
    bfb8:	e5832000 	str	r2, [r3]
  return -1;
    bfbc:	e3e03000 	mvn	r3, #0
}
    bfc0:	e1a00003 	mov	r0, r3
    bfc4:	e28bd000 	add	sp, fp, #0
    bfc8:	e8bd0800 	pop	{fp}
    bfcc:	e12fff1e 	bx	lr
    bfd0:	40000930 	.word	0x40000930

Disassembly of section .text._exit:

0000bfd4 <_exit>:
int _exit()
{
    bfd4:	e52db004 	push	{fp}		; (str fp, [sp, #-4]!)
    bfd8:	e28db000 	add	fp, sp, #0
  return 0;
    bfdc:	e3a03000 	mov	r3, #0
}
    bfe0:	e1a00003 	mov	r0, r3
    bfe4:	e28bd000 	add	sp, fp, #0
    bfe8:	e8bd0800 	pop	{fp}
    bfec:	e12fff1e 	bx	lr

Disassembly of section .text._fork:

0000bff0 <_fork>:

int _fork()
{
    bff0:	e52db004 	push	{fp}		; (str fp, [sp, #-4]!)
    bff4:	e28db000 	add	fp, sp, #0
  errno = EAGAIN;
    bff8:	e59f3018 	ldr	r3, [pc, #24]	; c018 <_fork+0x28>
    bffc:	e3a0200b 	mov	r2, #11
    c000:	e5832000 	str	r2, [r3]
  return -1;
    c004:	e3e03000 	mvn	r3, #0
}
    c008:	e1a00003 	mov	r0, r3
    c00c:	e28bd000 	add	sp, fp, #0
    c010:	e8bd0800 	pop	{fp}
    c014:	e12fff1e 	bx	lr
    c018:	40000930 	.word	0x40000930

Disassembly of section .text._fstat:

0000c01c <_fstat>:

int _fstat(int file, struct stat *st)
{
    c01c:	e52db004 	push	{fp}		; (str fp, [sp, #-4]!)
    c020:	e28db000 	add	fp, sp, #0
    c024:	e24dd00c 	sub	sp, sp, #12
    c028:	e50b0008 	str	r0, [fp, #-8]
    c02c:	e50b100c 	str	r1, [fp, #-12]
  st->st_mode = S_IFCHR;
    c030:	e51b300c 	ldr	r3, [fp, #-12]
    c034:	e3a02a02 	mov	r2, #8192	; 0x2000
    c038:	e5832004 	str	r2, [r3, #4]
  return 0;
    c03c:	e3a03000 	mov	r3, #0
}
    c040:	e1a00003 	mov	r0, r3
    c044:	e28bd000 	add	sp, fp, #0
    c048:	e8bd0800 	pop	{fp}
    c04c:	e12fff1e 	bx	lr

Disassembly of section .text._getpid:

0000c050 <_getpid>:

int _getpid()
{
    c050:	e52db004 	push	{fp}		; (str fp, [sp, #-4]!)
    c054:	e28db000 	add	fp, sp, #0
  return 1;
    c058:	e3a03001 	mov	r3, #1
}
    c05c:	e1a00003 	mov	r0, r3
    c060:	e28bd000 	add	sp, fp, #0
    c064:	e8bd0800 	pop	{fp}
    c068:	e12fff1e 	bx	lr

Disassembly of section .text._kill:

0000c06c <_kill>:

int _kill(int pid, int sig)
{
    c06c:	e52db004 	push	{fp}		; (str fp, [sp, #-4]!)
    c070:	e28db000 	add	fp, sp, #0
    c074:	e24dd00c 	sub	sp, sp, #12
    c078:	e50b0008 	str	r0, [fp, #-8]
    c07c:	e50b100c 	str	r1, [fp, #-12]
  errno = EINVAL;
    c080:	e59f3018 	ldr	r3, [pc, #24]	; c0a0 <_kill+0x34>
    c084:	e3a02016 	mov	r2, #22
    c088:	e5832000 	str	r2, [r3]
  return(-1);
    c08c:	e3e03000 	mvn	r3, #0
}
    c090:	e1a00003 	mov	r0, r3
    c094:	e28bd000 	add	sp, fp, #0
    c098:	e8bd0800 	pop	{fp}
    c09c:	e12fff1e 	bx	lr
    c0a0:	40000930 	.word	0x40000930

Disassembly of section .text.isatty:

0000c0a4 <isatty>:

int isatty(int fildes)
{
    c0a4:	e52db004 	push	{fp}		; (str fp, [sp, #-4]!)
    c0a8:	e28db000 	add	fp, sp, #0
    c0ac:	e24dd00c 	sub	sp, sp, #12
    c0b0:	e50b0008 	str	r0, [fp, #-8]
  return 1;
    c0b4:	e3a03001 	mov	r3, #1
}
    c0b8:	e1a00003 	mov	r0, r3
    c0bc:	e28bd000 	add	sp, fp, #0
    c0c0:	e8bd0800 	pop	{fp}
    c0c4:	e12fff1e 	bx	lr

Disassembly of section .text._isatty:

0000c0c8 <_isatty>:
int _isatty(int fildes)
{
    c0c8:	e52db004 	push	{fp}		; (str fp, [sp, #-4]!)
    c0cc:	e28db000 	add	fp, sp, #0
    c0d0:	e24dd00c 	sub	sp, sp, #12
    c0d4:	e50b0008 	str	r0, [fp, #-8]
  return 1;
    c0d8:	e3a03001 	mov	r3, #1
}
    c0dc:	e1a00003 	mov	r0, r3
    c0e0:	e28bd000 	add	sp, fp, #0
    c0e4:	e8bd0800 	pop	{fp}
    c0e8:	e12fff1e 	bx	lr

Disassembly of section .text._link:

0000c0ec <_link>:

int _link(char *old, char *new)
{
    c0ec:	e52db004 	push	{fp}		; (str fp, [sp, #-4]!)
    c0f0:	e28db000 	add	fp, sp, #0
    c0f4:	e24dd00c 	sub	sp, sp, #12
    c0f8:	e50b0008 	str	r0, [fp, #-8]
    c0fc:	e50b100c 	str	r1, [fp, #-12]
  errno = EMLINK;
    c100:	e59f3018 	ldr	r3, [pc, #24]	; c120 <_link+0x34>
    c104:	e3a0201f 	mov	r2, #31
    c108:	e5832000 	str	r2, [r3]
  return -1;
    c10c:	e3e03000 	mvn	r3, #0
}
    c110:	e1a00003 	mov	r0, r3
    c114:	e28bd000 	add	sp, fp, #0
    c118:	e8bd0800 	pop	{fp}
    c11c:	e12fff1e 	bx	lr
    c120:	40000930 	.word	0x40000930

Disassembly of section .text._lseek:

0000c124 <_lseek>:

int _lseek(int file, int ptr, int dir)
{
    c124:	e52db004 	push	{fp}		; (str fp, [sp, #-4]!)
    c128:	e28db000 	add	fp, sp, #0
    c12c:	e24dd014 	sub	sp, sp, #20
    c130:	e50b0008 	str	r0, [fp, #-8]
    c134:	e50b100c 	str	r1, [fp, #-12]
    c138:	e50b2010 	str	r2, [fp, #-16]
  return 0;
    c13c:	e3a03000 	mov	r3, #0
}
    c140:	e1a00003 	mov	r0, r3
    c144:	e28bd000 	add	sp, fp, #0
    c148:	e8bd0800 	pop	{fp}
    c14c:	e12fff1e 	bx	lr

Disassembly of section .text._open:

0000c150 <_open>:

int _open(const char *name, int flags, int mode)
{
    c150:	e52db004 	push	{fp}		; (str fp, [sp, #-4]!)
    c154:	e28db000 	add	fp, sp, #0
    c158:	e24dd014 	sub	sp, sp, #20
    c15c:	e50b0008 	str	r0, [fp, #-8]
    c160:	e50b100c 	str	r1, [fp, #-12]
    c164:	e50b2010 	str	r2, [fp, #-16]
  return -1;
    c168:	e3e03000 	mvn	r3, #0
}
    c16c:	e1a00003 	mov	r0, r3
    c170:	e28bd000 	add	sp, fp, #0
    c174:	e8bd0800 	pop	{fp}
    c178:	e12fff1e 	bx	lr

Disassembly of section .text._read:

0000c17c <_read>:

int _read(int file, char *ptr, int len)
{
    c17c:	e52db004 	push	{fp}		; (str fp, [sp, #-4]!)
    c180:	e28db000 	add	fp, sp, #0
    c184:	e24dd014 	sub	sp, sp, #20
    c188:	e50b0008 	str	r0, [fp, #-8]
    c18c:	e50b100c 	str	r1, [fp, #-12]
    c190:	e50b2010 	str	r2, [fp, #-16]
  return 0;
    c194:	e3a03000 	mov	r3, #0
}
    c198:	e1a00003 	mov	r0, r3
    c19c:	e28bd000 	add	sp, fp, #0
    c1a0:	e8bd0800 	pop	{fp}
    c1a4:	e12fff1e 	bx	lr

Disassembly of section .text._sbrk:

0000c1a8 <_sbrk>:

caddr_t _sbrk(int incr)
{
    c1a8:	e52db004 	push	{fp}		; (str fp, [sp, #-4]!)
    c1ac:	e28db000 	add	fp, sp, #0
    c1b0:	e24dd014 	sub	sp, sp, #20
    c1b4:	e50b0010 	str	r0, [fp, #-16]
  extern char end;		/* Defined by the linker */
  static char *heap_end;
  char *prev_heap_end;

  if (heap_end == 0)
    c1b8:	e59f3060 	ldr	r3, [pc, #96]	; c220 <_sbrk+0x78>
    c1bc:	e5933000 	ldr	r3, [r3]
    c1c0:	e3530000 	cmp	r3, #0
    c1c4:	1a000007 	bne	c1e8 <_sbrk+0x40>
  {
    heap_end = &end;
    c1c8:	e59f3050 	ldr	r3, [pc, #80]	; c220 <_sbrk+0x78>
    c1cc:	e59f2050 	ldr	r2, [pc, #80]	; c224 <_sbrk+0x7c>
    c1d0:	e5832000 	str	r2, [r3]
    /* give 16KB area for stacks and use the rest of memory for heap*/
    heap_end += 0x4000;
    c1d4:	e59f3044 	ldr	r3, [pc, #68]	; c220 <_sbrk+0x78>
    c1d8:	e5933000 	ldr	r3, [r3]
    c1dc:	e2832901 	add	r2, r3, #16384	; 0x4000
    c1e0:	e59f3038 	ldr	r3, [pc, #56]	; c220 <_sbrk+0x78>
    c1e4:	e5832000 	str	r2, [r3]
  }
  prev_heap_end = heap_end;
    c1e8:	e59f3030 	ldr	r3, [pc, #48]	; c220 <_sbrk+0x78>
    c1ec:	e5933000 	ldr	r3, [r3]
    c1f0:	e50b3008 	str	r3, [fp, #-8]

  heap_end += incr;
    c1f4:	e59f3024 	ldr	r3, [pc, #36]	; c220 <_sbrk+0x78>
    c1f8:	e5932000 	ldr	r2, [r3]
    c1fc:	e51b3010 	ldr	r3, [fp, #-16]
    c200:	e0822003 	add	r2, r2, r3
    c204:	e59f3014 	ldr	r3, [pc, #20]	; c220 <_sbrk+0x78>
    c208:	e5832000 	str	r2, [r3]
  return (caddr_t) prev_heap_end;
    c20c:	e51b3008 	ldr	r3, [fp, #-8]
}
    c210:	e1a00003 	mov	r0, r3
    c214:	e28bd000 	add	sp, fp, #0
    c218:	e8bd0800 	pop	{fp}
    c21c:	e12fff1e 	bx	lr
    c220:	40000938 	.word	0x40000938
    c224:	7fe00000 	.word	0x7fe00000

Disassembly of section .text._stat:

0000c228 <_stat>:

int _stat(char *file, struct stat *st)
{
    c228:	e52db004 	push	{fp}		; (str fp, [sp, #-4]!)
    c22c:	e28db000 	add	fp, sp, #0
    c230:	e24dd00c 	sub	sp, sp, #12
    c234:	e50b0008 	str	r0, [fp, #-8]
    c238:	e50b100c 	str	r1, [fp, #-12]
  st->st_mode = S_IFCHR;
    c23c:	e51b300c 	ldr	r3, [fp, #-12]
    c240:	e3a02a02 	mov	r2, #8192	; 0x2000
    c244:	e5832004 	str	r2, [r3, #4]
  return 0;
    c248:	e3a03000 	mov	r3, #0
}
    c24c:	e1a00003 	mov	r0, r3
    c250:	e28bd000 	add	sp, fp, #0
    c254:	e8bd0800 	pop	{fp}
    c258:	e12fff1e 	bx	lr

Disassembly of section .text._times:

0000c25c <_times>:
int _times(struct tms *buf)
{
    c25c:	e52db004 	push	{fp}		; (str fp, [sp, #-4]!)
    c260:	e28db000 	add	fp, sp, #0
    c264:	e24dd00c 	sub	sp, sp, #12
    c268:	e50b0008 	str	r0, [fp, #-8]
  return -1;
    c26c:	e3e03000 	mvn	r3, #0
}
    c270:	e1a00003 	mov	r0, r3
    c274:	e28bd000 	add	sp, fp, #0
    c278:	e8bd0800 	pop	{fp}
    c27c:	e12fff1e 	bx	lr

Disassembly of section .text._unlink:

0000c280 <_unlink>:

int _unlink(char *name)
{
    c280:	e52db004 	push	{fp}		; (str fp, [sp, #-4]!)
    c284:	e28db000 	add	fp, sp, #0
    c288:	e24dd00c 	sub	sp, sp, #12
    c28c:	e50b0008 	str	r0, [fp, #-8]
  errno = ENOENT;
    c290:	e59f3018 	ldr	r3, [pc, #24]	; c2b0 <_unlink+0x30>
    c294:	e3a02002 	mov	r2, #2
    c298:	e5832000 	str	r2, [r3]
  return -1;
    c29c:	e3e03000 	mvn	r3, #0
}
    c2a0:	e1a00003 	mov	r0, r3
    c2a4:	e28bd000 	add	sp, fp, #0
    c2a8:	e8bd0800 	pop	{fp}
    c2ac:	e12fff1e 	bx	lr
    c2b0:	40000930 	.word	0x40000930

Disassembly of section .text._wait:

0000c2b4 <_wait>:

int _wait(int *status)
{
    c2b4:	e52db004 	push	{fp}		; (str fp, [sp, #-4]!)
    c2b8:	e28db000 	add	fp, sp, #0
    c2bc:	e24dd00c 	sub	sp, sp, #12
    c2c0:	e50b0008 	str	r0, [fp, #-8]
  errno = ECHILD;
    c2c4:	e59f3018 	ldr	r3, [pc, #24]	; c2e4 <_wait+0x30>
    c2c8:	e3a0200a 	mov	r2, #10
    c2cc:	e5832000 	str	r2, [r3]
  return -1;
    c2d0:	e3e03000 	mvn	r3, #0
}
    c2d4:	e1a00003 	mov	r0, r3
    c2d8:	e28bd000 	add	sp, fp, #0
    c2dc:	e8bd0800 	pop	{fp}
    c2e0:	e12fff1e 	bx	lr
    c2e4:	40000930 	.word	0x40000930

Disassembly of section .text._write:

0000c2e8 <_write>:

int _write(int file, char *ptr, int len)
{
    c2e8:	e52db004 	push	{fp}		; (str fp, [sp, #-4]!)
    c2ec:	e28db000 	add	fp, sp, #0
    c2f0:	e24dd014 	sub	sp, sp, #20
    c2f4:	e50b0008 	str	r0, [fp, #-8]
    c2f8:	e50b100c 	str	r1, [fp, #-12]
    c2fc:	e50b2010 	str	r2, [fp, #-16]
  return 0;
    c300:	e3a03000 	mov	r3, #0
}
    c304:	e1a00003 	mov	r0, r3
    c308:	e28bd000 	add	sp, fp, #0
    c30c:	e8bd0800 	pop	{fp}
    c310:	e12fff1e 	bx	lr

Disassembly of section .text.setPortPinDir:

0000c314 <setPortPinDir>:
#include "lpc246x.h"
#include "lpc2478_lib.h"

void setPortPinDir(char port, char pin)
{
    c314:	e52db004 	push	{fp}		; (str fp, [sp, #-4]!)
    c318:	e28db000 	add	fp, sp, #0
    c31c:	e24dd00c 	sub	sp, sp, #12
    c320:	e1a02000 	mov	r2, r0
    c324:	e1a03001 	mov	r3, r1
    c328:	e54b2005 	strb	r2, [fp, #-5]
    c32c:	e54b3006 	strb	r3, [fp, #-6]
	switch(port){
    c330:	e55b3005 	ldrb	r3, [fp, #-5]
    c334:	e3530002 	cmp	r3, #2
    c338:	0a000004 	beq	c350 <setPortPinDir+0x3c>
    c33c:	e3530003 	cmp	r3, #3
    c340:	0a00000c 	beq	c378 <setPortPinDir+0x64>
    c344:	e3530001 	cmp	r3, #1
    c348:	0a00000c 	beq	c380 <setPortPinDir+0x6c>
    c34c:	ea000007 	b	c370 <setPortPinDir+0x5c>
		case 1: /* configure pin of Port 1 */
				break;
		case 2: FIO2DIR = (1<<pin);
    c350:	e59f1038 	ldr	r1, [pc, #56]	; c390 <setPortPinDir+0x7c>
    c354:	e55b3006 	ldrb	r3, [fp, #-6]
    c358:	e3a02001 	mov	r2, #1
    c35c:	e1a03312 	lsl	r3, r2, r3
    c360:	e1a02003 	mov	r2, r3
    c364:	e1a03001 	mov	r3, r1
    c368:	e5832000 	str	r2, [r3]
				break;
    c36c:	ea000004 	b	c384 <setPortPinDir+0x70>
		case 3: /* configure pin of Port 3 */
				break;
		default:
				break;
    c370:	e1a00000 	nop			; (mov r0, r0)
    c374:	ea000002 	b	c384 <setPortPinDir+0x70>
		case 1: /* configure pin of Port 1 */
				break;
		case 2: FIO2DIR = (1<<pin);
				break;
		case 3: /* configure pin of Port 3 */
				break;
    c378:	e1a00000 	nop			; (mov r0, r0)
    c37c:	ea000000 	b	c384 <setPortPinDir+0x70>

void setPortPinDir(char port, char pin)
{
	switch(port){
		case 1: /* configure pin of Port 1 */
				break;
    c380:	e1a00000 	nop			; (mov r0, r0)
		case 3: /* configure pin of Port 3 */
				break;
		default:
				break;
	}
}
    c384:	e28bd000 	add	sp, fp, #0
    c388:	e8bd0800 	pop	{fp}
    c38c:	e12fff1e 	bx	lr
    c390:	3fffc040 	.word	0x3fffc040

Disassembly of section .text.clrPortPin:

0000c394 <clrPortPin>:

void clrPortPin(char port, char pin)
{
    c394:	e52db004 	push	{fp}		; (str fp, [sp, #-4]!)
    c398:	e28db000 	add	fp, sp, #0
    c39c:	e24dd00c 	sub	sp, sp, #12
    c3a0:	e1a02000 	mov	r2, r0
    c3a4:	e1a03001 	mov	r3, r1
    c3a8:	e54b2005 	strb	r2, [fp, #-5]
    c3ac:	e54b3006 	strb	r3, [fp, #-6]
	switch(port){
    c3b0:	e55b3005 	ldrb	r3, [fp, #-5]
    c3b4:	e3530002 	cmp	r3, #2
    c3b8:	0a000004 	beq	c3d0 <clrPortPin+0x3c>
    c3bc:	e3530003 	cmp	r3, #3
    c3c0:	0a00000c 	beq	c3f8 <clrPortPin+0x64>
    c3c4:	e3530001 	cmp	r3, #1
    c3c8:	0a00000c 	beq	c400 <clrPortPin+0x6c>
    c3cc:	ea000007 	b	c3f0 <clrPortPin+0x5c>
		case 1: /* configure pin of Port 1 */
				break;
		case 2: FIO2CLR = (1<<pin);
    c3d0:	e59f1038 	ldr	r1, [pc, #56]	; c410 <clrPortPin+0x7c>
    c3d4:	e55b3006 	ldrb	r3, [fp, #-6]
    c3d8:	e3a02001 	mov	r2, #1
    c3dc:	e1a03312 	lsl	r3, r2, r3
    c3e0:	e1a02003 	mov	r2, r3
    c3e4:	e1a03001 	mov	r3, r1
    c3e8:	e5832000 	str	r2, [r3]
				break;
    c3ec:	ea000004 	b	c404 <clrPortPin+0x70>
		case 3: /* configure pin of Port 3 */
				break;
		default:
				break;
    c3f0:	e1a00000 	nop			; (mov r0, r0)
    c3f4:	ea000002 	b	c404 <clrPortPin+0x70>
		case 1: /* configure pin of Port 1 */
				break;
		case 2: FIO2CLR = (1<<pin);
				break;
		case 3: /* configure pin of Port 3 */
				break;
    c3f8:	e1a00000 	nop			; (mov r0, r0)
    c3fc:	ea000000 	b	c404 <clrPortPin+0x70>

void clrPortPin(char port, char pin)
{
	switch(port){
		case 1: /* configure pin of Port 1 */
				break;
    c400:	e1a00000 	nop			; (mov r0, r0)
		case 3: /* configure pin of Port 3 */
				break;
		default:
				break;
	}
}
    c404:	e28bd000 	add	sp, fp, #0
    c408:	e8bd0800 	pop	{fp}
    c40c:	e12fff1e 	bx	lr
    c410:	3fffc05c 	.word	0x3fffc05c

Disassembly of section .text.setPortPin:

0000c414 <setPortPin>:

void setPortPin(char port, char pin)
{
    c414:	e52db004 	push	{fp}		; (str fp, [sp, #-4]!)
    c418:	e28db000 	add	fp, sp, #0
    c41c:	e24dd00c 	sub	sp, sp, #12
    c420:	e1a02000 	mov	r2, r0
    c424:	e1a03001 	mov	r3, r1
    c428:	e54b2005 	strb	r2, [fp, #-5]
    c42c:	e54b3006 	strb	r3, [fp, #-6]
	switch(port){
    c430:	e55b3005 	ldrb	r3, [fp, #-5]
    c434:	e3530002 	cmp	r3, #2
    c438:	0a000004 	beq	c450 <setPortPin+0x3c>
    c43c:	e3530003 	cmp	r3, #3
    c440:	0a00000c 	beq	c478 <setPortPin+0x64>
    c444:	e3530001 	cmp	r3, #1
    c448:	0a00000c 	beq	c480 <setPortPin+0x6c>
    c44c:	ea000007 	b	c470 <setPortPin+0x5c>
		case 1: /* configure pin of Port 1 */
				break;
		case 2: FIO2SET = (1<<pin);
    c450:	e59f1038 	ldr	r1, [pc, #56]	; c490 <setPortPin+0x7c>
    c454:	e55b3006 	ldrb	r3, [fp, #-6]
    c458:	e3a02001 	mov	r2, #1
    c45c:	e1a03312 	lsl	r3, r2, r3
    c460:	e1a02003 	mov	r2, r3
    c464:	e1a03001 	mov	r3, r1
    c468:	e5832000 	str	r2, [r3]
				break;
    c46c:	ea000004 	b	c484 <setPortPin+0x70>
		case 3: /* configure pin of Port 3 */
				break;
		default:
				break;
    c470:	e1a00000 	nop			; (mov r0, r0)
    c474:	ea000002 	b	c484 <setPortPin+0x70>
		case 1: /* configure pin of Port 1 */
				break;
		case 2: FIO2SET = (1<<pin);
				break;
		case 3: /* configure pin of Port 3 */
				break;
    c478:	e1a00000 	nop			; (mov r0, r0)
    c47c:	ea000000 	b	c484 <setPortPin+0x70>

void setPortPin(char port, char pin)
{
	switch(port){
		case 1: /* configure pin of Port 1 */
				break;
    c480:	e1a00000 	nop			; (mov r0, r0)
		case 3: /* configure pin of Port 3 */
				break;
		default:
				break;
	}
}
    c484:	e28bd000 	add	sp, fp, #0
    c488:	e8bd0800 	pop	{fp}
    c48c:	e12fff1e 	bx	lr
    c490:	3fffc058 	.word	0x3fffc058

Disassembly of section .text.delayMs:

0000c494 <delayMs>:

void delayMs(unsigned short delayInMs)
{
    c494:	e52db004 	push	{fp}		; (str fp, [sp, #-4]!)
    c498:	e28db000 	add	fp, sp, #0
    c49c:	e24dd00c 	sub	sp, sp, #12
    c4a0:	e1a03000 	mov	r3, r0
    c4a4:	e14b30b6 	strh	r3, [fp, #-6]
	T1TCR = 0x02;							/* stop and reset timer  */
    c4a8:	e59f3098 	ldr	r3, [pc, #152]	; c548 <delayMs+0xb4>
    c4ac:	e3a02002 	mov	r2, #2
    c4b0:	e5832000 	str	r2, [r3]
	T1PR = 0x00;							/* set prescaler to zero */
    c4b4:	e59f3090 	ldr	r3, [pc, #144]	; c54c <delayMs+0xb8>
    c4b8:	e3a02000 	mov	r2, #0
    c4bc:	e5832000 	str	r2, [r3]
	T1MR0 = delayInMs * (25000000 / 1000);	/* calculate Timer Match Register Value */
    c4c0:	e59f1088 	ldr	r1, [pc, #136]	; c550 <delayMs+0xbc>
    c4c4:	e15b20b6 	ldrh	r2, [fp, #-6]
    c4c8:	e1a03002 	mov	r3, r2
    c4cc:	e1a03283 	lsl	r3, r3, #5
    c4d0:	e0623003 	rsb	r3, r2, r3
    c4d4:	e1a03103 	lsl	r3, r3, #2
    c4d8:	e0833002 	add	r3, r3, r2
    c4dc:	e1a02103 	lsl	r2, r3, #2
    c4e0:	e0833002 	add	r3, r3, r2
    c4e4:	e1a02103 	lsl	r2, r3, #2
    c4e8:	e0833002 	add	r3, r3, r2
    c4ec:	e1a03183 	lsl	r3, r3, #3
    c4f0:	e1a02003 	mov	r2, r3
    c4f4:	e1a03001 	mov	r3, r1
    c4f8:	e5832000 	str	r2, [r3]
	T1IR = 0xFF;							/* reset all interrupt flags */
    c4fc:	e59f3050 	ldr	r3, [pc, #80]	; c554 <delayMs+0xc0>
    c500:	e3a020ff 	mov	r2, #255	; 0xff
    c504:	e5832000 	str	r2, [r3]
	T1MCR = 0x04;							/* stop timer on match */
    c508:	e59f3048 	ldr	r3, [pc, #72]	; c558 <delayMs+0xc4>
    c50c:	e3a02004 	mov	r2, #4
    c510:	e5832000 	str	r2, [r3]
	T1TCR = 0x01;							/* start timer */
    c514:	e59f302c 	ldr	r3, [pc, #44]	; c548 <delayMs+0xb4>
    c518:	e3a02001 	mov	r2, #1
    c51c:	e5832000 	str	r2, [r3]

	while(T1TCR & 0x01);					/* wait until delay time has elapsed */
    c520:	e1a00000 	nop			; (mov r0, r0)
    c524:	e59f301c 	ldr	r3, [pc, #28]	; c548 <delayMs+0xb4>
    c528:	e5933000 	ldr	r3, [r3]
    c52c:	e2033001 	and	r3, r3, #1
    c530:	e20330ff 	and	r3, r3, #255	; 0xff
    c534:	e3530000 	cmp	r3, #0
    c538:	1afffff9 	bne	c524 <delayMs+0x90>
}
    c53c:	e28bd000 	add	sp, fp, #0
    c540:	e8bd0800 	pop	{fp}
    c544:	e12fff1e 	bx	lr
    c548:	e0008004 	.word	0xe0008004
    c54c:	e000800c 	.word	0xe000800c
    c550:	e0008018 	.word	0xe0008018
    c554:	e0008000 	.word	0xe0008000
    c558:	e0008014 	.word	0xe0008014

Disassembly of section .text.main:

0000c55c <main>:
#include "init.h"
#include "lpc2478_lib.h"

int
main(void)
{
    c55c:	e92d4800 	push	{fp, lr}
    c560:	e28db004 	add	fp, sp, #4
	setPortPinDir(2, 10);
    c564:	e3a00002 	mov	r0, #2
    c568:	e3a0100a 	mov	r1, #10
    c56c:	ebffff68 	bl	c314 <setPortPinDir>

	for(;;)
	{
		setPortPin(2, 10);
    c570:	e3a00002 	mov	r0, #2
    c574:	e3a0100a 	mov	r1, #10
    c578:	ebffffa5 	bl	c414 <setPortPin>
		delayMs(1000);
    c57c:	e3a00ffa 	mov	r0, #1000	; 0x3e8
    c580:	ebffffc3 	bl	c494 <delayMs>
		clrPortPin(2, 10);
    c584:	e3a00002 	mov	r0, #2
    c588:	e3a0100a 	mov	r1, #10
    c58c:	ebffff80 	bl	c394 <clrPortPin>
		delayMs(1000);
    c590:	e3a00ffa 	mov	r0, #1000	; 0x3e8
    c594:	ebffffbe 	bl	c494 <delayMs>
	}
    c598:	eafffff4 	b	c570 <main+0x14>
